(lp0
(dp1
S'contVal'
p2
NsS'drug2'
p3
Vhttp://bio2rdf.org/drugbank:DB00338
p4
sS'drug1'
p5
Vhttp://bio2rdf.org/drugbank:DB01175
p6
sS'objectUri'
p7
NsS'evidence'
p8
NsS'ddiPkMechanism'
p9
NsS'whoAnnotated'
p10
NsS'contraindication'
p11
NsS'researchStatementLabel'
p12
NsS'severity'
p13
NsS'label'
p14
Vomeprazole increases the AUC of escitalopram 
p15
sS'effectConcept'
p16
NsS'source'
p17
S'DIKB'
p18
sS'ddiPkEffect'
p19
NsS'homepage'
p20
NsS'pathway'
p21
NsS'ddiType'
p22
NsS'researchStatement'
p23
NsS'dateAnnotated'
p24
NsS'object'
p25
Vescitalopram
p26
sS'evidenceSource'
p27
NsS'evidenceStatement'
p28
NsS'precipUri'
p29
NsS'certainty'
p30
NsS'uri'
p31
Vhttp://dbmi-icode-01.dbmi.pitt.edu/dikb/resource/DDIObservations30
p32
sS'evidenceType'
p33
NsS'numericVal'
p34
NsS'precaution'
p35
NsS'precipitant'
p36
Vomeprazole
p37
sa(dp38
g2
Nsg3
Vhttp://bio2rdf.org/drugbank:DB01238
p39
sg5
Vhttp://bio2rdf.org/drugbank:DB01175
p40
sg7
Nsg8
Nsg9
Nsg10
Nsg11
Nsg12
Nsg13
Nsg14
Varipiprazole increases the AUC of escitalopram 
p41
sg16
Nsg17
g18
sg19
Nsg20
Nsg21
Nsg22
Nsg23
Nsg24
Nsg25
Vescitalopram
p42
sg27
Nsg28
Nsg29
Nsg30
Nsg31
Vhttp://dbmi-icode-01.dbmi.pitt.edu/dikb/resource/DDIObservations65
p43
sg33
Nsg34
Nsg35
Nsg36
Varipiprazole
p44
sa(dp45
g2
Nsg3
Vhttp://bio2rdf.org/drugbank:DB00501
p46
sg5
Vhttp://bio2rdf.org/drugbank:DB01175
p47
sg7
Nsg8
Nsg9
Nsg10
Nsg11
Nsg12
Nsg13
Nsg14
Vcimetidine increases the AUC of escitalopram 
p48
sg16
Nsg17
g18
sg19
Nsg20
Nsg21
Nsg22
Nsg23
Nsg24
Nsg25
Vescitalopram
p49
sg27
Nsg28
Nsg29
Nsg30
Nsg31
Vhttp://dbmi-icode-01.dbmi.pitt.edu/dikb/resource/DDIObservations26
p50
sg33
Nsg34
Nsg35
Nsg36
Vcimetidine
p51
sa(dp52
g2
Nsg3
Vhttp://bio2rdf.org/drugbank:DB00501
p53
sg5
Vhttp://bio2rdf.org/drugbank:DB01104
p54
sg7
Nsg8
Nsg9
Nsg10
Nsg11
Nsg12
Nsg13
Nsg14
Vcimetidine increases the AUC of sertraline 
p55
sg16
Nsg17
g18
sg19
Nsg20
Nsg21
Nsg22
Nsg23
Nsg24
Nsg25
Vsertraline
p56
sg27
Nsg28
Nsg29
Nsg30
Nsg31
Vhttp://dbmi-icode-01.dbmi.pitt.edu/dikb/resource/DDIObservations97
p57
sg33
Nsg34
Nsg35
Nsg36
Vcimetidine
p58
sa(dp59
g2
Nsg3
Vhttp://bio2rdf.org/drugbank:DB00472
p60
sg5
Vhttp://bio2rdf.org/drugbank:DB00404
p61
sg7
Nsg8
Nsg9
Nsg10
Nsg11
Nsg12
Nsg13
Nsg14
Vfluoxetine increases the AUC of alprazolam 
p62
sg16
Nsg17
g18
sg19
Nsg20
Nsg21
Nsg22
Nsg23
Nsg24
Nsg25
Valprazolam
p63
sg27
Nsg28
Nsg29
Nsg30
Nsg31
Vhttp://dbmi-icode-01.dbmi.pitt.edu/dikb/resource/DDIObservations20
p64
sg33
Nsg34
Nsg35
Nsg36
Vfluoxetine
p65
sa(dp66
g2
Nsg3
Vhttp://bio2rdf.org/drugbank:DB00199
p67
sg5
Vhttp://bio2rdf.org/drugbank:DB00404
p68
sg7
Nsg8
Nsg9
Nsg10
Nsg11
Nsg12
Nsg13
Nsg14
Verythromycin increases the AUC of alprazolam 
p69
sg16
Nsg17
g18
sg19
Nsg20
Nsg21
Nsg22
Nsg23
Nsg24
Nsg25
Valprazolam
p70
sg27
Nsg28
Nsg29
Nsg30
Nsg31
Vhttp://dbmi-icode-01.dbmi.pitt.edu/dikb/resource/DDIObservations70
p71
sg33
Nsg34
Nsg35
Nsg36
Verythromycin
p72
sa(dp73
g2
Nsg3
Vhttp://bio2rdf.org/drugbank:DB01167
p74
sg5
Vhttp://bio2rdf.org/drugbank:DB00404
p75
sg7
Nsg8
Nsg9
Nsg10
Nsg11
Nsg12
Nsg13
Nsg14
Vitraconazole increases the AUC of alprazolam 
p76
sg16
Nsg17
g18
sg19
Nsg20
Nsg21
Nsg22
Nsg23
Nsg24
Nsg25
Valprazolam
p77
sg27
Nsg28
Nsg29
Nsg30
Nsg31
Vhttp://dbmi-icode-01.dbmi.pitt.edu/dikb/resource/DDIObservations62
p78
sg33
Nsg34
Nsg35
Nsg36
Vitraconazole
p79
sa(dp80
g2
Nsg3
Vhttp://bio2rdf.org/drugbank:DB01026
p81
sg5
Vhttp://bio2rdf.org/drugbank:DB00404
p82
sg7
Nsg8
Nsg9
Nsg10
Nsg11
Nsg12
Nsg13
Nsg14
Vketoconazole increases the AUC of alprazolam 
p83
sg16
Nsg17
g18
sg19
Nsg20
Nsg21
Nsg22
Nsg23
Nsg24
Nsg25
Valprazolam
p84
sg27
Nsg28
Nsg29
Nsg30
Nsg31
Vhttp://dbmi-icode-01.dbmi.pitt.edu/dikb/resource/DDIObservations67
p85
sg33
Nsg34
Nsg35
Nsg36
Vketoconazole
p86
sa(dp87
g2
Nsg3
Vhttp://bio2rdf.org/drugbank:DB01149
p88
sg5
Vhttp://bio2rdf.org/drugbank:DB00404
p89
sg7
Nsg8
Nsg9
Nsg10
Nsg11
Nsg12
Nsg13
Nsg14
Vnefazodone increases the AUC of alprazolam 
p90
sg16
Nsg17
g18
sg19
Nsg20
Nsg21
Nsg22
Nsg23
Nsg24
Nsg25
Valprazolam
p91
sg27
Nsg28
Nsg29
Nsg30
Nsg31
Vhttp://dbmi-icode-01.dbmi.pitt.edu/dikb/resource/DDIObservations9
p92
sg33
Nsg34
Nsg35
Nsg36
Vnefazodone
p93
sa(dp94
g2
Nsg3
Vhttp://bio2rdf.org/drugbank:DB00199
p95
sg5
Vhttp://bio2rdf.org/drugbank:DB00683
p96
sg7
Nsg8
Nsg9
Nsg10
Nsg11
Nsg12
Nsg13
Nsg14
Verythromycin increases the AUC of midazolam 
p97
sg16
Nsg17
g18
sg19
Nsg20
Nsg21
Nsg22
Nsg23
Nsg24
Nsg25
Vmidazolam
p98
sg27
Nsg28
Nsg29
Nsg30
Nsg31
Vhttp://dbmi-icode-01.dbmi.pitt.edu/dikb/resource/DDIObservations55
p99
sg33
Nsg34
Nsg35
Nsg36
Verythromycin
p100
sa(dp101
g2
Nsg3
Vhttp://bio2rdf.org/drugbank:DB01167
p102
sg5
Vhttp://bio2rdf.org/drugbank:DB00683
p103
sg7
Nsg8
Nsg9
Nsg10
Nsg11
Nsg12
Nsg13
Nsg14
Vitraconazole increases the AUC of midazolam 
p104
sg16
Nsg17
g18
sg19
Nsg20
Nsg21
Nsg22
Nsg23
Nsg24
Nsg25
Vmidazolam
p105
sg27
Nsg28
Nsg29
Nsg30
Nsg31
Vhttp://dbmi-icode-01.dbmi.pitt.edu/dikb/resource/DDIObservations18
p106
sg33
Nsg34
Nsg35
Nsg36
Vitraconazole
p107
sa(dp108
g2
Nsg3
Vhttp://bio2rdf.org/drugbank:DB00343
p109
sg5
Vhttp://bio2rdf.org/drugbank:DB00683
p110
sg7
Nsg8
Nsg9
Nsg10
Nsg11
Nsg12
Nsg13
Nsg14
Vdiltiazem increases the AUC of midazolam 
p111
sg16
Nsg17
g18
sg19
Nsg20
Nsg21
Nsg22
Nsg23
Nsg24
Nsg25
Vmidazolam
p112
sg27
Nsg28
Nsg29
Nsg30
Nsg31
Vhttp://dbmi-icode-01.dbmi.pitt.edu/dikb/resource/DDIObservations79
p113
sg33
Nsg34
Nsg35
Nsg36
Vdiltiazem
p114
sa(dp115
g2
Nsg3
Vhttp://bio2rdf.org/drugbank:DB01026
p116
sg5
Vhttp://bio2rdf.org/drugbank:DB00683
p117
sg7
Nsg8
Nsg9
Nsg10
Nsg11
Nsg12
Nsg13
Nsg14
Vketoconazole increases the AUC of midazolam 
p118
sg16
Nsg17
g18
sg19
Nsg20
Nsg21
Nsg22
Nsg23
Nsg24
Nsg25
Vmidazolam
p119
sg27
Nsg28
Nsg29
Nsg30
Nsg31
Vhttp://dbmi-icode-01.dbmi.pitt.edu/dikb/resource/DDIObservations5
p120
sg33
Nsg34
Nsg35
Nsg36
Vketoconazole
p121
sa(dp122
g2
Nsg3
Vhttp://bio2rdf.org/drugbank:DB00196
p123
sg5
Vhttp://bio2rdf.org/drugbank:DB00683
p124
sg7
Nsg8
Nsg9
Nsg10
Nsg11
Nsg12
Nsg13
Nsg14
Vfluconazole increases the AUC of midazolam 
p125
sg16
Nsg17
g18
sg19
Nsg20
Nsg21
Nsg22
Nsg23
Nsg24
Nsg25
Vmidazolam
p126
sg27
Nsg28
Nsg29
Nsg30
Nsg31
Vhttp://dbmi-icode-01.dbmi.pitt.edu/dikb/resource/DDIObservations28
p127
sg33
Nsg34
Nsg35
Nsg36
Vfluconazole
p128
sa(dp129
g2
Nsg3
Vhttp://bio2rdf.org/drugbank:DB01149
p130
sg5
Vhttp://bio2rdf.org/drugbank:DB00683
p131
sg7
Nsg8
Nsg9
Nsg10
Nsg11
Nsg12
Nsg13
Nsg14
Vnefazodone increases the AUC of midazolam 
p132
sg16
Nsg17
g18
sg19
Nsg20
Nsg21
Nsg22
Nsg23
Nsg24
Nsg25
Vmidazolam
p133
sg27
Nsg28
Nsg29
Nsg30
Nsg31
Vhttp://dbmi-icode-01.dbmi.pitt.edu/dikb/resource/DDIObservations45
p134
sg33
Nsg34
Nsg35
Nsg36
Vnefazodone
p135
sa(dp136
g2
Nsg3
Vhttp://bio2rdf.org/drugbank:DB01211
p137
sg5
Vhttp://bio2rdf.org/drugbank:DB00683
p138
sg7
Nsg8
Nsg9
Nsg10
Nsg11
Nsg12
Nsg13
Nsg14
Vclarithromycin increases the AUC of midazolam 
p139
sg16
Nsg17
g18
sg19
Nsg20
Nsg21
Nsg22
Nsg23
Nsg24
Nsg25
Vmidazolam
p140
sg27
Nsg28
Nsg29
Nsg30
Nsg31
Vhttp://dbmi-icode-01.dbmi.pitt.edu/dikb/resource/DDIObservations17
p141
sg33
Nsg34
Nsg35
Nsg36
Vclarithromycin
p142
sa(dp143
g2
Nsg3
Vhttp://bio2rdf.org/drugbank:DB01167
p144
sg5
Vhttp://bio2rdf.org/drugbank:DB01098
p145
sg7
Nsg8
Nsg9
Nsg10
Nsg11
Nsg12
Nsg13
Nsg14
Vitraconazole increases the AUC of rosuvastatin 
p146
sg16
Nsg17
g18
sg19
Nsg20
Nsg21
Nsg22
Nsg23
Nsg24
Nsg25
Vrosuvastatin
p147
sg27
Nsg28
Nsg29
Nsg30
Nsg31
Vhttp://dbmi-icode-01.dbmi.pitt.edu/dikb/resource/DDIObservations61
p148
sg33
Nsg34
Nsg35
Nsg36
Vitraconazole
p149
sa(dp150
g2
Nsg3
Vhttp://bio2rdf.org/drugbank:DB00199
p151
sg5
Vhttp://bio2rdf.org/drugbank:DB01224
p152
sg7
Nsg8
Nsg9
Nsg10
Nsg11
Nsg12
Nsg13
Nsg14
Verythromycin increases the AUC of quetiapine 
p153
sg16
Nsg17
g18
sg19
Nsg20
Nsg21
Nsg22
Nsg23
Nsg24
Nsg25
Vquetiapine
p154
sg27
Nsg28
Nsg29
Nsg30
Nsg31
Vhttp://dbmi-icode-01.dbmi.pitt.edu/dikb/resource/DDIObservations77
p155
sg33
Nsg34
Nsg35
Nsg36
Verythromycin
p156
sa(dp157
g2
Nsg3
Vhttp://bio2rdf.org/drugbank:DB00501
p158
sg5
Vhttp://bio2rdf.org/drugbank:DB01224
p159
sg7
Nsg8
Nsg9
Nsg10
Nsg11
Nsg12
Nsg13
Nsg14
Vcimetidine increases the AUC of quetiapine 
p160
sg16
Nsg17
g18
sg19
Nsg20
Nsg21
Nsg22
Nsg23
Nsg24
Nsg25
Vquetiapine
p161
sg27
Nsg28
Nsg29
Nsg30
Nsg31
Vhttp://dbmi-icode-01.dbmi.pitt.edu/dikb/resource/DDIObservations46
p162
sg33
Nsg34
Nsg35
Nsg36
Vcimetidine
p163
sa(dp164
g2
Nsg3
Vhttp://bio2rdf.org/drugbank:DB00176
p165
sg5
Vhttp://bio2rdf.org/drugbank:DB00679
p166
sg7
Nsg8
Nsg9
Nsg10
Nsg11
Nsg12
Nsg13
Nsg14
Vfluvoxamine increases the AUC of thioridazine 
p167
sg16
Nsg17
g18
sg19
Nsg20
Nsg21
Nsg22
Nsg23
Nsg24
Nsg25
Vthioridazine
p168
sg27
Nsg28
Nsg29
Nsg30
Nsg31
Vhttp://dbmi-icode-01.dbmi.pitt.edu/dikb/resource/DDIObservations59
p169
sg33
Nsg34
Nsg35
Nsg36
Vfluvoxamine
p170
sa(dp171
g2
Nsg3
Vhttp://bio2rdf.org/drugbank:DB00715
p172
sg5
Vhttp://bio2rdf.org/drugbank:DB01267
p173
sg7
Nsg8
Nsg9
Nsg10
Nsg11
Nsg12
Nsg13
Nsg14
Vparoxetine increases the AUC of paliperidone 
p174
sg16
Nsg17
g18
sg19
Nsg20
Nsg21
Nsg22
Nsg23
Nsg24
Nsg25
Vpaliperidone
p175
sg27
Nsg28
Nsg29
Nsg30
Nsg31
Vhttp://dbmi-icode-01.dbmi.pitt.edu/dikb/resource/DDIObservations44
p176
sg33
Nsg34
Nsg35
Nsg36
Vparoxetine
p177
sa(dp178
g2
Nsg3
Vhttp://bio2rdf.org/drugbank:DB00176
p179
sg5
Vhttp://bio2rdf.org/drugbank:DB00363
p180
sg7
Nsg8
Nsg9
Nsg10
Nsg11
Nsg12
Nsg13
Nsg14
Vfluvoxamine increases the AUC of clozapine 
p181
sg16
Nsg17
g18
sg19
Nsg20
Nsg21
Nsg22
Nsg23
Nsg24
Nsg25
Vclozapine
p182
sg27
Nsg28
Nsg29
Nsg30
Nsg31
Vhttp://dbmi-icode-01.dbmi.pitt.edu/dikb/resource/DDIObservations58
p183
sg33
Nsg34
Nsg35
Nsg36
Vfluvoxamine
p184
sa(dp185
g2
Nsg3
Vhttp://bio2rdf.org/drugbank:DB00199
p186
sg5
Vhttp://bio2rdf.org/drugbank:DB00897
p187
sg7
Nsg8
Nsg9
Nsg10
Nsg11
Nsg12
Nsg13
Nsg14
Verythromycin increases the AUC of triazolam 
p188
sg16
Nsg17
g18
sg19
Nsg20
Nsg21
Nsg22
Nsg23
Nsg24
Nsg25
Vtriazolam
p189
sg27
Nsg28
Nsg29
Nsg30
Nsg31
Vhttp://dbmi-icode-01.dbmi.pitt.edu/dikb/resource/DDIObservations35
p190
sg33
Nsg34
Nsg35
Nsg36
Verythromycin
p191
sa(dp192
g2
Nsg3
Vhttp://bio2rdf.org/drugbank:DB01167
p193
sg5
Vhttp://bio2rdf.org/drugbank:DB00897
p194
sg7
Nsg8
Nsg9
Nsg10
Nsg11
Nsg12
Nsg13
Nsg14
Vitraconazole increases the AUC of triazolam 
p195
sg16
Nsg17
g18
sg19
Nsg20
Nsg21
Nsg22
Nsg23
Nsg24
Nsg25
Vtriazolam
p196
sg27
Nsg28
Nsg29
Nsg30
Nsg31
Vhttp://dbmi-icode-01.dbmi.pitt.edu/dikb/resource/DDIObservations73
p197
sg33
Nsg34
Nsg35
Nsg36
Vitraconazole
p198
sa(dp199
g2
Nsg3
Vhttp://bio2rdf.org/drugbank:DB00343
p200
sg5
Vhttp://bio2rdf.org/drugbank:DB00897
p201
sg7
Nsg8
Nsg9
Nsg10
Nsg11
Nsg12
Nsg13
Nsg14
Vdiltiazem increases the AUC of triazolam 
p202
sg16
Nsg17
g18
sg19
Nsg20
Nsg21
Nsg22
Nsg23
Nsg24
Nsg25
Vtriazolam
p203
sg27
Nsg28
Nsg29
Nsg30
Nsg31
Vhttp://dbmi-icode-01.dbmi.pitt.edu/dikb/resource/DDIObservations1
p204
sg33
Nsg34
Nsg35
Nsg36
Vdiltiazem
p205
sa(dp206
g2
Nsg3
Vhttp://bio2rdf.org/drugbank:DB01026
p207
sg5
Vhttp://bio2rdf.org/drugbank:DB00897
p208
sg7
Nsg8
Nsg9
Nsg10
Nsg11
Nsg12
Nsg13
Nsg14
Vketoconazole increases the AUC of triazolam 
p209
sg16
Nsg17
g18
sg19
Nsg20
Nsg21
Nsg22
Nsg23
Nsg24
Nsg25
Vtriazolam
p210
sg27
Nsg28
Nsg29
Nsg30
Nsg31
Vhttp://dbmi-icode-01.dbmi.pitt.edu/dikb/resource/DDIObservations43
p211
sg33
Nsg34
Nsg35
Nsg36
Vketoconazole
p212
sa(dp213
g2
Nsg3
Vhttp://bio2rdf.org/drugbank:DB00196
p214
sg5
Vhttp://bio2rdf.org/drugbank:DB00897
p215
sg7
Nsg8
Nsg9
Nsg10
Nsg11
Nsg12
Nsg13
Nsg14
Vfluconazole increases the AUC of triazolam 
p216
sg16
Nsg17
g18
sg19
Nsg20
Nsg21
Nsg22
Nsg23
Nsg24
Nsg25
Vtriazolam
p217
sg27
Nsg28
Nsg29
Nsg30
Nsg31
Vhttp://dbmi-icode-01.dbmi.pitt.edu/dikb/resource/DDIObservations11
p218
sg33
Nsg34
Nsg35
Nsg36
Vfluconazole
p219
sa(dp220
g2
Nsg3
Vhttp://bio2rdf.org/drugbank:DB01149
p221
sg5
Vhttp://bio2rdf.org/drugbank:DB00897
p222
sg7
Nsg8
Nsg9
Nsg10
Nsg11
Nsg12
Nsg13
Nsg14
Vnefazodone increases the AUC of triazolam 
p223
sg16
Nsg17
g18
sg19
Nsg20
Nsg21
Nsg22
Nsg23
Nsg24
Nsg25
Vtriazolam
p224
sg27
Nsg28
Nsg29
Nsg30
Nsg31
Vhttp://dbmi-icode-01.dbmi.pitt.edu/dikb/resource/DDIObservations24
p225
sg33
Nsg34
Nsg35
Nsg36
Vnefazodone
p226
sa(dp227
g2
Nsg3
Vhttp://bio2rdf.org/drugbank:DB01211
p228
sg5
Vhttp://bio2rdf.org/drugbank:DB00897
p229
sg7
Nsg8
Nsg9
Nsg10
Nsg11
Nsg12
Nsg13
Nsg14
Vclarithromycin increases the AUC of triazolam 
p230
sg16
Nsg17
g18
sg19
Nsg20
Nsg21
Nsg22
Nsg23
Nsg24
Nsg25
Vtriazolam
p231
sg27
Nsg28
Nsg29
Nsg30
Nsg31
Vhttp://dbmi-icode-01.dbmi.pitt.edu/dikb/resource/DDIObservations4
p232
sg33
Nsg34
Nsg35
Nsg36
Vclarithromycin
p233
sa(dp234
g2
Nsg3
Vhttp://bio2rdf.org/drugbank:DB01167
p235
sg5
Vhttp://bio2rdf.org/drugbank:DB00175
p236
sg7
Nsg8
Nsg9
Nsg10
Nsg11
Nsg12
Nsg13
Nsg14
Vitraconazole increases the AUC of pravastatin 
p237
sg16
Nsg17
g18
sg19
Nsg20
Nsg21
Nsg22
Nsg23
Nsg24
Nsg25
Vpravastatin
p238
sg27
Nsg28
Nsg29
Nsg30
Nsg31
Vhttp://dbmi-icode-01.dbmi.pitt.edu/dikb/resource/DDIObservations68
p239
sg33
Nsg34
Nsg35
Nsg36
Vitraconazole
p240
sa(dp241
g2
Nsg3
Vhttp://bio2rdf.org/drugbank:DB01211
p242
sg5
Vhttp://bio2rdf.org/drugbank:DB00175
p243
sg7
Nsg8
Nsg9
Nsg10
Nsg11
Nsg12
Nsg13
Nsg14
Vclarithromycin increases the AUC of pravastatin 
p244
sg16
Nsg17
g18
sg19
Nsg20
Nsg21
Nsg22
Nsg23
Nsg24
Nsg25
Vpravastatin
p245
sg27
Nsg28
Nsg29
Nsg30
Nsg31
Vhttp://dbmi-icode-01.dbmi.pitt.edu/dikb/resource/DDIObservations63
p246
sg33
Nsg34
Nsg35
Nsg36
Vclarithromycin
p247
sa(dp248
g2
Nsg3
Vhttp://bio2rdf.org/drugbank:DB00176
p249
sg5
Vhttp://bio2rdf.org/drugbank:DB00338
p250
sg7
Nsg8
Nsg9
Nsg10
Nsg11
Nsg12
Nsg13
Nsg14
Vfluvoxamine increases the AUC of omeprazole 
p251
sg16
Nsg17
g18
sg19
Nsg20
Nsg21
Nsg22
Nsg23
Nsg24
Nsg25
Vomeprazole
p252
sg27
Nsg28
Nsg29
Nsg30
Nsg31
Vhttp://dbmi-icode-01.dbmi.pitt.edu/dikb/resource/DDIObservations54
p253
sg33
Nsg34
Nsg35
Nsg36
Vfluvoxamine
p254
sa(dp255
g2
Nsg3
Vhttp://bio2rdf.org/drugbank:DB00503
p256
sg5
Vhttp://bio2rdf.org/drugbank:DB00656
p257
sg7
Nsg8
Nsg9
Nsg10
Nsg11
Nsg12
Nsg13
Nsg14
Vritonavir increases the AUC of trazodone 
p258
sg16
Nsg17
g18
sg19
Nsg20
Nsg21
Nsg22
Nsg23
Nsg24
Nsg25
Vtrazodone
p259
sg27
Nsg28
Nsg29
Nsg30
Nsg31
Vhttp://dbmi-icode-01.dbmi.pitt.edu/dikb/resource/DDIObservations85
p260
sg33
Nsg34
Nsg35
Nsg36
Vritonavir
p261
sa(dp262
g2
Nsg3
Vhttp://bio2rdf.org/drugbank:DB01211
p263
sg5
Vhttp://bio2rdf.org/drugbank:DB00656
p264
sg7
Nsg8
Nsg9
Nsg10
Nsg11
Nsg12
Nsg13
Nsg14
Vclarithromycin increases the AUC of trazodone 
p265
sg16
Nsg17
g18
sg19
Nsg20
Nsg21
Nsg22
Nsg23
Nsg24
Nsg25
Vtrazodone
p266
sg27
Nsg28
Nsg29
Nsg30
Nsg31
Vhttp://dbmi-icode-01.dbmi.pitt.edu/dikb/resource/DDIObservations60
p267
sg33
Nsg34
Nsg35
Nsg36
Vclarithromycin
p268
sa(dp269
g2
Nsg3
Vhttp://bio2rdf.org/drugbank:DB01075
p270
sg5
Vhttp://bio2rdf.org/drugbank:DB00285
p271
sg7
Nsg8
Nsg9
Nsg10
Nsg11
Nsg12
Nsg13
Nsg14
Vdiphenhydramine increases the AUC of venlafaxine 
p272
sg16
Nsg17
g18
sg19
Nsg20
Nsg21
Nsg22
Nsg23
Nsg24
Nsg25
Vvenlafaxine
p273
sg27
Nsg28
Nsg29
Nsg30
Nsg31
Vhttp://dbmi-icode-01.dbmi.pitt.edu/dikb/resource/DDIObservations76
p274
sg33
Nsg34
Nsg35
Nsg36
Vdiphenhydramine
p275
sa(dp276
g2
Nsg3
Vhttp://bio2rdf.org/drugbank:DB00857
p277
sg5
Vhttp://bio2rdf.org/drugbank:DB00285
p278
sg7
Nsg8
Nsg9
Nsg10
Nsg11
Nsg12
Nsg13
Nsg14
Vterbinafine increases the AUC of venlafaxine 
p279
sg16
Nsg17
g18
sg19
Nsg20
Nsg21
Nsg22
Nsg23
Nsg24
Nsg25
Vvenlafaxine
p280
sg27
Nsg28
Nsg29
Nsg30
Nsg31
Vhttp://dbmi-icode-01.dbmi.pitt.edu/dikb/resource/DDIObservations50
p281
sg33
Nsg34
Nsg35
Nsg36
Vterbinafine
p282
sa(dp283
g2
Nsg3
Vhttp://bio2rdf.org/drugbank:DB00908
p284
sg5
Vhttp://bio2rdf.org/drugbank:DB00285
p285
sg7
Nsg8
Nsg9
Nsg10
Nsg11
Nsg12
Nsg13
Nsg14
Vquinidine increases the AUC of venlafaxine 
p286
sg16
Nsg17
g18
sg19
Nsg20
Nsg21
Nsg22
Nsg23
Nsg24
Nsg25
Vvenlafaxine
p287
sg27
Nsg28
Nsg29
Nsg30
Nsg31
Vhttp://dbmi-icode-01.dbmi.pitt.edu/dikb/resource/DDIObservations102
p288
sg33
Nsg34
Nsg35
Nsg36
Vquinidine
p289
sa(dp290
g2
Nsg3
Vhttp://bio2rdf.org/drugbank:DB01026
p291
sg5
Vhttp://bio2rdf.org/drugbank:DB00285
p292
sg7
Nsg8
Nsg9
Nsg10
Nsg11
Nsg12
Nsg13
Nsg14
Vketoconazole increases the AUC of venlafaxine 
p293
sg16
Nsg17
g18
sg19
Nsg20
Nsg21
Nsg22
Nsg23
Nsg24
Nsg25
Vvenlafaxine
p294
sg27
Nsg28
Nsg29
Nsg30
Nsg31
Vhttp://dbmi-icode-01.dbmi.pitt.edu/dikb/resource/DDIObservations41
p295
sg33
Nsg34
Nsg35
Nsg36
Vketoconazole
p296
sa(dp297
g2
Nsg3
Vhttp://bio2rdf.org/drugbank:DB01238
p298
sg5
Vhttp://bio2rdf.org/drugbank:DB00285
p299
sg7
Nsg8
Nsg9
Nsg10
Nsg11
Nsg12
Nsg13
Nsg14
Varipiprazole increases the AUC of venlafaxine 
p300
sg16
Nsg17
g18
sg19
Nsg20
Nsg21
Nsg22
Nsg23
Nsg24
Nsg25
Vvenlafaxine
p301
sg27
Nsg28
Nsg29
Nsg30
Nsg31
Vhttp://dbmi-icode-01.dbmi.pitt.edu/dikb/resource/DDIObservations78
p302
sg33
Nsg34
Nsg35
Nsg36
Varipiprazole
p303
sa(dp304
g2
Nsg3
Vhttp://bio2rdf.org/drugbank:DB00501
p305
sg5
Vhttp://bio2rdf.org/drugbank:DB00285
p306
sg7
Nsg8
Nsg9
Nsg10
Nsg11
Nsg12
Nsg13
Nsg14
Vcimetidine increases the AUC of venlafaxine 
p307
sg16
Nsg17
g18
sg19
Nsg20
Nsg21
Nsg22
Nsg23
Nsg24
Nsg25
Vvenlafaxine
p308
sg27
Nsg28
Nsg29
Nsg30
Nsg31
Vhttp://dbmi-icode-01.dbmi.pitt.edu/dikb/resource/DDIObservations64
p309
sg33
Nsg34
Nsg35
Nsg36
Vcimetidine
p310
sa(dp311
g2
Nsg3
Vhttp://bio2rdf.org/drugbank:DB00501
p312
sg5
Vhttp://bio2rdf.org/drugbank:DB00246
p313
sg7
Nsg8
Nsg9
Nsg10
Nsg11
Nsg12
Nsg13
Nsg14
Vcimetidine increases the AUC of ziprasidone 
p314
sg16
Nsg17
g18
sg19
Nsg20
Nsg21
Nsg22
Nsg23
Nsg24
Nsg25
Vziprasidone
p315
sg27
Nsg28
Nsg29
Nsg30
Nsg31
Vhttp://dbmi-icode-01.dbmi.pitt.edu/dikb/resource/DDIObservations38
p316
sg33
Nsg34
Nsg35
Nsg36
Vcimetidine
p317
sa(dp318
g2
Nsg3
Vhttp://bio2rdf.org/drugbank:DB00176
p319
sg5
Vhttp://bio2rdf.org/drugbank:DB00476
p320
sg7
Nsg8
Nsg9
Nsg10
Nsg11
Nsg12
Nsg13
Nsg14
Vfluvoxamine increases the AUC of duloxetine 
p321
sg16
Nsg17
g18
sg19
Nsg20
Nsg21
Nsg22
Nsg23
Nsg24
Nsg25
Vduloxetine
p322
sg27
Nsg28
Nsg29
Nsg30
Nsg31
Vhttp://dbmi-icode-01.dbmi.pitt.edu/dikb/resource/DDIObservations49
p323
sg33
Nsg34
Nsg35
Nsg36
Vfluvoxamine
p324
sa(dp325
g2
Nsg3
Vhttp://bio2rdf.org/drugbank:DB00715
p326
sg5
Vhttp://bio2rdf.org/drugbank:DB00476
p327
sg7
Nsg8
Nsg9
Nsg10
Nsg11
Nsg12
Nsg13
Nsg14
Vparoxetine increases the AUC of duloxetine 
p328
sg16
Nsg17
g18
sg19
Nsg20
Nsg21
Nsg22
Nsg23
Nsg24
Nsg25
Vduloxetine
p329
sg27
Nsg28
Nsg29
Nsg30
Nsg31
Vhttp://dbmi-icode-01.dbmi.pitt.edu/dikb/resource/DDIObservations84
p330
sg33
Nsg34
Nsg35
Nsg36
Vparoxetine
p331
sa(dp332
g2
Nsg3
Vhttp://bio2rdf.org/drugbank:DB00176
p333
sg5
Vhttp://bio2rdf.org/drugbank:DB00908
p334
sg7
Nsg8
Nsg9
Nsg10
Nsg11
Nsg12
Nsg13
Nsg14
Vfluvoxamine increases the AUC of quinidine 
p335
sg16
Nsg17
g18
sg19
Nsg20
Nsg21
Nsg22
Nsg23
Nsg24
Nsg25
Vquinidine
p336
sg27
Nsg28
Nsg29
Nsg30
Nsg31
Vhttp://dbmi-icode-01.dbmi.pitt.edu/dikb/resource/DDIObservations66
p337
sg33
Nsg34
Nsg35
Nsg36
Vfluvoxamine
p338
sa(dp339
g2
Nsg3
Vhttp://bio2rdf.org/drugbank:DB00199
p340
sg5
Vhttp://bio2rdf.org/drugbank:DB01076
p341
sg7
Nsg8
Nsg9
Nsg10
Nsg11
Nsg12
Nsg13
Nsg14
Verythromycin increases the AUC of atorvastatin 
p342
sg16
Nsg17
g18
sg19
Nsg20
Nsg21
Nsg22
Nsg23
Nsg24
Nsg25
Vatorvastatin
p343
sg27
Nsg28
Nsg29
Nsg30
Nsg31
Vhttp://dbmi-icode-01.dbmi.pitt.edu/dikb/resource/DDIObservations56
p344
sg33
Nsg34
Nsg35
Nsg36
Verythromycin
p345
sa(dp346
g2
Nsg3
Vhttp://bio2rdf.org/drugbank:DB01167
p347
sg5
Vhttp://bio2rdf.org/drugbank:DB01076
p348
sg7
Nsg8
Nsg9
Nsg10
Nsg11
Nsg12
Nsg13
Nsg14
Vitraconazole increases the AUC of atorvastatin 
p349
sg16
Nsg17
g18
sg19
Nsg20
Nsg21
Nsg22
Nsg23
Nsg24
Nsg25
Vatorvastatin
p350
sg27
Nsg28
Nsg29
Nsg30
Nsg31
Vhttp://dbmi-icode-01.dbmi.pitt.edu/dikb/resource/DDIObservations22
p351
sg33
Nsg34
Nsg35
Nsg36
Vitraconazole
p352
sa(dp353
g2
Nsg3
Vhttp://bio2rdf.org/drugbank:DB01211
p354
sg5
Vhttp://bio2rdf.org/drugbank:DB01076
p355
sg7
Nsg8
Nsg9
Nsg10
Nsg11
Nsg12
Nsg13
Nsg14
Vclarithromycin increases the AUC of atorvastatin 
p356
sg16
Nsg17
g18
sg19
Nsg20
Nsg21
Nsg22
Nsg23
Nsg24
Nsg25
Vatorvastatin
p357
sg27
Nsg28
Nsg29
Nsg30
Nsg31
Vhttp://dbmi-icode-01.dbmi.pitt.edu/dikb/resource/DDIObservations8
p358
sg33
Nsg34
Nsg35
Nsg36
Vclarithromycin
p359
sa(dp360
g2
Nsg3
Vhttp://bio2rdf.org/drugbank:DB01167
p361
sg5
Vhttp://bio2rdf.org/drugbank:DB00425
p362
sg7
Nsg8
Nsg9
Nsg10
Nsg11
Nsg12
Nsg13
Nsg14
Vitraconazole increases the AUC of zolpidem 
p363
sg16
Nsg17
g18
sg19
Nsg20
Nsg21
Nsg22
Nsg23
Nsg24
Nsg25
Vzolpidem
p364
sg27
Nsg28
Nsg29
Nsg30
Nsg31
Vhttp://dbmi-icode-01.dbmi.pitt.edu/dikb/resource/DDIObservations80
p365
sg33
Nsg34
Nsg35
Nsg36
Vitraconazole
p366
sa(dp367
g2
Nsg3
Vhttp://bio2rdf.org/drugbank:DB01026
p368
sg5
Vhttp://bio2rdf.org/drugbank:DB00425
p369
sg7
Nsg8
Nsg9
Nsg10
Nsg11
Nsg12
Nsg13
Nsg14
Vketoconazole increases the AUC of zolpidem 
p370
sg16
Nsg17
g18
sg19
Nsg20
Nsg21
Nsg22
Nsg23
Nsg24
Nsg25
Vzolpidem
p371
sg27
Nsg28
Nsg29
Nsg30
Nsg31
Vhttp://dbmi-icode-01.dbmi.pitt.edu/dikb/resource/DDIObservations32
p372
sg33
Nsg34
Nsg35
Nsg36
Vketoconazole
p373
sa(dp374
g2
Nsg3
Vhttp://bio2rdf.org/drugbank:DB00176
p375
sg5
Vhttp://bio2rdf.org/drugbank:DB00379
p376
sg7
Nsg8
Nsg9
Nsg10
Nsg11
Nsg12
Nsg13
Nsg14
Vfluvoxamine increases the AUC of mexiletine 
p377
sg16
Nsg17
g18
sg19
Nsg20
Nsg21
Nsg22
Nsg23
Nsg24
Nsg25
Vmexiletine
p378
sg27
Nsg28
Nsg29
Nsg30
Nsg31
Vhttp://dbmi-icode-01.dbmi.pitt.edu/dikb/resource/DDIObservations53
p379
sg33
Nsg34
Nsg35
Nsg36
Vfluvoxamine
p380
sa(dp381
g2
Nsg3
Vhttp://bio2rdf.org/drugbank:DB00285
p382
sg5
Vhttp://bio2rdf.org/drugbank:DB00734
p383
sg7
Nsg8
Nsg9
Nsg10
Nsg11
Nsg12
Nsg13
Nsg14
Vvenlafaxine increases the AUC of risperidone 
p384
sg16
Nsg17
g18
sg19
Nsg20
Nsg21
Nsg22
Nsg23
Nsg24
Nsg25
Vrisperidone
p385
sg27
Nsg28
Nsg29
Nsg30
Nsg31
Vhttp://dbmi-icode-01.dbmi.pitt.edu/dikb/resource/DDIObservations21
p386
sg33
Nsg34
Nsg35
Nsg36
Vvenlafaxine
p387
sa(dp388
g2
Nsg3
Vhttp://bio2rdf.org/drugbank:DB00715
p389
sg5
Vhttp://bio2rdf.org/drugbank:DB00734
p390
sg7
Nsg8
Nsg9
Nsg10
Nsg11
Nsg12
Nsg13
Nsg14
Vparoxetine increases the AUC of risperidone 
p391
sg16
Nsg17
g18
sg19
Nsg20
Nsg21
Nsg22
Nsg23
Nsg24
Nsg25
Vrisperidone
p392
sg27
Nsg28
Nsg29
Nsg30
Nsg31
Vhttp://dbmi-icode-01.dbmi.pitt.edu/dikb/resource/DDIObservations13
p393
sg33
Nsg34
Nsg35
Nsg36
Vparoxetine
p394
sa(dp395
g2
Nsg3
Vhttp://bio2rdf.org/drugbank:DB00661
p396
sg5
Vhttp://bio2rdf.org/drugbank:DB00734
p397
sg7
Nsg8
Nsg9
Nsg10
Nsg11
Nsg12
Nsg13
Nsg14
Vverapamil increases the AUC of risperidone 
p398
sg16
Nsg17
g18
sg19
Nsg20
Nsg21
Nsg22
Nsg23
Nsg24
Nsg25
Vrisperidone
p399
sg27
Nsg28
Nsg29
Nsg30
Nsg31
Vhttp://dbmi-icode-01.dbmi.pitt.edu/dikb/resource/DDIObservations81
p400
sg33
Nsg34
Nsg35
Nsg36
Vverapamil
p401
sa(dp402
g2
Nsg3
Vhttp://bio2rdf.org/drugbank:DB01104
p403
sg5
Vhttp://bio2rdf.org/drugbank:DB01151
p404
sg7
Nsg8
Nsg9
Nsg10
Nsg11
Nsg12
Nsg13
Nsg14
Vsertraline increases the AUC of desipramine 
p405
sg16
Nsg17
g18
sg19
Nsg20
Nsg21
Nsg22
Nsg23
Nsg24
Nsg25
Vdesipramine
p406
sg27
Nsg28
Nsg29
Nsg30
Nsg31
Vhttp://dbmi-icode-01.dbmi.pitt.edu/dikb/resource/DDIObservations52
p407
sg33
Nsg34
Nsg35
Nsg36
Vsertraline
p408
sa(dp409
g2
Nsg3
Vhttp://bio2rdf.org/drugbank:DB00472
p410
sg5
Vhttp://bio2rdf.org/drugbank:DB01151
p411
sg7
Nsg8
Nsg9
Nsg10
Nsg11
Nsg12
Nsg13
Nsg14
Vfluoxetine increases the AUC of desipramine 
p412
sg16
Nsg17
g18
sg19
Nsg20
Nsg21
Nsg22
Nsg23
Nsg24
Nsg25
Vdesipramine
p413
sg27
Nsg28
Nsg29
Nsg30
Nsg31
Vhttp://dbmi-icode-01.dbmi.pitt.edu/dikb/resource/DDIObservations42
p414
sg33
Nsg34
Nsg35
Nsg36
Vfluoxetine
p415
sa(dp416
g2
Nsg3
Vhttp://bio2rdf.org/drugbank:DB00285
p417
sg5
Vhttp://bio2rdf.org/drugbank:DB01151
p418
sg7
Nsg8
Nsg9
Nsg10
Nsg11
Nsg12
Nsg13
Nsg14
Vvenlafaxine increases the AUC of desipramine 
p419
sg16
Nsg17
g18
sg19
Nsg20
Nsg21
Nsg22
Nsg23
Nsg24
Nsg25
Vdesipramine
p420
sg27
Nsg28
Nsg29
Nsg30
Nsg31
Vhttp://dbmi-icode-01.dbmi.pitt.edu/dikb/resource/DDIObservations101
p421
sg33
Nsg34
Nsg35
Nsg36
Vvenlafaxine
p422
sa(dp423
g2
Nsg3
Vhttp://bio2rdf.org/drugbank:DB00715
p424
sg5
Vhttp://bio2rdf.org/drugbank:DB01151
p425
sg7
Nsg8
Nsg9
Nsg10
Nsg11
Nsg12
Nsg13
Nsg14
Vparoxetine increases the AUC of desipramine 
p426
sg16
Nsg17
g18
sg19
Nsg20
Nsg21
Nsg22
Nsg23
Nsg24
Nsg25
Vdesipramine
p427
sg27
Nsg28
Nsg29
Nsg30
Nsg31
Vhttp://dbmi-icode-01.dbmi.pitt.edu/dikb/resource/DDIObservations75
p428
sg33
Nsg34
Nsg35
Nsg36
Vparoxetine
p429
sa(dp430
g2
Nsg3
Vhttp://bio2rdf.org/drugbank:DB00215
p431
sg5
Vhttp://bio2rdf.org/drugbank:DB01151
p432
sg7
Nsg8
Nsg9
Nsg10
Nsg11
Nsg12
Nsg13
Nsg14
Vcitalopram increases the AUC of desipramine 
p433
sg16
Nsg17
g18
sg19
Nsg20
Nsg21
Nsg22
Nsg23
Nsg24
Nsg25
Vdesipramine
p434
sg27
Nsg28
Nsg29
Nsg30
Nsg31
Vhttp://dbmi-icode-01.dbmi.pitt.edu/dikb/resource/DDIObservations99
p435
sg33
Nsg34
Nsg35
Nsg36
Vcitalopram
p436
sa(dp437
g2
Nsg3
Vhttp://bio2rdf.org/drugbank:DB01156
p438
sg5
Vhttp://bio2rdf.org/drugbank:DB01151
p439
sg7
Nsg8
Nsg9
Nsg10
Nsg11
Nsg12
Nsg13
Nsg14
Vbupropion increases the AUC of desipramine 
p440
sg16
Nsg17
g18
sg19
Nsg20
Nsg21
Nsg22
Nsg23
Nsg24
Nsg25
Vdesipramine
p441
sg27
Nsg28
Nsg29
Nsg30
Nsg31
Vhttp://dbmi-icode-01.dbmi.pitt.edu/dikb/resource/DDIObservations103
p442
sg33
Nsg34
Nsg35
Nsg36
Vbupropion
p443
sa(dp444
g2
Nsg3
Vhttp://bio2rdf.org/drugbank:DB00715
p445
sg5
Vhttp://bio2rdf.org/drugbank:DB00370
p446
sg7
Nsg8
Nsg9
Nsg10
Nsg11
Nsg12
Nsg13
Nsg14
Vparoxetine increases the AUC of mirtazapine 
p447
sg16
Nsg17
g18
sg19
Nsg20
Nsg21
Nsg22
Nsg23
Nsg24
Nsg25
Vmirtazapine
p448
sg27
Nsg28
Nsg29
Nsg30
Nsg31
Vhttp://dbmi-icode-01.dbmi.pitt.edu/dikb/resource/DDIObservations37
p449
sg33
Nsg34
Nsg35
Nsg36
Vparoxetine
p450
sa(dp451
g2
Nsg3
Vhttp://bio2rdf.org/drugbank:DB00501
p452
sg5
Vhttp://bio2rdf.org/drugbank:DB00370
p453
sg7
Nsg8
Nsg9
Nsg10
Nsg11
Nsg12
Nsg13
Nsg14
Vcimetidine increases the AUC of mirtazapine 
p454
sg16
Nsg17
g18
sg19
Nsg20
Nsg21
Nsg22
Nsg23
Nsg24
Nsg25
Vmirtazapine
p455
sg27
Nsg28
Nsg29
Nsg30
Nsg31
Vhttp://dbmi-icode-01.dbmi.pitt.edu/dikb/resource/DDIObservations48
p456
sg33
Nsg34
Nsg35
Nsg36
Vcimetidine
p457
sa(dp458
g2
Nsg3
Vhttp://bio2rdf.org/drugbank:DB00857
p459
sg5
Vhttp://bio2rdf.org/drugbank:DB00715
p460
sg7
Nsg8
Nsg9
Nsg10
Nsg11
Nsg12
Nsg13
Nsg14
Vterbinafine increases the AUC of paroxetine 
p461
sg16
Nsg17
g18
sg19
Nsg20
Nsg21
Nsg22
Nsg23
Nsg24
Nsg25
Vparoxetine
p462
sg27
Nsg28
Nsg29
Nsg30
Nsg31
Vhttp://dbmi-icode-01.dbmi.pitt.edu/dikb/resource/DDIObservations51
p463
sg33
Nsg34
Nsg35
Nsg36
Vterbinafine
p464
sa(dp465
g2
Nsg3
Vhttp://bio2rdf.org/drugbank:DB00501
p466
sg5
Vhttp://bio2rdf.org/drugbank:DB00715
p467
sg7
Nsg8
Nsg9
Nsg10
Nsg11
Nsg12
Nsg13
Nsg14
Vcimetidine increases the AUC of paroxetine 
p468
sg16
Nsg17
g18
sg19
Nsg20
Nsg21
Nsg22
Nsg23
Nsg24
Nsg25
Vparoxetine
p469
sg27
Nsg28
Nsg29
Nsg30
Nsg31
Vhttp://dbmi-icode-01.dbmi.pitt.edu/dikb/resource/DDIObservations86
p470
sg33
Nsg34
Nsg35
Nsg36
Vcimetidine
p471
sa(dp472
g2
Nsg3
Vhttp://bio2rdf.org/drugbank:DB00285
p473
sg5
Vhttp://bio2rdf.org/drugbank:DB00502
p474
sg7
Nsg8
Nsg9
Nsg10
Nsg11
Nsg12
Nsg13
Nsg14
Vvenlafaxine increases the AUC of haloperidol 
p475
sg16
Nsg17
g18
sg19
Nsg20
Nsg21
Nsg22
Nsg23
Nsg24
Nsg25
Vhaloperidol
p476
sg27
Nsg28
Nsg29
Nsg30
Nsg31
Vhttp://dbmi-icode-01.dbmi.pitt.edu/dikb/resource/DDIObservations31
p477
sg33
Nsg34
Nsg35
Nsg36
Vvenlafaxine
p478
sa(dp479
g2
Nsg3
Vhttp://bio2rdf.org/drugbank:DB00476
p480
sg5
Vhttp://bio2rdf.org/drugbank:DB00277
p481
sg7
Nsg8
Nsg9
Nsg10
Nsg11
Nsg12
Nsg13
Nsg14
Vduloxetine increases the AUC of theophylline 
p482
sg16
Nsg17
g18
sg19
Nsg20
Nsg21
Nsg22
Nsg23
Nsg24
Nsg25
Vtheophylline
p483
sg27
Nsg28
Nsg29
Nsg30
Nsg31
Vhttp://dbmi-icode-01.dbmi.pitt.edu/dikb/resource/DDIObservations29
p484
sg33
Nsg34
Nsg35
Nsg36
Vduloxetine
p485
sa(dp486
g2
Nsg3
Vhttp://bio2rdf.org/drugbank:DB00176
p487
sg5
Vhttp://bio2rdf.org/drugbank:DB00277
p488
sg7
Nsg8
Nsg9
Nsg10
Nsg11
Nsg12
Nsg13
Nsg14
Vfluvoxamine increases the AUC of theophylline 
p489
sg16
Nsg17
g18
sg19
Nsg20
Nsg21
Nsg22
Nsg23
Nsg24
Nsg25
Vtheophylline
p490
sg27
Nsg28
Nsg29
Nsg30
Nsg31
Vhttp://dbmi-icode-01.dbmi.pitt.edu/dikb/resource/DDIObservations74
p491
sg33
Nsg34
Nsg35
Nsg36
Vfluvoxamine
p492
sa(dp493
g2
Nsg3
Vhttp://bio2rdf.org/drugbank:DB00501
p494
sg5
Vhttp://bio2rdf.org/drugbank:DB00277
p495
sg7
Nsg8
Nsg9
Nsg10
Nsg11
Nsg12
Nsg13
Nsg14
Vcimetidine increases the AUC of theophylline 
p496
sg16
Nsg17
g18
sg19
Nsg20
Nsg21
Nsg22
Nsg23
Nsg24
Nsg25
Vtheophylline
p497
sg27
Nsg28
Nsg29
Nsg30
Nsg31
Vhttp://dbmi-icode-01.dbmi.pitt.edu/dikb/resource/DDIObservations27
p498
sg33
Nsg34
Nsg35
Nsg36
Vcimetidine
p499
sa(dp500
g2
Nsg3
Vhttp://bio2rdf.org/drugbank:DB00176
p501
sg5
Vhttp://bio2rdf.org/drugbank:DB00448
p502
sg7
Nsg8
Nsg9
Nsg10
Nsg11
Nsg12
Nsg13
Nsg14
Vfluvoxamine increases the AUC of lansoprazole 
p503
sg16
Nsg17
g18
sg19
Nsg20
Nsg21
Nsg22
Nsg23
Nsg24
Nsg25
Vlansoprazole
p504
sg27
Nsg28
Nsg29
Nsg30
Nsg31
Vhttp://dbmi-icode-01.dbmi.pitt.edu/dikb/resource/DDIObservations39
p505
sg33
Nsg34
Nsg35
Nsg36
Vfluvoxamine
p506
sa(dp507
g2
Nsg3
Vhttp://bio2rdf.org/drugbank:DB00448
p508
sg5
Vhttp://bio2rdf.org/drugbank:DB00448
p509
sg7
Nsg8
Nsg9
Nsg10
Nsg11
Nsg12
Nsg13
Nsg14
Vlansoprazole increases the AUC of lansoprazole 
p510
sg16
Nsg17
g18
sg19
Nsg20
Nsg21
Nsg22
Nsg23
Nsg24
Nsg25
Vlansoprazole
p511
sg27
Nsg28
Nsg29
Nsg30
Nsg31
Vhttp://dbmi-icode-01.dbmi.pitt.edu/dikb/resource/DDIObservations12
p512
sg33
Nsg34
Nsg35
Nsg36
Vlansoprazole
p513
sa(dp514
g2
Nsg3
Vhttp://bio2rdf.org/drugbank:DB01211
p515
sg5
Vhttp://bio2rdf.org/drugbank:DB00448
p516
sg7
Nsg8
Nsg9
Nsg10
Nsg11
Nsg12
Nsg13
Nsg14
Vclarithromycin increases the AUC of lansoprazole 
p517
sg16
Nsg17
g18
sg19
Nsg20
Nsg21
Nsg22
Nsg23
Nsg24
Nsg25
Vlansoprazole
p518
sg27
Nsg28
Nsg29
Nsg30
Nsg31
Vhttp://dbmi-icode-01.dbmi.pitt.edu/dikb/resource/DDIObservations57
p519
sg33
Nsg34
Nsg35
Nsg36
Vclarithromycin
p520
sa(dp521
g2
Nsg3
Vhttp://bio2rdf.org/drugbank:DB00501
p522
sg5
Vhttp://bio2rdf.org/drugbank:DB00215
p523
sg7
Nsg8
Nsg9
Nsg10
Nsg11
Nsg12
Nsg13
Nsg14
Vcimetidine increases the AUC of citalopram 
p524
sg16
Nsg17
g18
sg19
Nsg20
Nsg21
Nsg22
Nsg23
Nsg24
Nsg25
Vcitalopram
p525
sg27
Nsg28
Nsg29
Nsg30
Nsg31
Vhttp://dbmi-icode-01.dbmi.pitt.edu/dikb/resource/DDIObservations23
p526
sg33
Nsg34
Nsg35
Nsg36
Vcimetidine
p527
sa(dp528
g2
Nsg3
Vhttp://bio2rdf.org/drugbank:DB00199
p529
sg5
Vhttp://bio2rdf.org/drugbank:DB00641
p530
sg7
Nsg8
Nsg9
Nsg10
Nsg11
Nsg12
Nsg13
Nsg14
Verythromycin increases the AUC of simvastatin 
p531
sg16
Nsg17
g18
sg19
Nsg20
Nsg21
Nsg22
Nsg23
Nsg24
Nsg25
Vsimvastatin
p532
sg27
Nsg28
Nsg29
Nsg30
Nsg31
Vhttp://dbmi-icode-01.dbmi.pitt.edu/dikb/resource/DDIObservations71
p533
sg33
Nsg34
Nsg35
Nsg36
Verythromycin
p534
sa(dp535
g2
Nsg3
Vhttp://bio2rdf.org/drugbank:DB00343
p536
sg5
Vhttp://bio2rdf.org/drugbank:DB00641
p537
sg7
Nsg8
Nsg9
Nsg10
Nsg11
Nsg12
Nsg13
Nsg14
Vdiltiazem increases the AUC of simvastatin 
p538
sg16
Nsg17
g18
sg19
Nsg20
Nsg21
Nsg22
Nsg23
Nsg24
Nsg25
Vsimvastatin
p539
sg27
Nsg28
Nsg29
Nsg30
Nsg31
Vhttp://dbmi-icode-01.dbmi.pitt.edu/dikb/resource/DDIObservations47
p540
sg33
Nsg34
Nsg35
Nsg36
Vdiltiazem
p541
sa(dp542
g2
Nsg3
Vhttp://bio2rdf.org/drugbank:DB01026
p543
sg5
Vhttp://bio2rdf.org/drugbank:DB00641
p544
sg7
Nsg8
Nsg9
Nsg10
Nsg11
Nsg12
Nsg13
Nsg14
Vketoconazole increases the AUC of simvastatin 
p545
sg16
Nsg17
g18
sg19
Nsg20
Nsg21
Nsg22
Nsg23
Nsg24
Nsg25
Vsimvastatin
p546
sg27
Nsg28
Nsg29
Nsg30
Nsg31
Vhttp://dbmi-icode-01.dbmi.pitt.edu/dikb/resource/DDIObservations2
p547
sg33
Nsg34
Nsg35
Nsg36
Vketoconazole
p548
sa(dp549
g2
Nsg3
Vhttp://bio2rdf.org/drugbank:DB00196
p550
sg5
Vhttp://bio2rdf.org/drugbank:DB01095
p551
sg7
Nsg8
Nsg9
Nsg10
Nsg11
Nsg12
Nsg13
Nsg14
Vfluconazole increases the AUC of fluvastatin 
p552
sg16
Nsg17
g18
sg19
Nsg20
Nsg21
Nsg22
Nsg23
Nsg24
Nsg25
Vfluvastatin
p553
sg27
Nsg28
Nsg29
Nsg30
Nsg31
Vhttp://dbmi-icode-01.dbmi.pitt.edu/dikb/resource/DDIObservations36
p554
sg33
Nsg34
Nsg35
Nsg36
Vfluconazole
p555
sa(dp556
g2
Nsg3
Vhttp://bio2rdf.org/drugbank:DB00176
p557
sg5
Vhttp://bio2rdf.org/drugbank:DB01124
p558
sg7
Nsg8
Nsg9
Nsg10
Nsg11
Nsg12
Nsg13
Nsg14
Vfluvoxamine increases the AUC of tolbutamide 
p559
sg16
Nsg17
g18
sg19
Nsg20
Nsg21
Nsg22
Nsg23
Nsg24
Nsg25
Vtolbutamide
p560
sg27
Nsg28
Nsg29
Nsg30
Nsg31
Vhttp://dbmi-icode-01.dbmi.pitt.edu/dikb/resource/DDIObservations6
p561
sg33
Nsg34
Nsg35
Nsg36
Vfluvoxamine
p562
sa(dp563
g2
Nsg3
Vhttp://bio2rdf.org/drugbank:DB00472
p564
sg5
Vhttp://bio2rdf.org/drugbank:DB01182
p565
sg7
Nsg8
Nsg9
Nsg10
Nsg11
Nsg12
Nsg13
Nsg14
Vfluoxetine increases the AUC of propafenone 
p566
sg16
Nsg17
g18
sg19
Nsg20
Nsg21
Nsg22
Nsg23
Nsg24
Nsg25
Vpropafenone
p567
sg27
Nsg28
Nsg29
Nsg30
Nsg31
Vhttp://dbmi-icode-01.dbmi.pitt.edu/dikb/resource/DDIObservations33
p568
sg33
Nsg34
Nsg35
Nsg36
Vfluoxetine
p569
sa(dp570
g2
Nsg3
Vhttp://bio2rdf.org/drugbank:DB00472
p571
sg5
Vhttp://bio2rdf.org/drugbank:DB00334
p572
sg7
Nsg8
Nsg9
Nsg10
Nsg11
Nsg12
Nsg13
Nsg14
Vfluoxetine increases the AUC of olanzapine 
p573
sg16
Nsg17
g18
sg19
Nsg20
Nsg21
Nsg22
Nsg23
Nsg24
Nsg25
Volanzapine
p574
sg27
Nsg28
Nsg29
Nsg30
Nsg31
Vhttp://dbmi-icode-01.dbmi.pitt.edu/dikb/resource/DDIObservations72
p575
sg33
Nsg34
Nsg35
Nsg36
Vfluoxetine
p576
sa(dp577
g2
Nsg3
Vhttp://bio2rdf.org/drugbank:DB01167
p578
sg5
Vhttp://bio2rdf.org/drugbank:DB00227
p579
sg7
Nsg8
Nsg9
Nsg10
Nsg11
Nsg12
Nsg13
Nsg14
Vitraconazole increases the AUC of lovastatin 
p580
sg16
Nsg17
g18
sg19
Nsg20
Nsg21
Nsg22
Nsg23
Nsg24
Nsg25
Vlovastatin
p581
sg27
Nsg28
Nsg29
Nsg30
Nsg31
Vhttp://dbmi-icode-01.dbmi.pitt.edu/dikb/resource/DDIObservations19
p582
sg33
Nsg34
Nsg35
Nsg36
Vitraconazole
p583
sa(dp584
g2
Nsg3
Vhttp://bio2rdf.org/drugbank:DB00208
p585
sg5
Vhttp://bio2rdf.org/drugbank:DB01156
p586
sg7
Nsg8
Nsg9
Nsg10
Nsg11
Nsg12
Nsg13
Nsg14
Vticlopidine increases the AUC of bupropion 
p587
sg16
Nsg17
g18
sg19
Nsg20
Nsg21
Nsg22
Nsg23
Nsg24
Nsg25
Vbupropion
p588
sg27
Nsg28
Nsg29
Nsg30
Nsg31
Vhttp://dbmi-icode-01.dbmi.pitt.edu/dikb/resource/DDIObservations83
p589
sg33
Nsg34
Nsg35
Nsg36
Vticlopidine
p590
sa(dp591
g2
Nsg3
Vhttp://bio2rdf.org/drugbank:DB00758
p592
sg5
Vhttp://bio2rdf.org/drugbank:DB01156
p593
sg7
Nsg8
Nsg9
Nsg10
Nsg11
Nsg12
Nsg13
Nsg14
Vclopidogrel increases the AUC of bupropion 
p594
sg16
Nsg17
g18
sg19
Nsg20
Nsg21
Nsg22
Nsg23
Nsg24
Nsg25
Vbupropion
p595
sg27
Nsg28
Nsg29
Nsg30
Nsg31
Vhttp://dbmi-icode-01.dbmi.pitt.edu/dikb/resource/DDIObservations40
p596
sg33
Nsg34
Nsg35
Nsg36
Vclopidogrel
p597
sa.