(lp0
(dp1
S'contVal'
p2
NsS'drug2'
p3
S'http://bio2rdf.org/drugbank:DB01345'
p4
sS'drug1'
p5
S'http://bio2rdf.org/drugbank:DB00881'
p6
sS'objectUri'
p7
NsS'evidence'
p8
NsS'ddiPkMechanism'
p9
NsS'whoAnnotated'
p10
NsS'contraindication'
p11
NsS'researchStatementLabel'
p12
NsS'severity'
p13
NsS'label'
p14
NsS'effectConcept'
p15
NsS'source'
p16
S'NLM-Corpus'
p17
sS'ddiPkEffect'
p18
NsS'evidenceType'
p19
NsS'homepage'
p20
NsS'pathway'
p21
NsS'ddiType'
p22
S'true'
p23
sS'researchStatement'
p24
NsS'dateAnnotated'
p25
NsS'object'
p26
S'\xef\xbb\xbfACCUPRIL'
p27
sS'evidenceSource'
p28
NsS'evidenceStatement'
p29
S'Caution_Interaction'
p30
sS'precipUri'
p31
NsS'certainty'
p32
NsS'uri'
p33
NsS'precip'
p34
NsS'numericVal'
p35
NsS'precaution'
p36
NsS'precipitant'
p37
S'potassium supplements'
p38
sa(dp39
g2
Nsg3
S'http://bio2rdf.org/drugbank:DB01345'
p40
sg5
S'http://bio2rdf.org/drugbank:DB00881'
p41
sg7
Nsg8
Nsg9
Nsg10
Nsg11
Nsg12
Nsg13
Nsg14
Nsg15
Nsg16
g17
sg18
Nsg19
Nsg20
Nsg21
Nsg22
S'true'
p42
sg24
Nsg25
Nsg26
S'ACCUPRIL'
p43
sg28
Nsg29
S'Caution_Interaction'
p44
sg31
Nsg32
Nsg33
Nsg34
Nsg35
Nsg36
Nsg37
S'potassium-containing salt substitutes'
p45
sa(dp46
g2
Nsg3
S'http://bio2rdf.org/drugbank:DB00759'
p47
sg5
S'http://bio2rdf.org/drugbank:DB00881'
p48
sg7
Nsg8
Nsg9
Nsg10
Nsg11
Nsg12
Nsg13
Nsg14
Nsg15
Nsg16
g17
sg18
Nsg19
Nsg20
Nsg21
Nsg22
S'true'
p49
sg24
Nsg25
Nsg26
S'ACCUPRIL'
p50
sg28
Nsg29
S'Caution_Interaction'
p51
sg31
Nsg32
Nsg33
Nsg34
Nsg35
Nsg36
Nsg37
S'tetracycline'
p52
sa(dp53
g2
Nsg3
S'http://bio2rdf.org/drugbank:DB00759'
p54
sg5
S'http://bio2rdf.org/drugbank:DB00881'
p55
sg7
Nsg8
Nsg9
Nsg10
Nsg11
Nsg12
Nsg13
Nsg14
Nsg15
Nsg16
g17
sg18
Nsg19
Nsg20
Nsg21
Nsg22
S'true'
p56
sg24
Nsg25
Nsg26
S'ACCUPRIL'
p57
sg28
Nsg29
S'Decrease_Interaction'
p58
sg31
Nsg32
Nsg33
Nsg34
Nsg35
Nsg36
Nsg37
S'tetracycline'
p59
sa(dp60
g2
Nsg3
S'http://bio2rdf.org/drugbank:DB00390'
p61
sg5
S'http://bio2rdf.org/drugbank:DB00640'
p62
sg7
Nsg8
Nsg9
Nsg10
Nsg11
Nsg12
Nsg13
Nsg14
Nsg15
Nsg16
g17
sg18
Nsg19
Nsg20
Nsg21
Nsg22
S'true'
p63
sg24
Nsg25
Nsg26
S'Adenocard'
p64
sg28
Nsg29
S'Caution_Interaction'
p65
sg31
Nsg32
Nsg33
Nsg34
Nsg35
Nsg36
Nsg37
S'digoxin'
p66
sa(dp67
g2
Nsg3
S'http://bio2rdf.org/drugbank:DB00564'
p68
sg5
S'http://bio2rdf.org/drugbank:DB00640'
p69
sg7
Nsg8
Nsg9
Nsg10
Nsg11
Nsg12
Nsg13
Nsg14
Nsg15
Nsg16
g17
sg18
Nsg19
Nsg20
Nsg21
Nsg22
S'true'
p70
sg24
Nsg25
Nsg26
S'adenosine'
p71
sg28
Nsg29
S'Specific_Interaction'
p72
sg31
Nsg32
Nsg33
Nsg34
Nsg35
Nsg36
Nsg37
S'carbamazepine'
p73
sa(dp74
g2
Nsg3
S'http://bio2rdf.org/drugbank:DB00975'
p75
sg5
S'http://bio2rdf.org/drugbank:DB00640'
p76
sg7
Nsg8
Nsg9
Nsg10
Nsg11
Nsg12
Nsg13
Nsg14
Nsg15
Nsg16
g17
sg18
Nsg19
Nsg20
Nsg21
Nsg22
S'true'
p77
sg24
Nsg25
Nsg26
S'Adenosine'
p78
sg28
Nsg29
S'Increase_Interaction'
p79
sg31
Nsg32
Nsg33
Nsg34
Nsg35
Nsg36
Nsg37
S'dipyridamole'
p80
sa(dp81
g2
Nsg3
S'http://bio2rdf.org/drugbank:DB00945'
p82
sg5
S'http://bio2rdf.org/drugbank:DB00775'
p83
sg7
Nsg8
Nsg9
Nsg10
Nsg11
Nsg12
Nsg13
Nsg14
Nsg15
Nsg16
g17
sg18
Nsg19
Nsg20
Nsg21
Nsg22
S'true'
p84
sg24
Nsg25
Nsg26
S'AGGRASTAT'
p85
sg28
Nsg29
S'Specific_Interaction'
p86
sg31
Nsg32
Nsg33
Nsg34
Nsg35
Nsg36
Nsg37
S'aspirin'
p87
sa(dp88
g2
Nsg3
S'http://bio2rdf.org/drugbank:DB01109'
p89
sg5
S'http://bio2rdf.org/drugbank:DB00775'
p90
sg7
Nsg8
Nsg9
Nsg10
Nsg11
Nsg12
Nsg13
Nsg14
Nsg15
Nsg16
g17
sg18
Nsg19
Nsg20
Nsg21
Nsg22
S'true'
p91
sg24
Nsg25
Nsg26
S'AGGRASTAT'
p92
sg28
Nsg29
S'Specific_Interaction'
p93
sg31
Nsg32
Nsg33
Nsg34
Nsg35
Nsg36
Nsg37
S'heparin'
p94
sa(dp95
g2
Nsg3
S'http://bio2rdf.org/drugbank:DB00945'
p96
sg5
S'http://bio2rdf.org/drugbank:DB00898'
p97
sg7
Nsg8
Nsg9
Nsg10
Nsg11
Nsg12
Nsg13
Nsg14
Nsg15
Nsg16
g17
sg18
Nsg19
Nsg20
Nsg21
Nsg22
S'true'
p98
sg24
Nsg25
Nsg26
S'alcohol'
p99
sg28
Nsg29
S'Specific_Interaction'
p100
sg31
Nsg32
Nsg33
Nsg34
Nsg35
Nsg36
Nsg37
S'aspirin'
p101
sa(dp102
g2
Nsg3
S'http://bio2rdf.org/drugbank:DB00571'
p103
sg5
S'http://bio2rdf.org/drugbank:DB00898'
p104
sg7
Nsg8
Nsg9
Nsg10
Nsg11
Nsg12
Nsg13
Nsg14
Nsg15
Nsg16
g17
sg18
Nsg19
Nsg20
Nsg21
Nsg22
S'true'
p105
sg24
Nsg25
Nsg26
S'Alcohol'
p106
sg28
Nsg29
S'Increase_Interaction'
p107
sg31
Nsg32
Nsg33
Nsg34
Nsg35
Nsg36
Nsg37
S'propranolol'
p108
sa(dp109
g2
Nsg3
S'http://bio2rdf.org/drugbank:DB00390'
p110
sg5
S'http://bio2rdf.org/drugbank:DB00421'
p111
sg7
Nsg8
Nsg9
Nsg10
Nsg11
Nsg12
Nsg13
Nsg14
Nsg15
Nsg16
g17
sg18
Nsg19
Nsg20
Nsg21
Nsg22
S'true'
p112
sg24
Nsg25
Nsg26
S'ALDACTONE'
p113
sg28
Nsg29
S'Increase_Interaction'
p114
sg31
Nsg32
Nsg33
Nsg34
Nsg35
Nsg36
Nsg37
S'digoxin'
p115
sa(dp116
g2
Nsg3
S'http://bio2rdf.org/drugbank:DB00328'
p117
sg5
S'http://bio2rdf.org/drugbank:DB00421'
p118
sg7
Nsg8
Nsg9
Nsg10
Nsg11
Nsg12
Nsg13
Nsg14
Nsg15
Nsg16
g17
sg18
Nsg19
Nsg20
Nsg21
Nsg22
S'true'
p119
sg24
Nsg25
Nsg26
S'ALDACTONE'
p120
sg28
Nsg29
S'Specific_Interaction'
p121
sg31
Nsg32
Nsg33
Nsg34
Nsg35
Nsg36
Nsg37
S'indomethacin'
p122
sa(dp123
g2
Nsg3
S'http://bio2rdf.org/drugbank:DB00368'
p124
sg5
S'http://bio2rdf.org/drugbank:DB00421'
p125
sg7
Nsg8
Nsg9
Nsg10
Nsg11
Nsg12
Nsg13
Nsg14
Nsg15
Nsg16
g17
sg18
Nsg19
Nsg20
Nsg21
Nsg22
S'true'
p126
sg24
Nsg25
Nsg26
S'ALDACTONE'
p127
sg28
Nsg29
S'Specific_Interaction'
p128
sg31
Nsg32
Nsg33
Nsg34
Nsg35
Nsg36
Nsg37
S'norepinephrine'
p129
sa(dp130
g2
Nsg3
S'http://bio2rdf.org/drugbank:DB00881'
p131
sg5
S'http://bio2rdf.org/drugbank:DB01258'
p132
sg7
Nsg8
Nsg9
Nsg10
Nsg11
Nsg12
Nsg13
Nsg14
Nsg15
Nsg16
g17
sg18
Nsg19
Nsg20
Nsg21
Nsg22
S'true'
p133
sg24
Nsg25
Nsg26
S'aliskiren'
p134
sg28
Nsg29
S'Caution_Interaction'
p135
sg31
Nsg32
Nsg33
Nsg34
Nsg35
Nsg36
Nsg37
S'ACCUPRIL'
p136
sa(dp137
g2
Nsg3
S'http://bio2rdf.org/drugbank:DB00790'
p138
sg5
S'http://bio2rdf.org/drugbank:DB01258'
p139
sg7
Nsg8
Nsg9
Nsg10
Nsg11
Nsg12
Nsg13
Nsg14
Nsg15
Nsg16
g17
sg18
Nsg19
Nsg20
Nsg21
Nsg22
S'true'
p140
sg24
Nsg25
Nsg26
S'aliskiren'
p141
sg28
Nsg29
S'Caution_Interaction'
p142
sg31
Nsg32
Nsg33
Nsg34
Nsg35
Nsg36
Nsg37
S'ACEON'
p143
sa(dp144
g2
Nsg3
S'http://bio2rdf.org/drugbank:DB00796'
p145
sg5
S'http://bio2rdf.org/drugbank:DB01258'
p146
sg7
Nsg8
Nsg9
Nsg10
Nsg11
Nsg12
Nsg13
Nsg14
Nsg15
Nsg16
g17
sg18
Nsg19
Nsg20
Nsg21
Nsg22
S'true'
p147
sg24
Nsg25
Nsg26
S'aliskiren'
p148
sg28
Nsg29
S'Caution_Interaction'
p149
sg31
Nsg32
Nsg33
Nsg34
Nsg35
Nsg36
Nsg37
S'ATACAND'
p150
sa(dp151
g2
Nsg3
S'http://bio2rdf.org/drugbank:DB01029'
p152
sg5
S'http://bio2rdf.org/drugbank:DB01258'
p153
sg7
Nsg8
Nsg9
Nsg10
Nsg11
Nsg12
Nsg13
Nsg14
Nsg15
Nsg16
g17
sg18
Nsg19
Nsg20
Nsg21
Nsg22
S'true'
p154
sg24
Nsg25
Nsg26
S'aliskiren'
p155
sg28
Nsg29
S'Caution_Interaction'
p156
sg31
Nsg32
Nsg33
Nsg34
Nsg35
Nsg36
Nsg37
S'AVAPRO'
p157
sa(dp158
g2
Nsg3
S'http://bio2rdf.org/drugbank:DB00275'
p159
sg5
S'http://bio2rdf.org/drugbank:DB01258'
p160
sg7
Nsg8
Nsg9
Nsg10
Nsg11
Nsg12
Nsg13
Nsg14
Nsg15
Nsg16
g17
sg18
Nsg19
Nsg20
Nsg21
Nsg22
S'true'
p161
sg24
Nsg25
Nsg26
S'aliskiren'
p162
sg28
Nsg29
S'Caution_Interaction'
p163
sg31
Nsg32
Nsg33
Nsg34
Nsg35
Nsg36
Nsg37
S'Benicar'
p164
sa(dp165
g2
Nsg3
S'http://bio2rdf.org/drugbank:DB00091'
p166
sg5
S'http://bio2rdf.org/drugbank:DB01258'
p167
sg7
Nsg8
Nsg9
Nsg10
Nsg11
Nsg12
Nsg13
Nsg14
Nsg15
Nsg16
g17
sg18
Nsg19
Nsg20
Nsg21
Nsg22
S'true'
p168
sg24
Nsg25
Nsg26
S'aliskiren'
p169
sg28
Nsg29
S'Caution_Interaction'
p170
sg31
Nsg32
Nsg33
Nsg34
Nsg35
Nsg36
Nsg37
S'cyclosporine'
p171
sa(dp172
g2
Nsg3
S'http://bio2rdf.org/drugbank:DB00177'
p173
sg5
S'http://bio2rdf.org/drugbank:DB01258'
p174
sg7
Nsg8
Nsg9
Nsg10
Nsg11
Nsg12
Nsg13
Nsg14
Nsg15
Nsg16
g17
sg18
Nsg19
Nsg20
Nsg21
Nsg22
S'true'
p175
sg24
Nsg25
Nsg26
S'aliskiren'
p176
sg28
Nsg29
S'Caution_Interaction'
p177
sg31
Nsg32
Nsg33
Nsg34
Nsg35
Nsg36
Nsg37
S'Diovan'
p178
sa(dp179
g2
Nsg3
S'http://bio2rdf.org/drugbank:DB08822'
p180
sg5
S'http://bio2rdf.org/drugbank:DB01258'
p181
sg7
Nsg8
Nsg9
Nsg10
Nsg11
Nsg12
Nsg13
Nsg14
Nsg15
Nsg16
g17
sg18
Nsg19
Nsg20
Nsg21
Nsg22
S'true'
p182
sg24
Nsg25
Nsg26
S'aliskiren'
p183
sg28
Nsg29
S'Caution_Interaction'
p184
sg31
Nsg32
Nsg33
Nsg34
Nsg35
Nsg36
Nsg37
S'Edarbi'
p185
sa(dp186
g2
Nsg3
S'http://bio2rdf.org/drugbank:DB01167'
p187
sg5
S'http://bio2rdf.org/drugbank:DB01258'
p188
sg7
Nsg8
Nsg9
Nsg10
Nsg11
Nsg12
Nsg13
Nsg14
Nsg15
Nsg16
g17
sg18
Nsg19
Nsg20
Nsg21
Nsg22
S'true'
p189
sg24
Nsg25
Nsg26
S'aliskiren'
p190
sg28
Nsg29
S'Caution_Interaction'
p191
sg31
Nsg32
Nsg33
Nsg34
Nsg35
Nsg36
Nsg37
S'intraconazole'
p192
sa(dp193
g2
Nsg3
S'http://bio2rdf.org/drugbank:DB01167'
p194
sg5
S'http://bio2rdf.org/drugbank:DB01258'
p195
sg7
Nsg8
Nsg9
Nsg10
Nsg11
Nsg12
Nsg13
Nsg14
Nsg15
Nsg16
g17
sg18
Nsg19
Nsg20
Nsg21
Nsg22
S'true'
p196
sg24
Nsg25
Nsg26
S'aliskiren'
p197
sg28
Nsg29
S'Caution_Interaction'
p198
sg31
Nsg32
Nsg33
Nsg34
Nsg35
Nsg36
Nsg37
S'itraconazole'
p199
sa(dp200
g2
Nsg3
S'http://bio2rdf.org/drugbank:DB00678'
p201
sg5
S'http://bio2rdf.org/drugbank:DB01258'
p202
sg7
Nsg8
Nsg9
Nsg10
Nsg11
Nsg12
Nsg13
Nsg14
Nsg15
Nsg16
g17
sg18
Nsg19
Nsg20
Nsg21
Nsg22
S'true'
p203
sg24
Nsg25
Nsg26
S'aliskiren'
p204
sg28
Nsg29
S'Caution_Interaction'
p205
sg31
Nsg32
Nsg33
Nsg34
Nsg35
Nsg36
Nsg37
S'losartan potassium and hydrochlorothiazide'
p206
sa(dp207
g2
Nsg3
S'http://bio2rdf.org/drugbank:DB00542'
p208
sg5
S'http://bio2rdf.org/drugbank:DB01258'
p209
sg7
Nsg8
Nsg9
Nsg10
Nsg11
Nsg12
Nsg13
Nsg14
Nsg15
Nsg16
g17
sg18
Nsg19
Nsg20
Nsg21
Nsg22
S'true'
p210
sg24
Nsg25
Nsg26
S'aliskiren'
p211
sg28
Nsg29
S'Caution_Interaction'
p212
sg31
Nsg32
Nsg33
Nsg34
Nsg35
Nsg36
Nsg37
S'Lotensin'
p213
sa(dp214
g2
Nsg3
S'http://bio2rdf.org/drugbank:DB00381'
p215
sg5
S'http://bio2rdf.org/drugbank:DB01258'
p216
sg7
Nsg8
Nsg9
Nsg10
Nsg11
Nsg12
Nsg13
Nsg14
Nsg15
Nsg16
g17
sg18
Nsg19
Nsg20
Nsg21
Nsg22
S'true'
p217
sg24
Nsg25
Nsg26
S'aliskiren'
p218
sg28
Nsg29
S'Caution_Interaction'
p219
sg31
Nsg32
Nsg33
Nsg34
Nsg35
Nsg36
Nsg37
S'Lotrel'
p220
sa(dp221
g2
Nsg3
S'http://bio2rdf.org/drugbank:DB00519'
p222
sg5
S'http://bio2rdf.org/drugbank:DB01258'
p223
sg7
Nsg8
Nsg9
Nsg10
Nsg11
Nsg12
Nsg13
Nsg14
Nsg15
Nsg16
g17
sg18
Nsg19
Nsg20
Nsg21
Nsg22
S'true'
p224
sg24
Nsg25
Nsg26
S'aliskiren'
p225
sg28
Nsg29
S'Caution_Interaction'
p226
sg31
Nsg32
Nsg33
Nsg34
Nsg35
Nsg36
Nsg37
S'MAVIK'
p227
sa(dp228
g2
Nsg3
S'http://bio2rdf.org/drugbank:DB00966'
p229
sg5
S'http://bio2rdf.org/drugbank:DB01258'
p230
sg7
Nsg8
Nsg9
Nsg10
Nsg11
Nsg12
Nsg13
Nsg14
Nsg15
Nsg16
g17
sg18
Nsg19
Nsg20
Nsg21
Nsg22
S'true'
p231
sg24
Nsg25
Nsg26
S'aliskiren'
p232
sg28
Nsg29
S'Caution_Interaction'
p233
sg31
Nsg32
Nsg33
Nsg34
Nsg35
Nsg36
Nsg37
S'MICARDIS'
p234
sa(dp235
g2
Nsg3
S'http://bio2rdf.org/drugbank:DB00722'
p236
sg5
S'http://bio2rdf.org/drugbank:DB01258'
p237
sg7
Nsg8
Nsg9
Nsg10
Nsg11
Nsg12
Nsg13
Nsg14
Nsg15
Nsg16
g17
sg18
Nsg19
Nsg20
Nsg21
Nsg22
S'true'
p238
sg24
Nsg25
Nsg26
S'aliskiren'
p239
sg28
Nsg29
S'Caution_Interaction'
p240
sg31
Nsg32
Nsg33
Nsg34
Nsg35
Nsg36
Nsg37
S'PRINIVIL'
p241
sa(dp242
g2
Nsg3
S'http://bio2rdf.org/drugbank:DB00876'
p243
sg5
S'http://bio2rdf.org/drugbank:DB01258'
p244
sg7
Nsg8
Nsg9
Nsg10
Nsg11
Nsg12
Nsg13
Nsg14
Nsg15
Nsg16
g17
sg18
Nsg19
Nsg20
Nsg21
Nsg22
S'true'
p245
sg24
Nsg25
Nsg26
S'aliskiren'
p246
sg28
Nsg29
S'Caution_Interaction'
p247
sg31
Nsg32
Nsg33
Nsg34
Nsg35
Nsg36
Nsg37
S'TEVETEN'
p248
sa(dp249
g2
Nsg3
S'http://bio2rdf.org/drugbank:DB00584'
p250
sg5
S'http://bio2rdf.org/drugbank:DB01258'
p251
sg7
Nsg8
Nsg9
Nsg10
Nsg11
Nsg12
Nsg13
Nsg14
Nsg15
Nsg16
g17
sg18
Nsg19
Nsg20
Nsg21
Nsg22
S'true'
p252
sg24
Nsg25
Nsg26
S'aliskiren'
p253
sg28
Nsg29
S'Caution_Interaction'
p254
sg31
Nsg32
Nsg33
Nsg34
Nsg35
Nsg36
Nsg37
S'VASOTEC'
p255
sa(dp256
g2
Nsg3
S'http://bio2rdf.org/drugbank:DB00722'
p257
sg5
S'http://bio2rdf.org/drugbank:DB01258'
p258
sg7
Nsg8
Nsg9
Nsg10
Nsg11
Nsg12
Nsg13
Nsg14
Nsg15
Nsg16
g17
sg18
Nsg19
Nsg20
Nsg21
Nsg22
S'true'
p259
sg24
Nsg25
Nsg26
S'aliskiren'
p260
sg28
Nsg29
S'Caution_Interaction'
p261
sg31
Nsg32
Nsg33
Nsg34
Nsg35
Nsg36
Nsg37
S'ZESTRIL'
p262
sa(dp263
g2
Nsg3
S'http://bio2rdf.org/drugbank:DB00390'
p264
sg5
S'http://bio2rdf.org/drugbank:DB00404'
p265
sg7
Nsg8
Nsg9
Nsg10
Nsg11
Nsg12
Nsg13
Nsg14
Nsg15
Nsg16
g17
sg18
Nsg19
Nsg20
Nsg21
Nsg22
S'true'
p266
sg24
Nsg25
Nsg26
S'alprazolam'
p267
sg28
Nsg29
S'Increase_Interaction'
p268
sg31
Nsg32
Nsg33
Nsg34
Nsg35
Nsg36
Nsg37
S'digoxin'
p269
sa(dp270
g2
Nsg3
S'http://bio2rdf.org/drugbank:DB01344'
p271
sg5
S'http://bio2rdf.org/drugbank:DB06723'
p272
sg7
Nsg8
Nsg9
Nsg10
Nsg11
Nsg12
Nsg13
Nsg14
Nsg15
Nsg16
g17
sg18
Nsg19
Nsg20
Nsg21
Nsg22
S'true'
p273
sg24
Nsg25
Nsg26
S'aluminum hydroxide'
p274
sg28
Nsg29
S'Specific_Interaction'
p275
sg31
Nsg32
Nsg33
Nsg34
Nsg35
Nsg36
Nsg37
S'KAYEXALATE'
p276
sa(dp277
g2
Nsg3
S'http://bio2rdf.org/drugbank:DB01373'
p278
sg5
S'http://bio2rdf.org/drugbank:DB01118'
p279
sg7
Nsg8
Nsg9
Nsg10
Nsg11
Nsg12
Nsg13
Nsg14
Nsg15
Nsg16
g17
sg18
Nsg19
Nsg20
Nsg21
Nsg22
S'true'
p280
sg24
Nsg25
Nsg26
S'amiodarone'
p281
sg28
Nsg29
S'Specific_Interaction'
p282
sg31
Nsg32
Nsg33
Nsg34
Nsg35
Nsg36
Nsg37
S'calcium channel antagonists'
p283
sa(dp284
g2
Nsg3
S'http://bio2rdf.org/drugbank:DB01136'
p285
sg5
S'http://bio2rdf.org/drugbank:DB01118'
p286
sg7
Nsg8
Nsg9
Nsg10
Nsg11
Nsg12
Nsg13
Nsg14
Nsg15
Nsg16
g17
sg18
Nsg19
Nsg20
Nsg21
Nsg22
S'true'
p287
sg24
Nsg25
Nsg26
S'Amiodarone'
p288
sg28
Nsg29
S'Increase_Interaction'
p289
sg31
Nsg32
Nsg33
Nsg34
Nsg35
Nsg36
Nsg37
S'carvedilol'
p290
sa(dp291
g2
Nsg3
S'http://bio2rdf.org/drugbank:DB00390'
p292
sg5
S'http://bio2rdf.org/drugbank:DB01118'
p293
sg7
Nsg8
Nsg9
Nsg10
Nsg11
Nsg12
Nsg13
Nsg14
Nsg15
Nsg16
g17
sg18
Nsg19
Nsg20
Nsg21
Nsg22
S'true'
p294
sg24
Nsg25
Nsg26
S'amiodarone'
p295
sg28
Nsg29
S'Increase_Interaction'
p296
sg31
Nsg32
Nsg33
Nsg34
Nsg35
Nsg36
Nsg37
S'digoxin'
p297
sa(dp298
g2
Nsg3
S'http://bio2rdf.org/drugbank:DB01195'
p299
sg5
S'http://bio2rdf.org/drugbank:DB01118'
p300
sg7
Nsg8
Nsg9
Nsg10
Nsg11
Nsg12
Nsg13
Nsg14
Nsg15
Nsg16
g17
sg18
Nsg19
Nsg20
Nsg21
Nsg22
S'true'
p301
sg24
Nsg25
Nsg26
S'amiodarone'
p302
sg28
Nsg29
S'Increase_Interaction'
p303
sg31
Nsg32
Nsg33
Nsg34
Nsg35
Nsg36
Nsg37
S'flecainide'
p304
sa(dp305
g2
Nsg3
S'http://bio2rdf.org/drugbank:DB00227'
p306
sg5
S'http://bio2rdf.org/drugbank:DB01118'
p307
sg7
Nsg8
Nsg9
Nsg10
Nsg11
Nsg12
Nsg13
Nsg14
Nsg15
Nsg16
g17
sg18
Nsg19
Nsg20
Nsg21
Nsg22
S'true'
p308
sg24
Nsg25
Nsg26
S'amiodarone'
p309
sg28
Nsg29
S'Caution_Interaction'
p310
sg31
Nsg32
Nsg33
Nsg34
Nsg35
Nsg36
Nsg37
S'lovastatin'
p311
sa(dp312
g2
Nsg3
S'http://bio2rdf.org/drugbank:DB01035'
p313
sg5
S'http://bio2rdf.org/drugbank:DB01118'
p314
sg7
Nsg8
Nsg9
Nsg10
Nsg11
Nsg12
Nsg13
Nsg14
Nsg15
Nsg16
g17
sg18
Nsg19
Nsg20
Nsg21
Nsg22
S'true'
p315
sg24
Nsg25
Nsg26
S'Amiodarone'
p316
sg28
Nsg29
S'Increase_Interaction'
p317
sg31
Nsg32
Nsg33
Nsg34
Nsg35
Nsg36
Nsg37
S'procainamide'
p318
sa(dp319
g2
Nsg3
S'http://bio2rdf.org/drugbank:DB00571'
p320
sg5
S'http://bio2rdf.org/drugbank:DB01118'
p321
sg7
Nsg8
Nsg9
Nsg10
Nsg11
Nsg12
Nsg13
Nsg14
Nsg15
Nsg16
g17
sg18
Nsg19
Nsg20
Nsg21
Nsg22
S'true'
p322
sg24
Nsg25
Nsg26
S'Amiodarone'
p323
sg28
Nsg29
S'Specific_Interaction'
p324
sg31
Nsg32
Nsg33
Nsg34
Nsg35
Nsg36
Nsg37
S'propranolol'
p325
sa(dp326
g2
Nsg3
S'http://bio2rdf.org/drugbank:DB00908'
p327
sg5
S'http://bio2rdf.org/drugbank:DB01118'
p328
sg7
Nsg8
Nsg9
Nsg10
Nsg11
Nsg12
Nsg13
Nsg14
Nsg15
Nsg16
g17
sg18
Nsg19
Nsg20
Nsg21
Nsg22
S'true'
p329
sg24
Nsg25
Nsg26
S'Amiodarone'
p330
sg28
Nsg29
S'Increase_Interaction'
p331
sg31
Nsg32
Nsg33
Nsg34
Nsg35
Nsg36
Nsg37
S'quinidine'
p332
sa(dp333
g2
Nsg3
S'http://bio2rdf.org/drugbank:DB00641'
p334
sg5
S'http://bio2rdf.org/drugbank:DB01118'
p335
sg7
Nsg8
Nsg9
Nsg10
Nsg11
Nsg12
Nsg13
Nsg14
Nsg15
Nsg16
g17
sg18
Nsg19
Nsg20
Nsg21
Nsg22
S'true'
p336
sg24
Nsg25
Nsg26
S'amiodarone'
p337
sg28
Nsg29
S'Caution_Interaction'
p338
sg31
Nsg32
Nsg33
Nsg34
Nsg35
Nsg36
Nsg37
S'simvastatin'
p339
sa(dp340
g2
Nsg3
S'http://bio2rdf.org/drugbank:DB00575'
p341
sg5
S'http://bio2rdf.org/drugbank:DB00321'
p342
sg7
Nsg8
Nsg9
Nsg10
Nsg11
Nsg12
Nsg13
Nsg14
Nsg15
Nsg16
g17
sg18
Nsg19
Nsg20
Nsg21
Nsg22
S'true'
p343
sg24
Nsg25
Nsg26
S'amitriptyline'
p344
sg28
Nsg29
S'Specific_Interaction'
p345
sg31
Nsg32
Nsg33
Nsg34
Nsg35
Nsg36
Nsg37
S'clonidine hydrochloride'
p346
sa(dp347
g2
Nsg3
S'http://bio2rdf.org/drugbank:DB00575'
p348
sg5
S'http://bio2rdf.org/drugbank:DB00321'
p349
sg7
Nsg8
Nsg9
Nsg10
Nsg11
Nsg12
Nsg13
Nsg14
Nsg15
Nsg16
g17
sg18
Nsg19
Nsg20
Nsg21
Nsg22
S'true'
p350
sg24
Nsg25
Nsg26
S'Amitriptyline'
p351
sg28
Nsg29
S'Specific_Interaction'
p352
sg31
Nsg32
Nsg33
Nsg34
Nsg35
Nsg36
Nsg37
S'clonidine'
p353
sa(dp354
g2
Nsg3
S'http://bio2rdf.org/drugbank:DB00641'
p355
sg5
S'http://bio2rdf.org/drugbank:DB00381'
p356
sg7
Nsg8
Nsg9
Nsg10
Nsg11
Nsg12
Nsg13
Nsg14
Nsg15
Nsg16
g17
sg18
Nsg19
Nsg20
Nsg21
Nsg22
S'true'
p357
sg24
Nsg25
Nsg26
S'amlodipine'
p358
sg28
Nsg29
S'Caution_Interaction'
p359
sg31
Nsg32
Nsg33
Nsg34
Nsg35
Nsg36
Nsg37
S'simvastatin'
p360
sa(dp361
g2
Nsg3
S'http://bio2rdf.org/drugbank:DB00641'
p362
sg5
S'http://bio2rdf.org/drugbank:DB00381'
p363
sg7
Nsg8
Nsg9
Nsg10
Nsg11
Nsg12
Nsg13
Nsg14
Nsg15
Nsg16
g17
sg18
Nsg19
Nsg20
Nsg21
Nsg22
S'true'
p364
sg24
Nsg25
Nsg26
S'amlodipine'
p365
sg28
Nsg29
S'Increase_Interaction'
p366
sg31
Nsg32
Nsg33
Nsg34
Nsg35
Nsg36
Nsg37
S'simvastatin'
p367
sa(dp368
g2
Nsg3
S'http://bio2rdf.org/drugbank:DB00819'
p369
sg5
S'http://bio2rdf.org/drugbank:DB00945'
p370
sg7
Nsg8
Nsg9
Nsg10
Nsg11
Nsg12
Nsg13
Nsg14
Nsg15
Nsg16
g17
sg18
Nsg19
Nsg20
Nsg21
Nsg22
S'true'
p371
sg24
Nsg25
Nsg26
S'aspirin'
p372
sg28
Nsg29
S'Increase_Interaction'
p373
sg31
Nsg32
Nsg33
Nsg34
Nsg35
Nsg36
Nsg37
S'acetazolamide'
p374
sa(dp375
g2
Nsg3
S'http://bio2rdf.org/drugbank:DB06605'
p376
sg5
S'http://bio2rdf.org/drugbank:DB00945'
p377
sg7
Nsg8
Nsg9
Nsg10
Nsg11
Nsg12
Nsg13
Nsg14
Nsg15
Nsg16
g17
sg18
Nsg19
Nsg20
Nsg21
Nsg22
S'true'
p378
sg24
Nsg25
Nsg26
S'aspirin'
p379
sg28
Nsg29
S'Specific_Interaction'
p380
sg31
Nsg32
Nsg33
Nsg34
Nsg35
Nsg36
Nsg37
S'ELIQUIS'
p381
sa(dp382
g2
Nsg3
S'http://bio2rdf.org/drugbank:DB01109'
p383
sg5
S'http://bio2rdf.org/drugbank:DB00945'
p384
sg7
Nsg8
Nsg9
Nsg10
Nsg11
Nsg12
Nsg13
Nsg14
Nsg15
Nsg16
g17
sg18
Nsg19
Nsg20
Nsg21
Nsg22
S'true'
p385
sg24
Nsg25
Nsg26
S'Aspirin'
p386
sg28
Nsg29
S'Specific_Interaction'
p387
sg31
Nsg32
Nsg33
Nsg34
Nsg35
Nsg36
Nsg37
S'heparin'
p388
sa(dp389
g2
Nsg3
S'http://bio2rdf.org/drugbank:DB00727'
p390
sg5
S'http://bio2rdf.org/drugbank:DB00945'
p391
sg7
Nsg8
Nsg9
Nsg10
Nsg11
Nsg12
Nsg13
Nsg14
Nsg15
Nsg16
g17
sg18
Nsg19
Nsg20
Nsg21
Nsg22
S'true'
p392
sg24
Nsg25
Nsg26
S'aspirin'
p393
sg28
Nsg29
S'Increase_Interaction'
p394
sg31
Nsg32
Nsg33
Nsg34
Nsg35
Nsg36
Nsg37
S'nitroglycerin'
p395
sa(dp396
g2
Nsg3
S'http://bio2rdf.org/drugbank:DB00758'
p397
sg5
S'http://bio2rdf.org/drugbank:DB00945'
p398
sg7
Nsg8
Nsg9
Nsg10
Nsg11
Nsg12
Nsg13
Nsg14
Nsg15
Nsg16
g17
sg18
Nsg19
Nsg20
Nsg21
Nsg22
S'true'
p399
sg24
Nsg25
Nsg26
S'aspirin'
p400
sg28
Nsg29
S'Specific_Interaction'
p401
sg31
Nsg32
Nsg33
Nsg34
Nsg35
Nsg36
Nsg37
S'Plavix'
p402
sa(dp403
g2
Nsg3
S'http://bio2rdf.org/drugbank:DB00682'
p404
sg5
S'http://bio2rdf.org/drugbank:DB00945'
p405
sg7
Nsg8
Nsg9
Nsg10
Nsg11
Nsg12
Nsg13
Nsg14
Nsg15
Nsg16
g17
sg18
Nsg19
Nsg20
Nsg21
Nsg22
S'true'
p406
sg24
Nsg25
Nsg26
S'Aspirin'
p407
sg28
Nsg29
S'Specific_Interaction'
p408
sg31
Nsg32
Nsg33
Nsg34
Nsg35
Nsg36
Nsg37
S'warfarin'
p409
sa(dp410
g2
Nsg3
S'http://bio2rdf.org/drugbank:DB01394'
p411
sg5
S'http://bio2rdf.org/drugbank:DB01076'
p412
sg7
Nsg8
Nsg9
Nsg10
Nsg11
Nsg12
Nsg13
Nsg14
Nsg15
Nsg16
g17
sg18
Nsg19
Nsg20
Nsg21
Nsg22
S'true'
p413
sg24
Nsg25
Nsg26
S'atorvastatin'
p414
sg28
Nsg29
S'Specific_Interaction'
p415
sg31
Nsg32
Nsg33
Nsg34
Nsg35
Nsg36
Nsg37
S'colchicine'
p416
sa(dp417
g2
Nsg3
S'http://bio2rdf.org/drugbank:DB00091'
p418
sg5
S'http://bio2rdf.org/drugbank:DB01076'
p419
sg7
Nsg8
Nsg9
Nsg10
Nsg11
Nsg12
Nsg13
Nsg14
Nsg15
Nsg16
g17
sg18
Nsg19
Nsg20
Nsg21
Nsg22
S'true'
p420
sg24
Nsg25
Nsg26
S'atorvastatin'
p421
sg28
Nsg29
S'Specific_Interaction'
p422
sg31
Nsg32
Nsg33
Nsg34
Nsg35
Nsg36
Nsg37
S'cyclosporine'
p423
sa(dp424
g2
Nsg3
S'http://bio2rdf.org/drugbank:DB00379'
p425
sg5
S'http://bio2rdf.org/drugbank:DB00572'
p426
sg7
Nsg8
Nsg9
Nsg10
Nsg11
Nsg12
Nsg13
Nsg14
Nsg15
Nsg16
g17
sg18
Nsg19
Nsg20
Nsg21
Nsg22
S'true'
p427
sg24
Nsg25
Nsg26
S'Atropine I.V.'
p428
sg28
Nsg29
S'Decrease_Interaction'
p429
sg31
Nsg32
Nsg33
Nsg34
Nsg35
Nsg36
Nsg37
S'mexiletine'
p430
sa(dp431
g2
Nsg3
S'http://bio2rdf.org/drugbank:DB01373'
p432
sg5
S'http://bio2rdf.org/drugbank:DB00489'
p433
sg7
Nsg8
Nsg9
Nsg10
Nsg11
Nsg12
Nsg13
Nsg14
Nsg15
Nsg16
g17
sg18
Nsg19
Nsg20
Nsg21
Nsg22
S'true'
p434
sg24
Nsg25
Nsg26
S'Betapace'
p435
sg28
Nsg29
S'Specific_Interaction'
p436
sg31
Nsg32
Nsg33
Nsg34
Nsg35
Nsg36
Nsg37
S'calcium-blocking drugs'
p437
sa(dp438
g2
Nsg3
S'http://bio2rdf.org/drugbank:DB00390'
p439
sg5
S'http://bio2rdf.org/drugbank:DB00489'
p440
sg7
Nsg8
Nsg9
Nsg10
Nsg11
Nsg12
Nsg13
Nsg14
Nsg15
Nsg16
g17
sg18
Nsg19
Nsg20
Nsg21
Nsg22
S'true'
p441
sg24
Nsg25
Nsg26
S'Betapace'
p442
sg28
Nsg29
S'Specific_Interaction'
p443
sg31
Nsg32
Nsg33
Nsg34
Nsg35
Nsg36
Nsg37
S'digoxin'
p444
sa(dp445
g2
Nsg3
S'http://bio2rdf.org/drugbank:DB01076'
p446
sg5
S'http://bio2rdf.org/drugbank:DB08873'
p447
sg7
Nsg8
Nsg9
Nsg10
Nsg11
Nsg12
Nsg13
Nsg14
Nsg15
Nsg16
g17
sg18
Nsg19
Nsg20
Nsg21
Nsg22
S'true'
p448
sg24
Nsg25
Nsg26
S'boceprevir'
p449
sg28
Nsg29
S'Caution_Interaction'
p450
sg31
Nsg32
Nsg33
Nsg34
Nsg35
Nsg36
Nsg37
S'atorvastatin'
p451
sa(dp452
g2
Nsg3
S'http://bio2rdf.org/drugbank:DB00091'
p453
sg5
S'http://bio2rdf.org/drugbank:DB00559'
p454
sg7
Nsg8
Nsg9
Nsg10
Nsg11
Nsg12
Nsg13
Nsg14
Nsg15
Nsg16
g17
sg18
Nsg19
Nsg20
Nsg21
Nsg22
S'true'
p455
sg24
Nsg25
Nsg26
S'bosentan'
p456
sg28
Nsg29
S'Decrease_Interaction'
p457
sg31
Nsg32
Nsg33
Nsg34
Nsg35
Nsg36
Nsg37
S'cyclosporine A'
p458
sa(dp459
g2
Nsg3
S'http://bio2rdf.org/drugbank:DB00091'
p460
sg5
S'http://bio2rdf.org/drugbank:DB00559'
p461
sg7
Nsg8
Nsg9
Nsg10
Nsg11
Nsg12
Nsg13
Nsg14
Nsg15
Nsg16
g17
sg18
Nsg19
Nsg20
Nsg21
Nsg22
S'true'
p462
sg24
Nsg25
Nsg26
S'bosentan'
p463
sg28
Nsg29
S'Increase_Interaction'
p464
sg31
Nsg32
Nsg33
Nsg34
Nsg35
Nsg36
Nsg37
S'cyclosporine A'
p465
sa(dp466
g2
Nsg3
S'http://bio2rdf.org/drugbank:DB00977'
p467
sg5
S'http://bio2rdf.org/drugbank:DB00559'
p468
sg7
Nsg8
Nsg9
Nsg10
Nsg11
Nsg12
Nsg13
Nsg14
Nsg15
Nsg16
g17
sg18
Nsg19
Nsg20
Nsg21
Nsg22
S'true'
p469
sg24
Nsg25
Nsg26
S'bosentan'
p470
sg28
Nsg29
S'Decrease_Interaction'
p471
sg31
Nsg32
Nsg33
Nsg34
Nsg35
Nsg36
Nsg37
S'ethinyl estradiol'
p472
sa(dp473
g2
Nsg3
S'http://bio2rdf.org/drugbank:DB01016'
p474
sg5
S'http://bio2rdf.org/drugbank:DB00559'
p475
sg7
Nsg8
Nsg9
Nsg10
Nsg11
Nsg12
Nsg13
Nsg14
Nsg15
Nsg16
g17
sg18
Nsg19
Nsg20
Nsg21
Nsg22
S'true'
p476
sg24
Nsg25
Nsg26
S'bosentan'
p477
sg28
Nsg29
S'Decrease_Interaction'
p478
sg31
Nsg32
Nsg33
Nsg34
Nsg35
Nsg36
Nsg37
S'glyburide'
p479
sa(dp480
g2
Nsg3
S'http://bio2rdf.org/drugbank:DB00717'
p481
sg5
S'http://bio2rdf.org/drugbank:DB00559'
p482
sg7
Nsg8
Nsg9
Nsg10
Nsg11
Nsg12
Nsg13
Nsg14
Nsg15
Nsg16
g17
sg18
Nsg19
Nsg20
Nsg21
Nsg22
S'true'
p483
sg24
Nsg25
Nsg26
S'bosentan'
p484
sg28
Nsg29
S'Decrease_Interaction'
p485
sg31
Nsg32
Nsg33
Nsg34
Nsg35
Nsg36
Nsg37
S'norethindrone'
p486
sa(dp487
g2
Nsg3
S'http://bio2rdf.org/drugbank:DB00682'
p488
sg5
S'http://bio2rdf.org/drugbank:DB00559'
p489
sg7
Nsg8
Nsg9
Nsg10
Nsg11
Nsg12
Nsg13
Nsg14
Nsg15
Nsg16
g17
sg18
Nsg19
Nsg20
Nsg21
Nsg22
S'true'
p490
sg24
Nsg25
Nsg26
S'bosentan'
p491
sg28
Nsg29
S'Decrease_Interaction'
p492
sg31
Nsg32
Nsg33
Nsg34
Nsg35
Nsg36
Nsg37
S'R-warfarin'
p493
sa(dp494
g2
Nsg3
S'http://bio2rdf.org/drugbank:DB00203'
p495
sg5
S'http://bio2rdf.org/drugbank:DB00559'
p496
sg7
Nsg8
Nsg9
Nsg10
Nsg11
Nsg12
Nsg13
Nsg14
Nsg15
Nsg16
g17
sg18
Nsg19
Nsg20
Nsg21
Nsg22
S'true'
p497
sg24
Nsg25
Nsg26
S'bosentan'
p498
sg28
Nsg29
S'Decrease_Interaction'
p499
sg31
Nsg32
Nsg33
Nsg34
Nsg35
Nsg36
Nsg37
S'sildenafil'
p500
sa(dp501
g2
Nsg3
S'http://bio2rdf.org/drugbank:DB00682'
p502
sg5
S'http://bio2rdf.org/drugbank:DB00559'
p503
sg7
Nsg8
Nsg9
Nsg10
Nsg11
Nsg12
Nsg13
Nsg14
Nsg15
Nsg16
g17
sg18
Nsg19
Nsg20
Nsg21
Nsg22
S'true'
p504
sg24
Nsg25
Nsg26
S'bosentan'
p505
sg28
Nsg29
S'Decrease_Interaction'
p506
sg31
Nsg32
Nsg33
Nsg34
Nsg35
Nsg36
Nsg37
S'S-warfarin'
p507
sa(dp508
g2
Nsg3
S'http://bio2rdf.org/drugbank:DB00390'
p509
sg5
S'http://bio2rdf.org/drugbank:DB00187'
p510
sg7
Nsg8
Nsg9
Nsg10
Nsg11
Nsg12
Nsg13
Nsg14
Nsg15
Nsg16
g17
sg18
Nsg19
Nsg20
Nsg21
Nsg22
S'true'
p511
sg24
Nsg25
Nsg26
S'BREVIBLOC'
p512
sg28
Nsg29
S'Increase_Interaction'
p513
sg31
Nsg32
Nsg33
Nsg34
Nsg35
Nsg36
Nsg37
S'digoxin'
p514
sa(dp515
g2
Nsg3
S'http://bio2rdf.org/drugbank:DB00695'
p516
sg5
S'http://bio2rdf.org/drugbank:DB00187'
p517
sg7
Nsg8
Nsg9
Nsg10
Nsg11
Nsg12
Nsg13
Nsg14
Nsg15
Nsg16
g17
sg18
Nsg19
Nsg20
Nsg21
Nsg22
S'true'
p518
sg24
Nsg25
Nsg26
S'BREVIBLOC'
p519
sg28
Nsg29
S'Caution_Interaction'
p520
sg31
Nsg32
Nsg33
Nsg34
Nsg35
Nsg36
Nsg37
S'furosemide'
p521
sa(dp522
g2
Nsg3
S'http://bio2rdf.org/drugbank:DB01226'
p523
sg5
S'http://bio2rdf.org/drugbank:DB00187'
p524
sg7
Nsg8
Nsg9
Nsg10
Nsg11
Nsg12
Nsg13
Nsg14
Nsg15
Nsg16
g17
sg18
Nsg19
Nsg20
Nsg21
Nsg22
S'true'
p525
sg24
Nsg25
Nsg26
S'BREVIBLOC'
p526
sg28
Nsg29
S'Increase_Interaction'
p527
sg31
Nsg32
Nsg33
Nsg34
Nsg35
Nsg36
Nsg37
S'mivacurium'
p528
sa(dp529
g2
Nsg3
S'http://bio2rdf.org/drugbank:DB00202'
p530
sg5
S'http://bio2rdf.org/drugbank:DB00187'
p531
sg7
Nsg8
Nsg9
Nsg10
Nsg11
Nsg12
Nsg13
Nsg14
Nsg15
Nsg16
g17
sg18
Nsg19
Nsg20
Nsg21
Nsg22
S'true'
p532
sg24
Nsg25
Nsg26
S'BREVIBLOC'
p533
sg28
Nsg29
S'Specific_Interaction'
p534
sg31
Nsg32
Nsg33
Nsg34
Nsg35
Nsg36
Nsg37
S'succinylcholine'
p535
sa(dp536
g2
Nsg3
S'http://bio2rdf.org/drugbank:DB00571'
p537
sg5
S'http://bio2rdf.org/drugbank:DB00297'
p538
sg7
Nsg8
Nsg9
Nsg10
Nsg11
Nsg12
Nsg13
Nsg14
Nsg15
Nsg16
g17
sg18
Nsg19
Nsg20
Nsg21
Nsg22
S'true'
p539
sg24
Nsg25
Nsg26
S'bupivacaine'
p540
sg28
Nsg29
S'Increase_Interaction'
p541
sg31
Nsg32
Nsg33
Nsg34
Nsg35
Nsg36
Nsg37
S'propranolol'
p542
sa(dp543
g2
Nsg3
S'http://bio2rdf.org/drugbank:DB00343'
p544
sg5
S'http://bio2rdf.org/drugbank:DB00490'
p545
sg7
Nsg8
Nsg9
Nsg10
Nsg11
Nsg12
Nsg13
Nsg14
Nsg15
Nsg16
g17
sg18
Nsg19
Nsg20
Nsg21
Nsg22
S'true'
p546
sg24
Nsg25
Nsg26
S'buspirone'
p547
sg28
Nsg29
S'Increase_Interaction'
p548
sg31
Nsg32
Nsg33
Nsg34
Nsg35
Nsg36
Nsg37
S'diltiazem'
p549
sa(dp550
g2
Nsg3
S'http://bio2rdf.org/drugbank:DB00537'
p551
sg5
S'http://bio2rdf.org/drugbank:DB01373'
p552
sg7
Nsg8
Nsg9
Nsg10
Nsg11
Nsg12
Nsg13
Nsg14
Nsg15
Nsg16
g17
sg18
Nsg19
Nsg20
Nsg21
Nsg22
S'true'
p553
sg24
Nsg25
Nsg26
S'calcium acetate tablets'
p554
sg28
Nsg29
S'Decrease_Interaction'
p555
sg31
Nsg32
Nsg33
Nsg34
Nsg35
Nsg36
Nsg37
S'ciprofloxacin'
p556
sa(dp557
g2
Nsg3
S'http://bio2rdf.org/drugbank:DB04855'
p558
sg5
S'http://bio2rdf.org/drugbank:DB01373'
p559
sg7
Nsg8
Nsg9
Nsg10
Nsg11
Nsg12
Nsg13
Nsg14
Nsg15
Nsg16
g17
sg18
Nsg19
Nsg20
Nsg21
Nsg22
S'true'
p560
sg24
Nsg25
Nsg26
S'Calcium channel blockers with depressant effects on the sinus and AV nodes'
p561
sg28
Nsg29
S'Specific_Interaction'
p562
sg31
Nsg32
Nsg33
Nsg34
Nsg35
Nsg36
Nsg37
S'dronedarone'
p563
sa(dp564
g2
Nsg3
S'http://bio2rdf.org/drugbank:DB00390'
p565
sg5
S'http://bio2rdf.org/drugbank:DB01373'
p566
sg7
Nsg8
Nsg9
Nsg10
Nsg11
Nsg12
Nsg13
Nsg14
Nsg15
Nsg16
g17
sg18
Nsg19
Nsg20
Nsg21
Nsg22
S'true'
p567
sg24
Nsg25
Nsg26
S'calcium channel blockers'
p568
sg28
Nsg29
S'Specific_Interaction'
p569
sg31
Nsg32
Nsg33
Nsg34
Nsg35
Nsg36
Nsg37
S'digoxin'
p570
sa(dp571
g2
Nsg3
S'http://bio2rdf.org/drugbank:DB00335'
p572
sg5
S'http://bio2rdf.org/drugbank:DB01373'
p573
sg7
Nsg8
Nsg9
Nsg10
Nsg11
Nsg12
Nsg13
Nsg14
Nsg15
Nsg16
g17
sg18
Nsg19
Nsg20
Nsg21
Nsg22
S'true'
p574
sg24
Nsg25
Nsg26
S'Calcium channel blockers'
p575
sg28
Nsg29
S'Increase_Interaction'
p576
sg31
Nsg32
Nsg33
Nsg34
Nsg35
Nsg36
Nsg37
S'TENORMIN'
p577
sa(dp578
g2
Nsg3
S'http://bio2rdf.org/drugbank:DB00999'
p579
sg5
S'http://bio2rdf.org/drugbank:DB00564'
p580
sg7
Nsg8
Nsg9
Nsg10
Nsg11
Nsg12
Nsg13
Nsg14
Nsg15
Nsg16
g17
sg18
Nsg19
Nsg20
Nsg21
Nsg22
S'true'
p581
sg24
Nsg25
Nsg26
S'carbamazepine'
p582
sg28
Nsg29
S'Specific_Interaction'
p583
sg31
Nsg32
Nsg33
Nsg34
Nsg35
Nsg36
Nsg37
S'hydrochlorothiazide'
p584
sa(dp585
g2
Nsg3
S'http://bio2rdf.org/drugbank:DB00390'
p586
sg5
S'http://bio2rdf.org/drugbank:DB00343'
p587
sg7
Nsg8
Nsg9
Nsg10
Nsg11
Nsg12
Nsg13
Nsg14
Nsg15
Nsg16
g17
sg18
Nsg19
Nsg20
Nsg21
Nsg22
S'true'
p588
sg24
Nsg25
Nsg26
S'CARDIZEM'
p589
sg28
Nsg29
S'Increase_Interaction'
p590
sg31
Nsg32
Nsg33
Nsg34
Nsg35
Nsg36
Nsg37
S'digoxin'
p591
sa(dp592
g2
Nsg3
S'http://bio2rdf.org/drugbank:DB00091'
p593
sg5
S'http://bio2rdf.org/drugbank:DB01136'
p594
sg7
Nsg8
Nsg9
Nsg10
Nsg11
Nsg12
Nsg13
Nsg14
Nsg15
Nsg16
g17
sg18
Nsg19
Nsg20
Nsg21
Nsg22
S'true'
p595
sg24
Nsg25
Nsg26
S'carvedilol'
p596
sg28
Nsg29
S'Caution_Interaction'
p597
sg31
Nsg32
Nsg33
Nsg34
Nsg35
Nsg36
Nsg37
S'cyclosporine'
p598
sa(dp599
g2
Nsg3
S'http://bio2rdf.org/drugbank:DB00390'
p600
sg5
S'http://bio2rdf.org/drugbank:DB01136'
p601
sg7
Nsg8
Nsg9
Nsg10
Nsg11
Nsg12
Nsg13
Nsg14
Nsg15
Nsg16
g17
sg18
Nsg19
Nsg20
Nsg21
Nsg22
S'true'
p602
sg24
Nsg25
Nsg26
S'carvedilol'
p603
sg28
Nsg29
S'Increase_Interaction'
p604
sg31
Nsg32
Nsg33
Nsg34
Nsg35
Nsg36
Nsg37
S'digoxin'
p605
sa(dp606
g2
Nsg3
S'http://bio2rdf.org/drugbank:DB01356'
p607
sg5
S'http://bio2rdf.org/drugbank:DB00310'
p608
sg7
Nsg8
Nsg9
Nsg10
Nsg11
Nsg12
Nsg13
Nsg14
Nsg15
Nsg16
g17
sg18
Nsg19
Nsg20
Nsg21
Nsg22
S'true'
p609
sg24
Nsg25
Nsg26
S'chlorthalidone'
p610
sg28
Nsg29
S'Increase_Interaction'
p611
sg31
Nsg32
Nsg33
Nsg34
Nsg35
Nsg36
Nsg37
S'lithium'
p612
sa(dp613
g2
Nsg3
S'http://bio2rdf.org/drugbank:DB00368'
p614
sg5
S'http://bio2rdf.org/drugbank:DB00310'
p615
sg7
Nsg8
Nsg9
Nsg10
Nsg11
Nsg12
Nsg13
Nsg14
Nsg15
Nsg16
g17
sg18
Nsg19
Nsg20
Nsg21
Nsg22
S'true'
p616
sg24
Nsg25
Nsg26
S'Chlorthalidone'
p617
sg28
Nsg29
S'Specific_Interaction'
p618
sg31
Nsg32
Nsg33
Nsg34
Nsg35
Nsg36
Nsg37
S'norepinephrine'
p619
sa(dp620
g2
Nsg3
S'http://bio2rdf.org/drugbank:DB01199'
p621
sg5
S'http://bio2rdf.org/drugbank:DB00310'
p622
sg7
Nsg8
Nsg9
Nsg10
Nsg11
Nsg12
Nsg13
Nsg14
Nsg15
Nsg16
g17
sg18
Nsg19
Nsg20
Nsg21
Nsg22
S'true'
p623
sg24
Nsg25
Nsg26
S'Chlorthalidone'
p624
sg28
Nsg29
S'Increase_Interaction'
p625
sg31
Nsg32
Nsg33
Nsg34
Nsg35
Nsg36
Nsg37
S'tubocurarine'
p626
sa(dp627
g2
Nsg3
S'http://bio2rdf.org/drugbank:DB00436'
p628
sg5
S'http://bio2rdf.org/drugbank:DB01432'
p629
sg7
Nsg8
Nsg9
Nsg10
Nsg11
Nsg12
Nsg13
Nsg14
Nsg15
Nsg16
g17
sg18
Nsg19
Nsg20
Nsg21
Nsg22
S'true'
p630
sg24
Nsg25
Nsg26
S'Cholestyramine resin'
p631
sg28
Nsg29
S'Decrease_Interaction'
p632
sg31
Nsg32
Nsg33
Nsg34
Nsg35
Nsg36
Nsg37
S'bendroflumethiazide'
p633
sa(dp634
g2
Nsg3
S'http://bio2rdf.org/drugbank:DB01118'
p635
sg5
S'http://bio2rdf.org/drugbank:DB01432'
p636
sg7
Nsg8
Nsg9
Nsg10
Nsg11
Nsg12
Nsg13
Nsg14
Nsg15
Nsg16
g17
sg18
Nsg19
Nsg20
Nsg21
Nsg22
S'true'
p637
sg24
Nsg25
Nsg26
S'Cholestyramine'
p638
sg28
Nsg29
S'Decrease_Interaction'
p639
sg31
Nsg32
Nsg33
Nsg34
Nsg35
Nsg36
Nsg37
S'amiodarone'
p640
sa(dp641
g2
Nsg3
S'http://bio2rdf.org/drugbank:DB00390'
p642
sg5
S'http://bio2rdf.org/drugbank:DB01432'
p643
sg7
Nsg8
Nsg9
Nsg10
Nsg11
Nsg12
Nsg13
Nsg14
Nsg15
Nsg16
g17
sg18
Nsg19
Nsg20
Nsg21
Nsg22
S'true'
p644
sg24
Nsg25
Nsg26
S'cholestyramine'
p645
sg28
Nsg29
S'Decrease_Interaction'
p646
sg31
Nsg32
Nsg33
Nsg34
Nsg35
Nsg36
Nsg37
S'digoxin'
p647
sa(dp648
g2
Nsg3
S'http://bio2rdf.org/drugbank:DB00999'
p649
sg5
S'http://bio2rdf.org/drugbank:DB01432'
p650
sg7
Nsg8
Nsg9
Nsg10
Nsg11
Nsg12
Nsg13
Nsg14
Nsg15
Nsg16
g17
sg18
Nsg19
Nsg20
Nsg21
Nsg22
S'true'
p651
sg24
Nsg25
Nsg26
S'cholestyramine'
p652
sg28
Nsg29
S'Decrease_Interaction'
p653
sg31
Nsg32
Nsg33
Nsg34
Nsg35
Nsg36
Nsg37
S'hydrochlorothiazide'
p654
sa(dp655
g2
Nsg3
S'http://bio2rdf.org/drugbank:DB00758'
p656
sg5
S'http://bio2rdf.org/drugbank:DB01166'
p657
sg7
Nsg8
Nsg9
Nsg10
Nsg11
Nsg12
Nsg13
Nsg14
Nsg15
Nsg16
g17
sg18
Nsg19
Nsg20
Nsg21
Nsg22
S'true'
p658
sg24
Nsg25
Nsg26
S'cilostazol'
p659
sg28
Nsg29
S'Caution_Interaction'
p660
sg31
Nsg32
Nsg33
Nsg34
Nsg35
Nsg36
Nsg37
S'clopidogrel'
p661
sa(dp662
g2
Nsg3
S'http://bio2rdf.org/drugbank:DB00343'
p663
sg5
S'http://bio2rdf.org/drugbank:DB01166'
p664
sg7
Nsg8
Nsg9
Nsg10
Nsg11
Nsg12
Nsg13
Nsg14
Nsg15
Nsg16
g17
sg18
Nsg19
Nsg20
Nsg21
Nsg22
S'true'
p665
sg24
Nsg25
Nsg26
S'cilostazol'
p666
sg28
Nsg29
S'Increase_Interaction'
p667
sg31
Nsg32
Nsg33
Nsg34
Nsg35
Nsg36
Nsg37
S'diltiazem'
p668
sa(dp669
g2
Nsg3
S'http://bio2rdf.org/drugbank:DB01118'
p670
sg5
S'http://bio2rdf.org/drugbank:DB00501'
p671
sg7
Nsg8
Nsg9
Nsg10
Nsg11
Nsg12
Nsg13
Nsg14
Nsg15
Nsg16
g17
sg18
Nsg19
Nsg20
Nsg21
Nsg22
S'true'
p672
sg24
Nsg25
Nsg26
S'Cimetidine'
p673
sg28
Nsg29
S'Increase_Interaction'
p674
sg31
Nsg32
Nsg33
Nsg34
Nsg35
Nsg36
Nsg37
S'amiodarone'
p675
sa(dp676
g2
Nsg3
S'http://bio2rdf.org/drugbank:DB00622'
p677
sg5
S'http://bio2rdf.org/drugbank:DB00501'
p678
sg7
Nsg8
Nsg9
Nsg10
Nsg11
Nsg12
Nsg13
Nsg14
Nsg15
Nsg16
g17
sg18
Nsg19
Nsg20
Nsg21
Nsg22
S'true'
p679
sg24
Nsg25
Nsg26
S'Cimetidine'
p680
sg28
Nsg29
S'Increase_Interaction'
p681
sg31
Nsg32
Nsg33
Nsg34
Nsg35
Nsg36
Nsg37
S'CARDENE'
p682
sa(dp683
g2
Nsg3
S'http://bio2rdf.org/drugbank:DB01136'
p684
sg5
S'http://bio2rdf.org/drugbank:DB00501'
p685
sg7
Nsg8
Nsg9
Nsg10
Nsg11
Nsg12
Nsg13
Nsg14
Nsg15
Nsg16
g17
sg18
Nsg19
Nsg20
Nsg21
Nsg22
S'true'
p686
sg24
Nsg25
Nsg26
S'cimetidine'
p687
sg28
Nsg29
S'Increase_Interaction'
p688
sg31
Nsg32
Nsg33
Nsg34
Nsg35
Nsg36
Nsg37
S'carvedilol'
p689
sa(dp690
g2
Nsg3
S'http://bio2rdf.org/drugbank:DB04861'
p691
sg5
S'http://bio2rdf.org/drugbank:DB00501'
p692
sg7
Nsg8
Nsg9
Nsg10
Nsg11
Nsg12
Nsg13
Nsg14
Nsg15
Nsg16
g17
sg18
Nsg19
Nsg20
Nsg21
Nsg22
S'true'
p693
sg24
Nsg25
Nsg26
S'Cimetidine'
p694
sg28
Nsg29
S'Increase_Interaction'
p695
sg31
Nsg32
Nsg33
Nsg34
Nsg35
Nsg36
Nsg37
S'd-nebivolol'
p696
sa(dp697
g2
Nsg3
S'http://bio2rdf.org/drugbank:DB00204'
p698
sg5
S'http://bio2rdf.org/drugbank:DB00501'
p699
sg7
Nsg8
Nsg9
Nsg10
Nsg11
Nsg12
Nsg13
Nsg14
Nsg15
Nsg16
g17
sg18
Nsg19
Nsg20
Nsg21
Nsg22
S'true'
p700
sg24
Nsg25
Nsg26
S'cimetidine'
p701
sg28
Nsg29
S'Caution_Interaction'
p702
sg31
Nsg32
Nsg33
Nsg34
Nsg35
Nsg36
Nsg37
S'dofetilide'
p703
sa(dp704
g2
Nsg3
S'http://bio2rdf.org/drugbank:DB00204'
p705
sg5
S'http://bio2rdf.org/drugbank:DB00501'
p706
sg7
Nsg8
Nsg9
Nsg10
Nsg11
Nsg12
Nsg13
Nsg14
Nsg15
Nsg16
g17
sg18
Nsg19
Nsg20
Nsg21
Nsg22
S'true'
p707
sg24
Nsg25
Nsg26
S'Cimetidine'
p708
sg28
Nsg29
S'Increase_Interaction'
p709
sg31
Nsg32
Nsg33
Nsg34
Nsg35
Nsg36
Nsg37
S'dofetilide'
p710
sa(dp711
g2
Nsg3
S'http://bio2rdf.org/drugbank:DB00204'
p712
sg5
S'http://bio2rdf.org/drugbank:DB00501'
p713
sg7
Nsg8
Nsg9
Nsg10
Nsg11
Nsg12
Nsg13
Nsg14
Nsg15
Nsg16
g17
sg18
Nsg19
Nsg20
Nsg21
Nsg22
S'true'
p714
sg24
Nsg25
Nsg26
S'cimetidine'
p715
sg28
Nsg29
S'Specific_Interaction'
p716
sg31
Nsg32
Nsg33
Nsg34
Nsg35
Nsg36
Nsg37
S'dofetilide'
p717
sa(dp718
g2
Nsg3
S'http://bio2rdf.org/drugbank:DB01023'
p719
sg5
S'http://bio2rdf.org/drugbank:DB00501'
p720
sg7
Nsg8
Nsg9
Nsg10
Nsg11
Nsg12
Nsg13
Nsg14
Nsg15
Nsg16
g17
sg18
Nsg19
Nsg20
Nsg21
Nsg22
S'true'
p721
sg24
Nsg25
Nsg26
S'cimetidine'
p722
sg28
Nsg29
S'Increase_Interaction'
p723
sg31
Nsg32
Nsg33
Nsg34
Nsg35
Nsg36
Nsg37
S'felodipine'
p724
sa(dp725
g2
Nsg3
S'http://bio2rdf.org/drugbank:DB01195'
p726
sg5
S'http://bio2rdf.org/drugbank:DB00501'
p727
sg7
Nsg8
Nsg9
Nsg10
Nsg11
Nsg12
Nsg13
Nsg14
Nsg15
Nsg16
g17
sg18
Nsg19
Nsg20
Nsg21
Nsg22
S'true'
p728
sg24
Nsg25
Nsg26
S'cimetidine'
p729
sg28
Nsg29
S'Increase_Interaction'
p730
sg31
Nsg32
Nsg33
Nsg34
Nsg35
Nsg36
Nsg37
S'flecainide'
p731
sa(dp732
g2
Nsg3
S'http://bio2rdf.org/drugbank:DB00598'
p733
sg5
S'http://bio2rdf.org/drugbank:DB00501'
p734
sg7
Nsg8
Nsg9
Nsg10
Nsg11
Nsg12
Nsg13
Nsg14
Nsg15
Nsg16
g17
sg18
Nsg19
Nsg20
Nsg21
Nsg22
S'true'
p735
sg24
Nsg25
Nsg26
S'Cimetidine'
p736
sg28
Nsg29
S'Increase_Interaction'
p737
sg31
Nsg32
Nsg33
Nsg34
Nsg35
Nsg36
Nsg37
S'labetalol HCl'
p738
sa(dp739
g2
Nsg3
S'http://bio2rdf.org/drugbank:DB00281'
p740
sg5
S'http://bio2rdf.org/drugbank:DB00501'
p741
sg7
Nsg8
Nsg9
Nsg10
Nsg11
Nsg12
Nsg13
Nsg14
Nsg15
Nsg16
g17
sg18
Nsg19
Nsg20
Nsg21
Nsg22
S'true'
p742
sg24
Nsg25
Nsg26
S'cimetidine'
p743
sg28
Nsg29
S'Increase_Interaction'
p744
sg31
Nsg32
Nsg33
Nsg34
Nsg35
Nsg36
Nsg37
S'lidocaine'
p745
sa(dp746
g2
Nsg3
S'http://bio2rdf.org/drugbank:DB00281'
p747
sg5
S'http://bio2rdf.org/drugbank:DB00501'
p748
sg7
Nsg8
Nsg9
Nsg10
Nsg11
Nsg12
Nsg13
Nsg14
Nsg15
Nsg16
g17
sg18
Nsg19
Nsg20
Nsg21
Nsg22
S'true'
p749
sg24
Nsg25
Nsg26
S'cimetidine'
p750
sg28
Nsg29
S'Specific_Interaction'
p751
sg31
Nsg32
Nsg33
Nsg34
Nsg35
Nsg36
Nsg37
S'lidocaine'
p752
sa(dp753
g2
Nsg3
S'http://bio2rdf.org/drugbank:DB00678'
p754
sg5
S'http://bio2rdf.org/drugbank:DB00501'
p755
sg7
Nsg8
Nsg9
Nsg10
Nsg11
Nsg12
Nsg13
Nsg14
Nsg15
Nsg16
g17
sg18
Nsg19
Nsg20
Nsg21
Nsg22
S'true'
p756
sg24
Nsg25
Nsg26
S'cimetidine'
p757
sg28
Nsg29
S'Increase_Interaction'
p758
sg31
Nsg32
Nsg33
Nsg34
Nsg35
Nsg36
Nsg37
S'losartan'
p759
sa(dp760
g2
Nsg3
S'http://bio2rdf.org/drugbank:DB00622'
p761
sg5
S'http://bio2rdf.org/drugbank:DB00501'
p762
sg7
Nsg8
Nsg9
Nsg10
Nsg11
Nsg12
Nsg13
Nsg14
Nsg15
Nsg16
g17
sg18
Nsg19
Nsg20
Nsg21
Nsg22
S'true'
p763
sg24
Nsg25
Nsg26
S'Cimetidine'
p764
sg28
Nsg29
S'Increase_Interaction'
p765
sg31
Nsg32
Nsg33
Nsg34
Nsg35
Nsg36
Nsg37
S'nicardipine'
p766
sa(dp767
g2
Nsg3
S'http://bio2rdf.org/drugbank:DB00695'
p768
sg5
S'http://bio2rdf.org/drugbank:DB00515'
p769
sg7
Nsg8
Nsg9
Nsg10
Nsg11
Nsg12
Nsg13
Nsg14
Nsg15
Nsg16
g17
sg18
Nsg19
Nsg20
Nsg21
Nsg22
S'true'
p770
sg24
Nsg25
Nsg26
S'cisplatin'
p771
sg28
Nsg29
S'Specific_Interaction'
p772
sg31
Nsg32
Nsg33
Nsg34
Nsg35
Nsg36
Nsg37
S'LASIX'
p773
sa(dp774
g2
Nsg3
S'http://bio2rdf.org/drugbank:DB01076'
p775
sg5
S'http://bio2rdf.org/drugbank:DB01211'
p776
sg7
Nsg8
Nsg9
Nsg10
Nsg11
Nsg12
Nsg13
Nsg14
Nsg15
Nsg16
g17
sg18
Nsg19
Nsg20
Nsg21
Nsg22
S'true'
p777
sg24
Nsg25
Nsg26
S'clarithromycin'
p778
sg28
Nsg29
S'Caution_Interaction'
p779
sg31
Nsg32
Nsg33
Nsg34
Nsg35
Nsg36
Nsg37
S'atorvastatin'
p780
sa(dp781
g2
Nsg3
S'http://bio2rdf.org/drugbank:DB00390'
p782
sg5
S'http://bio2rdf.org/drugbank:DB01211'
p783
sg7
Nsg8
Nsg9
Nsg10
Nsg11
Nsg12
Nsg13
Nsg14
Nsg15
Nsg16
g17
sg18
Nsg19
Nsg20
Nsg21
Nsg22
S'true'
p784
sg24
Nsg25
Nsg26
S'clarithromycin'
p785
sg28
Nsg29
S'Increase_Interaction'
p786
sg31
Nsg32
Nsg33
Nsg34
Nsg35
Nsg36
Nsg37
S'digoxin'
p787
sa(dp788
g2
Nsg3
S'http://bio2rdf.org/drugbank:DB06228'
p789
sg5
S'http://bio2rdf.org/drugbank:DB01211'
p790
sg7
Nsg8
Nsg9
Nsg10
Nsg11
Nsg12
Nsg13
Nsg14
Nsg15
Nsg16
g17
sg18
Nsg19
Nsg20
Nsg21
Nsg22
S'true'
p791
sg24
Nsg25
Nsg26
S'clarithromycin'
p792
sg28
Nsg29
S'Increase_Interaction'
p793
sg31
Nsg32
Nsg33
Nsg34
Nsg35
Nsg36
Nsg37
S'rivaroxaban'
p794
sa(dp795
g2
Nsg3
S'http://bio2rdf.org/drugbank:DB06228'
p796
sg5
S'http://bio2rdf.org/drugbank:DB01211'
p797
sg7
Nsg8
Nsg9
Nsg10
Nsg11
Nsg12
Nsg13
Nsg14
Nsg15
Nsg16
g17
sg18
Nsg19
Nsg20
Nsg21
Nsg22
S'true'
p798
sg24
Nsg25
Nsg26
S'clarithromycin'
p799
sg28
Nsg29
S'Specific_Interaction'
p800
sg31
Nsg32
Nsg33
Nsg34
Nsg35
Nsg36
Nsg37
S'rivaroxaban'
p801
sa(dp802
g2
Nsg3
S'http://bio2rdf.org/drugbank:DB00898'
p803
sg5
S'http://bio2rdf.org/drugbank:DB00575'
p804
sg7
Nsg8
Nsg9
Nsg10
Nsg11
Nsg12
Nsg13
Nsg14
Nsg15
Nsg16
g17
sg18
Nsg19
Nsg20
Nsg21
Nsg22
S'true'
p805
sg24
Nsg25
Nsg26
S'Clonidine'
p806
sg28
Nsg29
S'Specific_Interaction'
p807
sg31
Nsg32
Nsg33
Nsg34
Nsg35
Nsg36
Nsg37
S'alcohol'
p808
sa(dp809
g2
Nsg3
S'http://bio2rdf.org/drugbank:DB00343'
p810
sg5
S'http://bio2rdf.org/drugbank:DB00575'
p811
sg7
Nsg8
Nsg9
Nsg10
Nsg11
Nsg12
Nsg13
Nsg14
Nsg15
Nsg16
g17
sg18
Nsg19
Nsg20
Nsg21
Nsg22
S'true'
p812
sg24
Nsg25
Nsg26
S'clonidine'
p813
sg28
Nsg29
S'Specific_Interaction'
p814
sg31
Nsg32
Nsg33
Nsg34
Nsg35
Nsg36
Nsg37
S'diltiazem'
p815
sa(dp816
g2
Nsg3
S'http://bio2rdf.org/drugbank:DB00661'
p817
sg5
S'http://bio2rdf.org/drugbank:DB00575'
p818
sg7
Nsg8
Nsg9
Nsg10
Nsg11
Nsg12
Nsg13
Nsg14
Nsg15
Nsg16
g17
sg18
Nsg19
Nsg20
Nsg21
Nsg22
S'true'
p819
sg24
Nsg25
Nsg26
S'clonidine'
p820
sg28
Nsg29
S'Specific_Interaction'
p821
sg31
Nsg32
Nsg33
Nsg34
Nsg35
Nsg36
Nsg37
S'verapamil'
p822
sa(dp823
g2
Nsg3
S'http://bio2rdf.org/drugbank:DB01118'
p824
sg5
S'http://bio2rdf.org/drugbank:DB00758'
p825
sg7
Nsg8
Nsg9
Nsg10
Nsg11
Nsg12
Nsg13
Nsg14
Nsg15
Nsg16
g17
sg18
Nsg19
Nsg20
Nsg21
Nsg22
S'true'
p826
sg24
Nsg25
Nsg26
S'clopidogrel'
p827
sg28
Nsg29
S'Specific_Interaction'
p828
sg31
Nsg32
Nsg33
Nsg34
Nsg35
Nsg36
Nsg37
S'amiodarone'
p829
sa(dp830
g2
Nsg3
S'http://bio2rdf.org/drugbank:DB06695'
p831
sg5
S'http://bio2rdf.org/drugbank:DB00758'
p832
sg7
Nsg8
Nsg9
Nsg10
Nsg11
Nsg12
Nsg13
Nsg14
Nsg15
Nsg16
g17
sg18
Nsg19
Nsg20
Nsg21
Nsg22
S'true'
p833
sg24
Nsg25
Nsg26
S'clopidogrel'
p834
sg28
Nsg29
S'Increase_Interaction'
p835
sg31
Nsg32
Nsg33
Nsg34
Nsg35
Nsg36
Nsg37
S'dabigatran'
p836
sa(dp837
g2
Nsg3
S'http://bio2rdf.org/drugbank:DB00338'
p838
sg5
S'http://bio2rdf.org/drugbank:DB00758'
p839
sg7
Nsg8
Nsg9
Nsg10
Nsg11
Nsg12
Nsg13
Nsg14
Nsg15
Nsg16
g17
sg18
Nsg19
Nsg20
Nsg21
Nsg22
S'true'
p840
sg24
Nsg25
Nsg26
S'clopidogrel'
p841
sg28
Nsg29
S'Specific_Interaction'
p842
sg31
Nsg32
Nsg33
Nsg34
Nsg35
Nsg36
Nsg37
S'omeprazole'
p843
sa(dp844
g2
Nsg3
S'http://bio2rdf.org/drugbank:DB06228'
p845
sg5
S'http://bio2rdf.org/drugbank:DB00758'
p846
sg7
Nsg8
Nsg9
Nsg10
Nsg11
Nsg12
Nsg13
Nsg14
Nsg15
Nsg16
g17
sg18
Nsg19
Nsg20
Nsg21
Nsg22
S'true'
p847
sg24
Nsg25
Nsg26
S'clopidogrel'
p848
sg28
Nsg29
S'Specific_Interaction'
p849
sg31
Nsg32
Nsg33
Nsg34
Nsg35
Nsg36
Nsg37
S'XARELTO'
p850
sa(dp851
g2
Nsg3
S'http://bio2rdf.org/drugbank:DB01373'
p852
sg5
S'http://bio2rdf.org/drugbank:DB01136'
p853
sg7
Nsg8
Nsg9
Nsg10
Nsg11
Nsg12
Nsg13
Nsg14
Nsg15
Nsg16
g17
sg18
Nsg19
Nsg20
Nsg21
Nsg22
S'true'
p854
sg24
Nsg25
Nsg26
S'COREG'
p855
sg28
Nsg29
S'Caution_Interaction'
p856
sg31
Nsg32
Nsg33
Nsg34
Nsg35
Nsg36
Nsg37
S'calcium channel blockers'
p857
sa(dp858
g2
Nsg3
S'http://bio2rdf.org/drugbank:DB00343'
p859
sg5
S'http://bio2rdf.org/drugbank:DB01136'
p860
sg7
Nsg8
Nsg9
Nsg10
Nsg11
Nsg12
Nsg13
Nsg14
Nsg15
Nsg16
g17
sg18
Nsg19
Nsg20
Nsg21
Nsg22
S'true'
p861
sg24
Nsg25
Nsg26
S'COREG'
p862
sg28
Nsg29
S'Specific_Interaction'
p863
sg31
Nsg32
Nsg33
Nsg34
Nsg35
Nsg36
Nsg37
S'diltiazem'
p864
sa(dp865
g2
Nsg3
S'http://bio2rdf.org/drugbank:DB00559'
p866
sg5
S'http://bio2rdf.org/drugbank:DB00091'
p867
sg7
Nsg8
Nsg9
Nsg10
Nsg11
Nsg12
Nsg13
Nsg14
Nsg15
Nsg16
g17
sg18
Nsg19
Nsg20
Nsg21
Nsg22
S'true'
p868
sg24
Nsg25
Nsg26
S'cyclosporine A'
p869
sg28
Nsg29
S'Increase_Interaction'
p870
sg31
Nsg32
Nsg33
Nsg34
Nsg35
Nsg36
Nsg37
S'bosentan'
p871
sa(dp872
g2
Nsg3
S'http://bio2rdf.org/drugbank:DB01258'
p873
sg5
S'http://bio2rdf.org/drugbank:DB00091'
p874
sg7
Nsg8
Nsg9
Nsg10
Nsg11
Nsg12
Nsg13
Nsg14
Nsg15
Nsg16
g17
sg18
Nsg19
Nsg20
Nsg21
Nsg22
S'true'
p875
sg24
Nsg25
Nsg26
S'cyclosporine'
p876
sg28
Nsg29
S'Caution_Interaction'
p877
sg31
Nsg32
Nsg33
Nsg34
Nsg35
Nsg36
Nsg37
S'aliskiren'
p878
sa(dp879
g2
Nsg3
S'http://bio2rdf.org/drugbank:DB01258'
p880
sg5
S'http://bio2rdf.org/drugbank:DB00091'
p881
sg7
Nsg8
Nsg9
Nsg10
Nsg11
Nsg12
Nsg13
Nsg14
Nsg15
Nsg16
g17
sg18
Nsg19
Nsg20
Nsg21
Nsg22
S'true'
p882
sg24
Nsg25
Nsg26
S'cyclosporine'
p883
sg28
Nsg29
S'Increase_Interaction'
p884
sg31
Nsg32
Nsg33
Nsg34
Nsg35
Nsg36
Nsg37
S'aliskiren'
p885
sa(dp886
g2
Nsg3
S'http://bio2rdf.org/drugbank:DB00381'
p887
sg5
S'http://bio2rdf.org/drugbank:DB00091'
p888
sg7
Nsg8
Nsg9
Nsg10
Nsg11
Nsg12
Nsg13
Nsg14
Nsg15
Nsg16
g17
sg18
Nsg19
Nsg20
Nsg21
Nsg22
S'true'
p889
sg24
Nsg25
Nsg26
S'cyclosporine'
p890
sg28
Nsg29
S'Increase_Interaction'
p891
sg31
Nsg32
Nsg33
Nsg34
Nsg35
Nsg36
Nsg37
S'amlodipine'
p892
sa(dp893
g2
Nsg3
S'http://bio2rdf.org/drugbank:DB01076'
p894
sg5
S'http://bio2rdf.org/drugbank:DB00091'
p895
sg7
Nsg8
Nsg9
Nsg10
Nsg11
Nsg12
Nsg13
Nsg14
Nsg15
Nsg16
g17
sg18
Nsg19
Nsg20
Nsg21
Nsg22
S'true'
p896
sg24
Nsg25
Nsg26
S'cyclosporine'
p897
sg28
Nsg29
S'Caution_Interaction'
p898
sg31
Nsg32
Nsg33
Nsg34
Nsg35
Nsg36
Nsg37
S'atorvastatin'
p899
sa(dp900
g2
Nsg3
S'http://bio2rdf.org/drugbank:DB01136'
p901
sg5
S'http://bio2rdf.org/drugbank:DB00091'
p902
sg7
Nsg8
Nsg9
Nsg10
Nsg11
Nsg12
Nsg13
Nsg14
Nsg15
Nsg16
g17
sg18
Nsg19
Nsg20
Nsg21
Nsg22
S'true'
p903
sg24
Nsg25
Nsg26
S'cyclosporine'
p904
sg28
Nsg29
S'Caution_Interaction'
p905
sg31
Nsg32
Nsg33
Nsg34
Nsg35
Nsg36
Nsg37
S'carvedilol'
p906
sa(dp907
g2
Nsg3
S'http://bio2rdf.org/drugbank:DB01136'
p908
sg5
S'http://bio2rdf.org/drugbank:DB00091'
p909
sg7
Nsg8
Nsg9
Nsg10
Nsg11
Nsg12
Nsg13
Nsg14
Nsg15
Nsg16
g17
sg18
Nsg19
Nsg20
Nsg21
Nsg22
S'true'
p910
sg24
Nsg25
Nsg26
S'cyclosporine'
p911
sg28
Nsg29
S'Increase_Interaction'
p912
sg31
Nsg32
Nsg33
Nsg34
Nsg35
Nsg36
Nsg37
S'carvedilol'
p913
sa(dp914
g2
Nsg3
S'http://bio2rdf.org/drugbank:DB00343'
p915
sg5
S'http://bio2rdf.org/drugbank:DB00091'
p916
sg7
Nsg8
Nsg9
Nsg10
Nsg11
Nsg12
Nsg13
Nsg14
Nsg15
Nsg16
g17
sg18
Nsg19
Nsg20
Nsg21
Nsg22
S'true'
p917
sg24
Nsg25
Nsg26
S'cyclosporine'
p918
sg28
Nsg29
S'Caution_Interaction'
p919
sg31
Nsg32
Nsg33
Nsg34
Nsg35
Nsg36
Nsg37
S'diltiazem'
p920
sa(dp921
g2
Nsg3
S'http://bio2rdf.org/drugbank:DB00343'
p922
sg5
S'http://bio2rdf.org/drugbank:DB00091'
p923
sg7
Nsg8
Nsg9
Nsg10
Nsg11
Nsg12
Nsg13
Nsg14
Nsg15
Nsg16
g17
sg18
Nsg19
Nsg20
Nsg21
Nsg22
S'true'
p924
sg24
Nsg25
Nsg26
S'cyclosporine'
p925
sg28
Nsg29
S'Increase_Interaction'
p926
sg31
Nsg32
Nsg33
Nsg34
Nsg35
Nsg36
Nsg37
S'diltiazem'
p927
sa(dp928
g2
Nsg3
S'http://bio2rdf.org/drugbank:DB00695'
p929
sg5
S'http://bio2rdf.org/drugbank:DB00091'
p930
sg7
Nsg8
Nsg9
Nsg10
Nsg11
Nsg12
Nsg13
Nsg14
Nsg15
Nsg16
g17
sg18
Nsg19
Nsg20
Nsg21
Nsg22
S'true'
p931
sg24
Nsg25
Nsg26
S'cyclosporine'
p932
sg28
Nsg29
S'Specific_Interaction'
p933
sg31
Nsg32
Nsg33
Nsg34
Nsg35
Nsg36
Nsg37
S'LASIX'
p934
sa(dp935
g2
Nsg3
S'http://bio2rdf.org/drugbank:DB00622'
p936
sg5
S'http://bio2rdf.org/drugbank:DB00091'
p937
sg7
Nsg8
Nsg9
Nsg10
Nsg11
Nsg12
Nsg13
Nsg14
Nsg15
Nsg16
g17
sg18
Nsg19
Nsg20
Nsg21
Nsg22
S'true'
p938
sg24
Nsg25
Nsg26
S'cyclosporine'
p939
sg28
Nsg29
S'Caution_Interaction'
p940
sg31
Nsg32
Nsg33
Nsg34
Nsg35
Nsg36
Nsg37
S'nicardipine'
p941
sa(dp942
g2
Nsg3
S'http://bio2rdf.org/drugbank:DB01118'
p943
sg5
S'http://bio2rdf.org/drugbank:DB06695'
p944
sg7
Nsg8
Nsg9
Nsg10
Nsg11
Nsg12
Nsg13
Nsg14
Nsg15
Nsg16
g17
sg18
Nsg19
Nsg20
Nsg21
Nsg22
S'true'
p945
sg24
Nsg25
Nsg26
S'dabigatran'
p946
sg28
Nsg29
S'Decrease_Interaction'
p947
sg31
Nsg32
Nsg33
Nsg34
Nsg35
Nsg36
Nsg37
S'amiodarone'
p948
sa(dp949
g2
Nsg3
S'http://bio2rdf.org/drugbank:DB04855'
p950
sg5
S'http://bio2rdf.org/drugbank:DB06695'
p951
sg7
Nsg8
Nsg9
Nsg10
Nsg11
Nsg12
Nsg13
Nsg14
Nsg15
Nsg16
g17
sg18
Nsg19
Nsg20
Nsg21
Nsg22
S'true'
p952
sg24
Nsg25
Nsg26
S'dabigatran'
p953
sg28
Nsg29
S'Increase_Interaction'
p954
sg31
Nsg32
Nsg33
Nsg34
Nsg35
Nsg36
Nsg37
S'dronedarone'
p955
sa(dp956
g2
Nsg3
S'http://bio2rdf.org/drugbank:DB01076'
p957
sg5
S'http://bio2rdf.org/drugbank:DB01264'
p958
sg7
Nsg8
Nsg9
Nsg10
Nsg11
Nsg12
Nsg13
Nsg14
Nsg15
Nsg16
g17
sg18
Nsg19
Nsg20
Nsg21
Nsg22
S'true'
p959
sg24
Nsg25
Nsg26
S'darunavir plus ritonavir'
p960
sg28
Nsg29
S'Caution_Interaction'
p961
sg31
Nsg32
Nsg33
Nsg34
Nsg35
Nsg36
Nsg37
S'atorvastatin'
p962
sa(dp963
g2
Nsg3
S'http://bio2rdf.org/drugbank:DB01432'
p964
sg5
S'http://bio2rdf.org/drugbank:DB00214'
p965
sg7
Nsg8
Nsg9
Nsg10
Nsg11
Nsg12
Nsg13
Nsg14
Nsg15
Nsg16
g17
sg18
Nsg19
Nsg20
Nsg21
Nsg22
S'true'
p966
sg24
Nsg25
Nsg26
S'DEMADEX'
p967
sg28
Nsg29
S'Caution_Interaction'
p968
sg31
Nsg32
Nsg33
Nsg34
Nsg35
Nsg36
Nsg37
S'cholestyramine'
p969
sa(dp970
g2
Nsg3
S'http://bio2rdf.org/drugbank:DB00328'
p971
sg5
S'http://bio2rdf.org/drugbank:DB00214'
p972
sg7
Nsg8
Nsg9
Nsg10
Nsg11
Nsg12
Nsg13
Nsg14
Nsg15
Nsg16
g17
sg18
Nsg19
Nsg20
Nsg21
Nsg22
S'true'
p973
sg24
Nsg25
Nsg26
S'DEMADEX'
p974
sg28
Nsg29
S'Specific_Interaction'
p975
sg31
Nsg32
Nsg33
Nsg34
Nsg35
Nsg36
Nsg37
S'indomethacin'
p976
sa(dp977
g2
Nsg3
S'http://bio2rdf.org/drugbank:DB00421'
p978
sg5
S'http://bio2rdf.org/drugbank:DB00214'
p979
sg7
Nsg8
Nsg9
Nsg10
Nsg11
Nsg12
Nsg13
Nsg14
Nsg15
Nsg16
g17
sg18
Nsg19
Nsg20
Nsg21
Nsg22
S'true'
p980
sg24
Nsg25
Nsg26
S'DEMADEX'
p981
sg28
Nsg29
S'Increase_Interaction'
p982
sg31
Nsg32
Nsg33
Nsg34
Nsg35
Nsg36
Nsg37
S'spironolactone'
p983
sa(dp984
g2
Nsg3
S'http://bio2rdf.org/drugbank:DB00898'
p985
sg5
S'http://bio2rdf.org/drugbank:DB00765'
p986
sg7
Nsg8
Nsg9
Nsg10
Nsg11
Nsg12
Nsg13
Nsg14
Nsg15
Nsg16
g17
sg18
Nsg19
Nsg20
Nsg21
Nsg22
S'true'
p987
sg24
Nsg25
Nsg26
S'DEMSER'
p988
sg28
Nsg29
S'Specific_Interaction'
p989
sg31
Nsg32
Nsg33
Nsg34
Nsg35
Nsg36
Nsg37
S'alcohol'
p990
sa(dp991
g2
Nsg3
S'http://bio2rdf.org/drugbank:DB00502'
p992
sg5
S'http://bio2rdf.org/drugbank:DB00765'
p993
sg7
Nsg8
Nsg9
Nsg10
Nsg11
Nsg12
Nsg13
Nsg14
Nsg15
Nsg16
g17
sg18
Nsg19
Nsg20
Nsg21
Nsg22
S'true'
p994
sg24
Nsg25
Nsg26
S'DEMSER'
p995
sg28
Nsg29
S'Specific_Interaction'
p996
sg31
Nsg32
Nsg33
Nsg34
Nsg35
Nsg36
Nsg37
S'haloperidol'
p997
sa(dp998
g2
Nsg3
S'http://bio2rdf.org/drugbank:DB00758'
p999
sg5
S'http://bio2rdf.org/drugbank:DB05351'
p1000
sg7
Nsg8
Nsg9
Nsg10
Nsg11
Nsg12
Nsg13
Nsg14
Nsg15
Nsg16
g17
sg18
Nsg19
Nsg20
Nsg21
Nsg22
S'true'
p1001
sg24
Nsg25
Nsg26
S'Dexlansoprazole'
p1002
sg28
Nsg29
S'Specific_Interaction'
p1003
sg31
Nsg32
Nsg33
Nsg34
Nsg35
Nsg36
Nsg37
S'Plavix'
p1004
sa(dp1005
g2
Nsg3
S'http://bio2rdf.org/drugbank:DB00368'
p1006
sg5
S'http://bio2rdf.org/drugbank:DB00925'
p1007
sg7
Nsg8
Nsg9
Nsg10
Nsg11
Nsg12
Nsg13
Nsg14
Nsg15
Nsg16
g17
sg18
Nsg19
Nsg20
Nsg21
Nsg22
S'true'
p1008
sg24
Nsg25
Nsg26
S'Dibenzyline'
p1009
sg28
Nsg29
S'Specific_Interaction'
p1010
sg31
Nsg32
Nsg33
Nsg34
Nsg35
Nsg36
Nsg37
S'levarterenol'
p1011
sa(dp1012
g2
Nsg3
S'http://bio2rdf.org/drugbank:DB00206'
p1013
sg5
S'http://bio2rdf.org/drugbank:DB00925'
p1014
sg7
Nsg8
Nsg9
Nsg10
Nsg11
Nsg12
Nsg13
Nsg14
Nsg15
Nsg16
g17
sg18
Nsg19
Nsg20
Nsg21
Nsg22
S'true'
p1015
sg24
Nsg25
Nsg26
S'Dibenzyline'
p1016
sg28
Nsg29
S'Specific_Interaction'
p1017
sg31
Nsg32
Nsg33
Nsg34
Nsg35
Nsg36
Nsg37
S'reserpine'
p1018
sa(dp1019
g2
Nsg3
S'http://bio2rdf.org/drugbank:DB00908'
p1020
sg5
S'http://bio2rdf.org/drugbank:DB01396'
p1021
sg7
Nsg8
Nsg9
Nsg10
Nsg11
Nsg12
Nsg13
Nsg14
Nsg15
Nsg16
g17
sg18
Nsg19
Nsg20
Nsg21
Nsg22
S'true'
p1022
sg24
Nsg25
Nsg26
S'digitoxin'
p1023
sg28
Nsg29
S'Increase_Interaction'
p1024
sg31
Nsg32
Nsg33
Nsg34
Nsg35
Nsg36
Nsg37
S'quinidine'
p1025
sa(dp1026
g2
Nsg3
S'http://bio2rdf.org/drugbank:DB00640'
p1027
sg5
S'http://bio2rdf.org/drugbank:DB00390'
p1028
sg7
Nsg8
Nsg9
Nsg10
Nsg11
Nsg12
Nsg13
Nsg14
Nsg15
Nsg16
g17
sg18
Nsg19
Nsg20
Nsg21
Nsg22
S'true'
p1029
sg24
Nsg25
Nsg26
S'Digoxin'
p1030
sg28
Nsg29
S'Specific_Interaction'
p1031
sg31
Nsg32
Nsg33
Nsg34
Nsg35
Nsg36
Nsg37
S'Adenocard'
p1032
sa(dp1033
g2
Nsg3
S'http://bio2rdf.org/drugbank:DB00622'
p1034
sg5
S'http://bio2rdf.org/drugbank:DB00390'
p1035
sg7
Nsg8
Nsg9
Nsg10
Nsg11
Nsg12
Nsg13
Nsg14
Nsg15
Nsg16
g17
sg18
Nsg19
Nsg20
Nsg21
Nsg22
S'true'
p1036
sg24
Nsg25
Nsg26
S'digoxin'
p1037
sg28
Nsg29
S'Caution_Interaction'
p1038
sg31
Nsg32
Nsg33
Nsg34
Nsg35
Nsg36
Nsg37
S'CARDENE'
p1039
sa(dp1040
g2
Nsg3
S'http://bio2rdf.org/drugbank:DB00343'
p1041
sg5
S'http://bio2rdf.org/drugbank:DB00390'
p1042
sg7
Nsg8
Nsg9
Nsg10
Nsg11
Nsg12
Nsg13
Nsg14
Nsg15
Nsg16
g17
sg18
Nsg19
Nsg20
Nsg21
Nsg22
S'true'
p1043
sg24
Nsg25
Nsg26
S'digoxin'
p1044
sg28
Nsg29
S'Caution_Interaction'
p1045
sg31
Nsg32
Nsg33
Nsg34
Nsg35
Nsg36
Nsg37
S'CARDIZEM'
p1046
sa(dp1047
g2
Nsg3
S'http://bio2rdf.org/drugbank:DB01136'
p1048
sg5
S'http://bio2rdf.org/drugbank:DB00390'
p1049
sg7
Nsg8
Nsg9
Nsg10
Nsg11
Nsg12
Nsg13
Nsg14
Nsg15
Nsg16
g17
sg18
Nsg19
Nsg20
Nsg21
Nsg22
S'true'
p1050
sg24
Nsg25
Nsg26
S'digoxin'
p1051
sg28
Nsg29
S'Caution_Interaction'
p1052
sg31
Nsg32
Nsg33
Nsg34
Nsg35
Nsg36
Nsg37
S'carvedilol'
p1053
sa(dp1054
g2
Nsg3
S'http://bio2rdf.org/drugbank:DB01136'
p1055
sg5
S'http://bio2rdf.org/drugbank:DB00390'
p1056
sg7
Nsg8
Nsg9
Nsg10
Nsg11
Nsg12
Nsg13
Nsg14
Nsg15
Nsg16
g17
sg18
Nsg19
Nsg20
Nsg21
Nsg22
S'true'
p1057
sg24
Nsg25
Nsg26
S'Digoxin'
p1058
sg28
Nsg29
S'Increase_Interaction'
p1059
sg31
Nsg32
Nsg33
Nsg34
Nsg35
Nsg36
Nsg37
S'carvedilol'
p1060
sa(dp1061
g2
Nsg3
S'http://bio2rdf.org/drugbank:DB01136'
p1062
sg5
S'http://bio2rdf.org/drugbank:DB00390'
p1063
sg7
Nsg8
Nsg9
Nsg10
Nsg11
Nsg12
Nsg13
Nsg14
Nsg15
Nsg16
g17
sg18
Nsg19
Nsg20
Nsg21
Nsg22
S'true'
p1064
sg24
Nsg25
Nsg26
S'digoxin'
p1065
sg28
Nsg29
S'Caution_Interaction'
p1066
sg31
Nsg32
Nsg33
Nsg34
Nsg35
Nsg36
Nsg37
S'COREG'
p1067
sa(dp1068
g2
Nsg3
S'http://bio2rdf.org/drugbank:DB00204'
p1069
sg5
S'http://bio2rdf.org/drugbank:DB00390'
p1070
sg7
Nsg8
Nsg9
Nsg10
Nsg11
Nsg12
Nsg13
Nsg14
Nsg15
Nsg16
g17
sg18
Nsg19
Nsg20
Nsg21
Nsg22
S'true'
p1071
sg24
Nsg25
Nsg26
S'digoxin'
p1072
sg28
Nsg29
S'Specific_Interaction'
p1073
sg31
Nsg32
Nsg33
Nsg34
Nsg35
Nsg36
Nsg37
S'dofetilide'
p1074
sa(dp1075
g2
Nsg3
S'http://bio2rdf.org/drugbank:DB04855'
p1076
sg5
S'http://bio2rdf.org/drugbank:DB00390'
p1077
sg7
Nsg8
Nsg9
Nsg10
Nsg11
Nsg12
Nsg13
Nsg14
Nsg15
Nsg16
g17
sg18
Nsg19
Nsg20
Nsg21
Nsg22
S'true'
p1078
sg24
Nsg25
Nsg26
S'Digoxin'
p1079
sg28
Nsg29
S'Specific_Interaction'
p1080
sg31
Nsg32
Nsg33
Nsg34
Nsg35
Nsg36
Nsg37
S'dronedarone'
p1081
sa(dp1082
g2
Nsg3
S'http://bio2rdf.org/drugbank:DB01240'
p1083
sg5
S'http://bio2rdf.org/drugbank:DB00390'
p1084
sg7
Nsg8
Nsg9
Nsg10
Nsg11
Nsg12
Nsg13
Nsg14
Nsg15
Nsg16
g17
sg18
Nsg19
Nsg20
Nsg21
Nsg22
S'true'
p1085
sg24
Nsg25
Nsg26
S'digoxin'
p1086
sg28
Nsg29
S'Increase_Interaction'
p1087
sg31
Nsg32
Nsg33
Nsg34
Nsg35
Nsg36
Nsg37
S'epoprostenol'
p1088
sa(dp1089
g2
Nsg3
S'http://bio2rdf.org/drugbank:DB01240'
p1090
sg5
S'http://bio2rdf.org/drugbank:DB00390'
p1091
sg7
Nsg8
Nsg9
Nsg10
Nsg11
Nsg12
Nsg13
Nsg14
Nsg15
Nsg16
g17
sg18
Nsg19
Nsg20
Nsg21
Nsg22
S'true'
p1092
sg24
Nsg25
Nsg26
S'digoxin'
p1093
sg28
Nsg29
S'Increase_Interaction'
p1094
sg31
Nsg32
Nsg33
Nsg34
Nsg35
Nsg36
Nsg37
S'FLOLAN'
p1095
sa(dp1096
g2
Nsg3
S'http://bio2rdf.org/drugbank:DB01115'
p1097
sg5
S'http://bio2rdf.org/drugbank:DB00390'
p1098
sg7
Nsg8
Nsg9
Nsg10
Nsg11
Nsg12
Nsg13
Nsg14
Nsg15
Nsg16
g17
sg18
Nsg19
Nsg20
Nsg21
Nsg22
S'true'
p1099
sg24
Nsg25
Nsg26
S'digoxin'
p1100
sg28
Nsg29
S'Caution_Interaction'
p1101
sg31
Nsg32
Nsg33
Nsg34
Nsg35
Nsg36
Nsg37
S'nifedipine'
p1102
sa(dp1103
g2
Nsg3
S'http://bio2rdf.org/drugbank:DB01115'
p1104
sg5
S'http://bio2rdf.org/drugbank:DB00390'
p1105
sg7
Nsg8
Nsg9
Nsg10
Nsg11
Nsg12
Nsg13
Nsg14
Nsg15
Nsg16
g17
sg18
Nsg19
Nsg20
Nsg21
Nsg22
S'true'
p1106
sg24
Nsg25
Nsg26
S'digoxin'
p1107
sg28
Nsg29
S'Increase_Interaction'
p1108
sg31
Nsg32
Nsg33
Nsg34
Nsg35
Nsg36
Nsg37
S'nifedipine'
p1109
sa(dp1110
g2
Nsg3
S'http://bio2rdf.org/drugbank:DB00966'
p1111
sg5
S'http://bio2rdf.org/drugbank:DB00390'
p1112
sg7
Nsg8
Nsg9
Nsg10
Nsg11
Nsg12
Nsg13
Nsg14
Nsg15
Nsg16
g17
sg18
Nsg19
Nsg20
Nsg21
Nsg22
S'true'
p1113
sg24
Nsg25
Nsg26
S'digoxin'
p1114
sg28
Nsg29
S'Caution_Interaction'
p1115
sg31
Nsg32
Nsg33
Nsg34
Nsg35
Nsg36
Nsg37
S'telmisartan'
p1116
sa(dp1117
g2
Nsg3
S'http://bio2rdf.org/drugbank:DB00214'
p1118
sg5
S'http://bio2rdf.org/drugbank:DB00390'
p1119
sg7
Nsg8
Nsg9
Nsg10
Nsg11
Nsg12
Nsg13
Nsg14
Nsg15
Nsg16
g17
sg18
Nsg19
Nsg20
Nsg21
Nsg22
S'true'
p1120
sg24
Nsg25
Nsg26
S'digoxin'
p1121
sg28
Nsg29
S'Increase_Interaction'
p1122
sg31
Nsg32
Nsg33
Nsg34
Nsg35
Nsg36
Nsg37
S'torsemide'
p1123
sa(dp1124
g2
Nsg3
S'http://bio2rdf.org/drugbank:DB00661'
p1125
sg5
S'http://bio2rdf.org/drugbank:DB00390'
p1126
sg7
Nsg8
Nsg9
Nsg10
Nsg11
Nsg12
Nsg13
Nsg14
Nsg15
Nsg16
g17
sg18
Nsg19
Nsg20
Nsg21
Nsg22
S'true'
p1127
sg24
Nsg25
Nsg26
S'digoxin'
p1128
sg28
Nsg29
S'Caution_Interaction'
p1129
sg31
Nsg32
Nsg33
Nsg34
Nsg35
Nsg36
Nsg37
S'verapamil'
p1130
sa(dp1131
g2
Nsg3
S'http://bio2rdf.org/drugbank:DB00203'
p1132
sg5
S'http://bio2rdf.org/drugbank:DB00883'
p1133
sg7
Nsg8
Nsg9
Nsg10
Nsg11
Nsg12
Nsg13
Nsg14
Nsg15
Nsg16
g17
sg18
Nsg19
Nsg20
Nsg21
Nsg22
S'true'
p1134
sg24
Nsg25
Nsg26
S'dilatrate - SR'
p1135
sg28
Nsg29
S'Specific_Interaction'
p1136
sg31
Nsg32
Nsg33
Nsg34
Nsg35
Nsg36
Nsg37
S'sildenafil'
p1137
sa(dp1138
g2
Nsg3
S'http://bio2rdf.org/drugbank:DB00381'
p1139
sg5
S'http://bio2rdf.org/drugbank:DB00343'
p1140
sg7
Nsg8
Nsg9
Nsg10
Nsg11
Nsg12
Nsg13
Nsg14
Nsg15
Nsg16
g17
sg18
Nsg19
Nsg20
Nsg21
Nsg22
S'true'
p1141
sg24
Nsg25
Nsg26
S'diltiazem'
p1142
sg28
Nsg29
S'Increase_Interaction'
p1143
sg31
Nsg32
Nsg33
Nsg34
Nsg35
Nsg36
Nsg37
S'amlodipine'
p1144
sa(dp1145
g2
Nsg3
S'http://bio2rdf.org/drugbank:DB00490'
p1146
sg5
S'http://bio2rdf.org/drugbank:DB00343'
p1147
sg7
Nsg8
Nsg9
Nsg10
Nsg11
Nsg12
Nsg13
Nsg14
Nsg15
Nsg16
g17
sg18
Nsg19
Nsg20
Nsg21
Nsg22
S'true'
p1148
sg24
Nsg25
Nsg26
S'diltiazem'
p1149
sg28
Nsg29
S'Increase_Interaction'
p1150
sg31
Nsg32
Nsg33
Nsg34
Nsg35
Nsg36
Nsg37
S'buspirone'
p1151
sa(dp1152
g2
Nsg3
S'http://bio2rdf.org/drugbank:DB00564'
p1153
sg5
S'http://bio2rdf.org/drugbank:DB00343'
p1154
sg7
Nsg8
Nsg9
Nsg10
Nsg11
Nsg12
Nsg13
Nsg14
Nsg15
Nsg16
g17
sg18
Nsg19
Nsg20
Nsg21
Nsg22
S'true'
p1155
sg24
Nsg25
Nsg26
S'diltiazem'
p1156
sg28
Nsg29
S'Increase_Interaction'
p1157
sg31
Nsg32
Nsg33
Nsg34
Nsg35
Nsg36
Nsg37
S'carbamazepine'
p1158
sa(dp1159
g2
Nsg3
S'http://bio2rdf.org/drugbank:DB00501'
p1160
sg5
S'http://bio2rdf.org/drugbank:DB00343'
p1161
sg7
Nsg8
Nsg9
Nsg10
Nsg11
Nsg12
Nsg13
Nsg14
Nsg15
Nsg16
g17
sg18
Nsg19
Nsg20
Nsg21
Nsg22
S'true'
p1162
sg24
Nsg25
Nsg26
S'diltiazem'
p1163
sg28
Nsg29
S'Caution_Interaction'
p1164
sg31
Nsg32
Nsg33
Nsg34
Nsg35
Nsg36
Nsg37
S'cimetidine'
p1165
sa(dp1166
g2
Nsg3
S'http://bio2rdf.org/drugbank:DB00501'
p1167
sg5
S'http://bio2rdf.org/drugbank:DB00343'
p1168
sg7
Nsg8
Nsg9
Nsg10
Nsg11
Nsg12
Nsg13
Nsg14
Nsg15
Nsg16
g17
sg18
Nsg19
Nsg20
Nsg21
Nsg22
S'true'
p1169
sg24
Nsg25
Nsg26
S'diltiazem'
p1170
sg28
Nsg29
S'Increase_Interaction'
p1171
sg31
Nsg32
Nsg33
Nsg34
Nsg35
Nsg36
Nsg37
S'cimetidine'
p1172
sa(dp1173
g2
Nsg3
S'http://bio2rdf.org/drugbank:DB00575'
p1174
sg5
S'http://bio2rdf.org/drugbank:DB00343'
p1175
sg7
Nsg8
Nsg9
Nsg10
Nsg11
Nsg12
Nsg13
Nsg14
Nsg15
Nsg16
g17
sg18
Nsg19
Nsg20
Nsg21
Nsg22
S'true'
p1176
sg24
Nsg25
Nsg26
S'diltiazem'
p1177
sg28
Nsg29
S'Caution_Interaction'
p1178
sg31
Nsg32
Nsg33
Nsg34
Nsg35
Nsg36
Nsg37
S'clonidine'
p1179
sa(dp1180
g2
Nsg3
S'http://bio2rdf.org/drugbank:DB00091'
p1181
sg5
S'http://bio2rdf.org/drugbank:DB00343'
p1182
sg7
Nsg8
Nsg9
Nsg10
Nsg11
Nsg12
Nsg13
Nsg14
Nsg15
Nsg16
g17
sg18
Nsg19
Nsg20
Nsg21
Nsg22
S'true'
p1183
sg24
Nsg25
Nsg26
S'diltiazem'
p1184
sg28
Nsg29
S'Specific_Interaction'
p1185
sg31
Nsg32
Nsg33
Nsg34
Nsg35
Nsg36
Nsg37
S'cyclosporine'
p1186
sa(dp1187
g2
Nsg3
S'http://bio2rdf.org/drugbank:DB04855'
p1188
sg5
S'http://bio2rdf.org/drugbank:DB00343'
p1189
sg7
Nsg8
Nsg9
Nsg10
Nsg11
Nsg12
Nsg13
Nsg14
Nsg15
Nsg16
g17
sg18
Nsg19
Nsg20
Nsg21
Nsg22
S'true'
p1190
sg24
Nsg25
Nsg26
S'diltiazem'
p1191
sg28
Nsg29
S'Increase_Interaction'
p1192
sg31
Nsg32
Nsg33
Nsg34
Nsg35
Nsg36
Nsg37
S'dronedarone'
p1193
sa(dp1194
g2
Nsg3
S'http://bio2rdf.org/drugbank:DB00683'
p1195
sg5
S'http://bio2rdf.org/drugbank:DB00343'
p1196
sg7
Nsg8
Nsg9
Nsg10
Nsg11
Nsg12
Nsg13
Nsg14
Nsg15
Nsg16
g17
sg18
Nsg19
Nsg20
Nsg21
Nsg22
S'true'
p1197
sg24
Nsg25
Nsg26
S'diltiazem'
p1198
sg28
Nsg29
S'Increase_Interaction'
p1199
sg31
Nsg32
Nsg33
Nsg34
Nsg35
Nsg36
Nsg37
S'midazolam'
p1200
sa(dp1201
g2
Nsg3
S'http://bio2rdf.org/drugbank:DB00683'
p1202
sg5
S'http://bio2rdf.org/drugbank:DB00343'
p1203
sg7
Nsg8
Nsg9
Nsg10
Nsg11
Nsg12
Nsg13
Nsg14
Nsg15
Nsg16
g17
sg18
Nsg19
Nsg20
Nsg21
Nsg22
S'true'
p1204
sg24
Nsg25
Nsg26
S'diltiazem'
p1205
sg28
Nsg29
S'Specific_Interaction'
p1206
sg31
Nsg32
Nsg33
Nsg34
Nsg35
Nsg36
Nsg37
S'midazolam'
p1207
sa(dp1208
g2
Nsg3
S'http://bio2rdf.org/drugbank:DB00908'
p1209
sg5
S'http://bio2rdf.org/drugbank:DB00343'
p1210
sg7
Nsg8
Nsg9
Nsg10
Nsg11
Nsg12
Nsg13
Nsg14
Nsg15
Nsg16
g17
sg18
Nsg19
Nsg20
Nsg21
Nsg22
S'true'
p1211
sg24
Nsg25
Nsg26
S'Diltiazem'
p1212
sg28
Nsg29
S'Increase_Interaction'
p1213
sg31
Nsg32
Nsg33
Nsg34
Nsg35
Nsg36
Nsg37
S'quinidine'
p1214
sa(dp1215
g2
Nsg3
S'http://bio2rdf.org/drugbank:DB01045'
p1216
sg5
S'http://bio2rdf.org/drugbank:DB00343'
p1217
sg7
Nsg8
Nsg9
Nsg10
Nsg11
Nsg12
Nsg13
Nsg14
Nsg15
Nsg16
g17
sg18
Nsg19
Nsg20
Nsg21
Nsg22
S'true'
p1218
sg24
Nsg25
Nsg26
S'diltiazem'
p1219
sg28
Nsg29
S'Caution_Interaction'
p1220
sg31
Nsg32
Nsg33
Nsg34
Nsg35
Nsg36
Nsg37
S'rifampin'
p1221
sa(dp1222
g2
Nsg3
S'http://bio2rdf.org/drugbank:DB00641'
p1223
sg5
S'http://bio2rdf.org/drugbank:DB00343'
p1224
sg7
Nsg8
Nsg9
Nsg10
Nsg11
Nsg12
Nsg13
Nsg14
Nsg15
Nsg16
g17
sg18
Nsg19
Nsg20
Nsg21
Nsg22
S'true'
p1225
sg24
Nsg25
Nsg26
S'diltiazem'
p1226
sg28
Nsg29
S'Increase_Interaction'
p1227
sg31
Nsg32
Nsg33
Nsg34
Nsg35
Nsg36
Nsg37
S'simvastatin'
p1228
sa(dp1229
g2
Nsg3
S'http://bio2rdf.org/drugbank:DB00897'
p1230
sg5
S'http://bio2rdf.org/drugbank:DB00343'
p1231
sg7
Nsg8
Nsg9
Nsg10
Nsg11
Nsg12
Nsg13
Nsg14
Nsg15
Nsg16
g17
sg18
Nsg19
Nsg20
Nsg21
Nsg22
S'true'
p1232
sg24
Nsg25
Nsg26
S'diltiazem'
p1233
sg28
Nsg29
S'Increase_Interaction'
p1234
sg31
Nsg32
Nsg33
Nsg34
Nsg35
Nsg36
Nsg37
S'triazolam'
p1235
sa(dp1236
g2
Nsg3
S'http://bio2rdf.org/drugbank:DB00897'
p1237
sg5
S'http://bio2rdf.org/drugbank:DB00343'
p1238
sg7
Nsg8
Nsg9
Nsg10
Nsg11
Nsg12
Nsg13
Nsg14
Nsg15
Nsg16
g17
sg18
Nsg19
Nsg20
Nsg21
Nsg22
S'true'
p1239
sg24
Nsg25
Nsg26
S'diltiazem'
p1240
sg28
Nsg29
S'Specific_Interaction'
p1241
sg31
Nsg32
Nsg33
Nsg34
Nsg35
Nsg36
Nsg37
S'triazolam'
p1242
sa(dp1243
g2
Nsg3
S'http://bio2rdf.org/drugbank:DB00390'
p1244
sg5
S'http://bio2rdf.org/drugbank:DB01081'
p1245
sg7
Nsg8
Nsg9
Nsg10
Nsg11
Nsg12
Nsg13
Nsg14
Nsg15
Nsg16
g17
sg18
Nsg19
Nsg20
Nsg21
Nsg22
S'true'
p1246
sg24
Nsg25
Nsg26
S'diphenoxylate'
p1247
sg28
Nsg29
S'Increase_Interaction'
p1248
sg31
Nsg32
Nsg33
Nsg34
Nsg35
Nsg36
Nsg37
S'digoxin'
p1249
sa(dp1250
g2
Nsg3
S'http://bio2rdf.org/drugbank:DB00640'
p1251
sg5
S'http://bio2rdf.org/drugbank:DB00975'
p1252
sg7
Nsg8
Nsg9
Nsg10
Nsg11
Nsg12
Nsg13
Nsg14
Nsg15
Nsg16
g17
sg18
Nsg19
Nsg20
Nsg21
Nsg22
S'true'
p1253
sg24
Nsg25
Nsg26
S'Dipyridamole'
p1254
sg28
Nsg29
S'Increase_Interaction'
p1255
sg31
Nsg32
Nsg33
Nsg34
Nsg35
Nsg36
Nsg37
S'adenosine'
p1256
sa(dp1257
g2
Nsg3
S'http://bio2rdf.org/drugbank:DB01211'
p1258
sg5
S'http://bio2rdf.org/drugbank:DB00280'
p1259
sg7
Nsg8
Nsg9
Nsg10
Nsg11
Nsg12
Nsg13
Nsg14
Nsg15
Nsg16
g17
sg18
Nsg19
Nsg20
Nsg21
Nsg22
S'true'
p1260
sg24
Nsg25
Nsg26
S'disopyramide'
p1261
sg28
Nsg29
S'Caution_Interaction'
p1262
sg31
Nsg32
Nsg33
Nsg34
Nsg35
Nsg36
Nsg37
S'clarithromycin'
p1263
sa(dp1264
g2
Nsg3
S'http://bio2rdf.org/drugbank:DB00199'
p1265
sg5
S'http://bio2rdf.org/drugbank:DB00280'
p1266
sg7
Nsg8
Nsg9
Nsg10
Nsg11
Nsg12
Nsg13
Nsg14
Nsg15
Nsg16
g17
sg18
Nsg19
Nsg20
Nsg21
Nsg22
S'true'
p1267
sg24
Nsg25
Nsg26
S'disopyramide'
p1268
sg28
Nsg29
S'Caution_Interaction'
p1269
sg31
Nsg32
Nsg33
Nsg34
Nsg35
Nsg36
Nsg37
S'erythromycin'
p1270
sa(dp1271
g2
Nsg3
S'http://bio2rdf.org/drugbank:DB01195'
p1272
sg5
S'http://bio2rdf.org/drugbank:DB00280'
p1273
sg7
Nsg8
Nsg9
Nsg10
Nsg11
Nsg12
Nsg13
Nsg14
Nsg15
Nsg16
g17
sg18
Nsg19
Nsg20
Nsg21
Nsg22
S'true'
p1274
sg24
Nsg25
Nsg26
S'disopyramide'
p1275
sg28
Nsg29
S'Caution_Interaction'
p1276
sg31
Nsg32
Nsg33
Nsg34
Nsg35
Nsg36
Nsg37
S'TAMBOCOR'
p1277
sa(dp1278
g2
Nsg3
S'http://bio2rdf.org/drugbank:DB00661'
p1279
sg5
S'http://bio2rdf.org/drugbank:DB00280'
p1280
sg7
Nsg8
Nsg9
Nsg10
Nsg11
Nsg12
Nsg13
Nsg14
Nsg15
Nsg16
g17
sg18
Nsg19
Nsg20
Nsg21
Nsg22
S'true'
p1281
sg24
Nsg25
Nsg26
S'disopyramide'
p1282
sg28
Nsg29
S'Caution_Interaction'
p1283
sg31
Nsg32
Nsg33
Nsg34
Nsg35
Nsg36
Nsg37
S'verapamil'
p1284
sa(dp1285
g2
Nsg3
S'http://bio2rdf.org/drugbank:DB00325'
p1286
sg5
S'http://bio2rdf.org/drugbank:DB00841'
p1287
sg7
Nsg8
Nsg9
Nsg10
Nsg11
Nsg12
Nsg13
Nsg14
Nsg15
Nsg16
g17
sg18
Nsg19
Nsg20
Nsg21
Nsg22
S'true'
p1288
sg24
Nsg25
Nsg26
S'dobutamine'
p1289
sg28
Nsg29
S'Specific_Interaction'
p1290
sg31
Nsg32
Nsg33
Nsg34
Nsg35
Nsg36
Nsg37
S'nitroprusside'
p1291
sa(dp1292
g2
Nsg3
S'http://bio2rdf.org/drugbank:DB00661'
p1293
sg5
S'http://bio2rdf.org/drugbank:DB00997'
p1294
sg7
Nsg8
Nsg9
Nsg10
Nsg11
Nsg12
Nsg13
Nsg14
Nsg15
Nsg16
g17
sg18
Nsg19
Nsg20
Nsg21
Nsg22
S'true'
p1295
sg24
Nsg25
Nsg26
S'doxorubicin'
p1296
sg28
Nsg29
S'Increase_Interaction'
p1297
sg31
Nsg32
Nsg33
Nsg34
Nsg35
Nsg36
Nsg37
S'verapamil'
p1298
sa(dp1299
g2
Nsg3
S'http://bio2rdf.org/drugbank:DB01373'
p1300
sg5
S'http://bio2rdf.org/drugbank:DB04855'
p1301
sg7
Nsg8
Nsg9
Nsg10
Nsg11
Nsg12
Nsg13
Nsg14
Nsg15
Nsg16
g17
sg18
Nsg19
Nsg20
Nsg21
Nsg22
S'true'
p1302
sg24
Nsg25
Nsg26
S'Dronedarone'
p1303
sg28
Nsg29
S'Increase_Interaction'
p1304
sg31
Nsg32
Nsg33
Nsg34
Nsg35
Nsg36
Nsg37
S'calcium channel blockers'
p1305
sa(dp1306
g2
Nsg3
S'http://bio2rdf.org/drugbank:DB06695'
p1307
sg5
S'http://bio2rdf.org/drugbank:DB04855'
p1308
sg7
Nsg8
Nsg9
Nsg10
Nsg11
Nsg12
Nsg13
Nsg14
Nsg15
Nsg16
g17
sg18
Nsg19
Nsg20
Nsg21
Nsg22
S'true'
p1309
sg24
Nsg25
Nsg26
S'dronedarone'
p1310
sg28
Nsg29
S'Increase_Interaction'
p1311
sg31
Nsg32
Nsg33
Nsg34
Nsg35
Nsg36
Nsg37
S'dabigatran etexilate'
p1312
sa(dp1313
g2
Nsg3
S'http://bio2rdf.org/drugbank:DB06695'
p1314
sg5
S'http://bio2rdf.org/drugbank:DB04855'
p1315
sg7
Nsg8
Nsg9
Nsg10
Nsg11
Nsg12
Nsg13
Nsg14
Nsg15
Nsg16
g17
sg18
Nsg19
Nsg20
Nsg21
Nsg22
S'true'
p1316
sg24
Nsg25
Nsg26
S'dronedarone'
p1317
sg28
Nsg29
S'Increase_Interaction'
p1318
sg31
Nsg32
Nsg33
Nsg34
Nsg35
Nsg36
Nsg37
S'dabigatran'
p1319
sa(dp1320
g2
Nsg3
S'http://bio2rdf.org/drugbank:DB00390'
p1321
sg5
S'http://bio2rdf.org/drugbank:DB04855'
p1322
sg7
Nsg8
Nsg9
Nsg10
Nsg11
Nsg12
Nsg13
Nsg14
Nsg15
Nsg16
g17
sg18
Nsg19
Nsg20
Nsg21
Nsg22
S'true'
p1323
sg24
Nsg25
Nsg26
S'Dronedarone'
p1324
sg28
Nsg29
S'Increase_Interaction'
p1325
sg31
Nsg32
Nsg33
Nsg34
Nsg35
Nsg36
Nsg37
S'digoxin'
p1326
sa(dp1327
g2
Nsg3
S'http://bio2rdf.org/drugbank:DB00264'
p1328
sg5
S'http://bio2rdf.org/drugbank:DB04855'
p1329
sg7
Nsg8
Nsg9
Nsg10
Nsg11
Nsg12
Nsg13
Nsg14
Nsg15
Nsg16
g17
sg18
Nsg19
Nsg20
Nsg21
Nsg22
S'true'
p1330
sg24
Nsg25
Nsg26
S'Dronedarone'
p1331
sg28
Nsg29
S'Increase_Interaction'
p1332
sg31
Nsg32
Nsg33
Nsg34
Nsg35
Nsg36
Nsg37
S'metoprolol'
p1333
sa(dp1334
g2
Nsg3
S'http://bio2rdf.org/drugbank:DB06695'
p1335
sg5
S'http://bio2rdf.org/drugbank:DB04855'
p1336
sg7
Nsg8
Nsg9
Nsg10
Nsg11
Nsg12
Nsg13
Nsg14
Nsg15
Nsg16
g17
sg18
Nsg19
Nsg20
Nsg21
Nsg22
S'true'
p1337
sg24
Nsg25
Nsg26
S'dronedarone'
p1338
sg28
Nsg29
S'Caution_Interaction'
p1339
sg31
Nsg32
Nsg33
Nsg34
Nsg35
Nsg36
Nsg37
S'PRADAXA'
p1340
sa(dp1341
g2
Nsg3
S'http://bio2rdf.org/drugbank:DB00571'
p1342
sg5
S'http://bio2rdf.org/drugbank:DB04855'
p1343
sg7
Nsg8
Nsg9
Nsg10
Nsg11
Nsg12
Nsg13
Nsg14
Nsg15
Nsg16
g17
sg18
Nsg19
Nsg20
Nsg21
Nsg22
S'true'
p1344
sg24
Nsg25
Nsg26
S'Dronedarone'
p1345
sg28
Nsg29
S'Increase_Interaction'
p1346
sg31
Nsg32
Nsg33
Nsg34
Nsg35
Nsg36
Nsg37
S'propranolol'
p1347
sa(dp1348
g2
Nsg3
S'http://bio2rdf.org/drugbank:DB00641'
p1349
sg5
S'http://bio2rdf.org/drugbank:DB04855'
p1350
sg7
Nsg8
Nsg9
Nsg10
Nsg11
Nsg12
Nsg13
Nsg14
Nsg15
Nsg16
g17
sg18
Nsg19
Nsg20
Nsg21
Nsg22
S'true'
p1351
sg24
Nsg25
Nsg26
S'Dronedarone'
p1352
sg28
Nsg29
S'Increase_Interaction'
p1353
sg31
Nsg32
Nsg33
Nsg34
Nsg35
Nsg36
Nsg37
S'simvastatin'
p1354
sa(dp1355
g2
Nsg3
S'http://bio2rdf.org/drugbank:DB00682'
p1356
sg5
S'http://bio2rdf.org/drugbank:DB04855'
p1357
sg7
Nsg8
Nsg9
Nsg10
Nsg11
Nsg12
Nsg13
Nsg14
Nsg15
Nsg16
g17
sg18
Nsg19
Nsg20
Nsg21
Nsg22
S'true'
p1358
sg24
Nsg25
Nsg26
S'dronedarone'
p1359
sg28
Nsg29
S'Increase_Interaction'
p1360
sg31
Nsg32
Nsg33
Nsg34
Nsg35
Nsg36
Nsg37
S'S-warfarin'
p1361
sa(dp1362
g2
Nsg3
S'http://bio2rdf.org/drugbank:DB00682'
p1363
sg5
S'http://bio2rdf.org/drugbank:DB04855'
p1364
sg7
Nsg8
Nsg9
Nsg10
Nsg11
Nsg12
Nsg13
Nsg14
Nsg15
Nsg16
g17
sg18
Nsg19
Nsg20
Nsg21
Nsg22
S'true'
p1365
sg24
Nsg25
Nsg26
S'dronedarone'
p1366
sg28
Nsg29
S'Caution_Interaction'
p1367
sg31
Nsg32
Nsg33
Nsg34
Nsg35
Nsg36
Nsg37
S'warfarin'
p1368
sa(dp1369
g2
Nsg3
S'http://bio2rdf.org/drugbank:DB00682'
p1370
sg5
S'http://bio2rdf.org/drugbank:DB06209'
p1371
sg7
Nsg8
Nsg9
Nsg10
Nsg11
Nsg12
Nsg13
Nsg14
Nsg15
Nsg16
g17
sg18
Nsg19
Nsg20
Nsg21
Nsg22
S'true'
p1372
sg24
Nsg25
Nsg26
S'Effient'
p1373
sg28
Nsg29
S'Specific_Interaction'
p1374
sg31
Nsg32
Nsg33
Nsg34
Nsg35
Nsg36
Nsg37
S'warfarin'
p1375
sa(dp1376
g2
Nsg3
S'http://bio2rdf.org/drugbank:DB01356'
p1377
sg5
S'http://bio2rdf.org/drugbank:DB00584'
p1378
sg7
Nsg8
Nsg9
Nsg10
Nsg11
Nsg12
Nsg13
Nsg14
Nsg15
Nsg16
g17
sg18
Nsg19
Nsg20
Nsg21
Nsg22
S'true'
p1379
sg24
Nsg25
Nsg26
S'enalapril'
p1380
sg28
Nsg29
S'Caution_Interaction'
p1381
sg31
Nsg32
Nsg33
Nsg34
Nsg35
Nsg36
Nsg37
S'lithium'
p1382
sa(dp1383
g2
Nsg3
S'http://bio2rdf.org/drugbank:DB06228'
p1384
sg5
S'http://bio2rdf.org/drugbank:DB01225'
p1385
sg7
Nsg8
Nsg9
Nsg10
Nsg11
Nsg12
Nsg13
Nsg14
Nsg15
Nsg16
g17
sg18
Nsg19
Nsg20
Nsg21
Nsg22
S'true'
p1386
sg24
Nsg25
Nsg26
S'enoxaparin'
p1387
sg28
Nsg29
S'Specific_Interaction'
p1388
sg31
Nsg32
Nsg33
Nsg34
Nsg35
Nsg36
Nsg37
S'XARELTO'
p1389
sa(dp1390
g2
Nsg3
S'http://bio2rdf.org/drugbank:DB00571'
p1391
sg5
S'http://bio2rdf.org/drugbank:DB00668'
p1392
sg7
Nsg8
Nsg9
Nsg10
Nsg11
Nsg12
Nsg13
Nsg14
Nsg15
Nsg16
g17
sg18
Nsg19
Nsg20
Nsg21
Nsg22
S'true'
p1393
sg24
Nsg25
Nsg26
S'Epinephrine'
p1394
sg28
Nsg29
S'Caution_Interaction'
p1395
sg31
Nsg32
Nsg33
Nsg34
Nsg35
Nsg36
Nsg37
S'propranolol'
p1396
sa(dp1397
g2
Nsg3
S'http://bio2rdf.org/drugbank:DB00390'
p1398
sg5
S'http://bio2rdf.org/drugbank:DB01240'
p1399
sg7
Nsg8
Nsg9
Nsg10
Nsg11
Nsg12
Nsg13
Nsg14
Nsg15
Nsg16
g17
sg18
Nsg19
Nsg20
Nsg21
Nsg22
S'true'
p1400
sg24
Nsg25
Nsg26
S'epoprostenol'
p1401
sg28
Nsg29
S'Increase_Interaction'
p1402
sg31
Nsg32
Nsg33
Nsg34
Nsg35
Nsg36
Nsg37
S'digoxin'
p1403
sa(dp1404
g2
Nsg3
S'http://bio2rdf.org/drugbank:DB00695'
p1405
sg5
S'http://bio2rdf.org/drugbank:DB01240'
p1406
sg7
Nsg8
Nsg9
Nsg10
Nsg11
Nsg12
Nsg13
Nsg14
Nsg15
Nsg16
g17
sg18
Nsg19
Nsg20
Nsg21
Nsg22
S'true'
p1407
sg24
Nsg25
Nsg26
S'epoprostenol'
p1408
sg28
Nsg29
S'Increase_Interaction'
p1409
sg31
Nsg32
Nsg33
Nsg34
Nsg35
Nsg36
Nsg37
S'furosemide'
p1410
sa(dp1411
g2
Nsg3
S'http://bio2rdf.org/drugbank:DB01166'
p1412
sg5
S'http://bio2rdf.org/drugbank:DB00199'
p1413
sg7
Nsg8
Nsg9
Nsg10
Nsg11
Nsg12
Nsg13
Nsg14
Nsg15
Nsg16
g17
sg18
Nsg19
Nsg20
Nsg21
Nsg22
S'true'
p1414
sg24
Nsg25
Nsg26
S'erythromycin'
p1415
sg28
Nsg29
S'Increase_Interaction'
p1416
sg31
Nsg32
Nsg33
Nsg34
Nsg35
Nsg36
Nsg37
S'cilostazol'
p1417
sa(dp1418
g2
Nsg3
S'http://bio2rdf.org/drugbank:DB00390'
p1419
sg5
S'http://bio2rdf.org/drugbank:DB00199'
p1420
sg7
Nsg8
Nsg9
Nsg10
Nsg11
Nsg12
Nsg13
Nsg14
Nsg15
Nsg16
g17
sg18
Nsg19
Nsg20
Nsg21
Nsg22
S'true'
p1421
sg24
Nsg25
Nsg26
S'Erythromycin'
p1422
sg28
Nsg29
S'Increase_Interaction'
p1423
sg31
Nsg32
Nsg33
Nsg34
Nsg35
Nsg36
Nsg37
S'digoxin'
p1424
sa(dp1425
g2
Nsg3
S'http://bio2rdf.org/drugbank:DB00280'
p1426
sg5
S'http://bio2rdf.org/drugbank:DB00199'
p1427
sg7
Nsg8
Nsg9
Nsg10
Nsg11
Nsg12
Nsg13
Nsg14
Nsg15
Nsg16
g17
sg18
Nsg19
Nsg20
Nsg21
Nsg22
S'true'
p1428
sg24
Nsg25
Nsg26
S'erythromycin'
p1429
sg28
Nsg29
S'Decrease_Interaction'
p1430
sg31
Nsg32
Nsg33
Nsg34
Nsg35
Nsg36
Nsg37
S'disopyramide'
p1431
sa(dp1432
g2
Nsg3
S'http://bio2rdf.org/drugbank:DB01023'
p1433
sg5
S'http://bio2rdf.org/drugbank:DB00199'
p1434
sg7
Nsg8
Nsg9
Nsg10
Nsg11
Nsg12
Nsg13
Nsg14
Nsg15
Nsg16
g17
sg18
Nsg19
Nsg20
Nsg21
Nsg22
S'true'
p1435
sg24
Nsg25
Nsg26
S'erythromycin'
p1436
sg28
Nsg29
S'Increase_Interaction'
p1437
sg31
Nsg32
Nsg33
Nsg34
Nsg35
Nsg36
Nsg37
S'felodipine'
p1438
sa(dp1439
g2
Nsg3
S'http://bio2rdf.org/drugbank:DB00678'
p1440
sg5
S'http://bio2rdf.org/drugbank:DB00199'
p1441
sg7
Nsg8
Nsg9
Nsg10
Nsg11
Nsg12
Nsg13
Nsg14
Nsg15
Nsg16
g17
sg18
Nsg19
Nsg20
Nsg21
Nsg22
S'true'
p1442
sg24
Nsg25
Nsg26
S'erythromycin'
p1443
sg28
Nsg29
S'Increase_Interaction'
p1444
sg31
Nsg32
Nsg33
Nsg34
Nsg35
Nsg36
Nsg37
S'losartan'
p1445
sa(dp1446
g2
Nsg3
S'http://bio2rdf.org/drugbank:DB06228'
p1447
sg5
S'http://bio2rdf.org/drugbank:DB00199'
p1448
sg7
Nsg8
Nsg9
Nsg10
Nsg11
Nsg12
Nsg13
Nsg14
Nsg15
Nsg16
g17
sg18
Nsg19
Nsg20
Nsg21
Nsg22
S'true'
p1449
sg24
Nsg25
Nsg26
S'erythromycin'
p1450
sg28
Nsg29
S'Increase_Interaction'
p1451
sg31
Nsg32
Nsg33
Nsg34
Nsg35
Nsg36
Nsg37
S'rivaroxaban'
p1452
sa(dp1453
g2
Nsg3
S'http://bio2rdf.org/drugbank:DB06228'
p1454
sg5
S'http://bio2rdf.org/drugbank:DB00199'
p1455
sg7
Nsg8
Nsg9
Nsg10
Nsg11
Nsg12
Nsg13
Nsg14
Nsg15
Nsg16
g17
sg18
Nsg19
Nsg20
Nsg21
Nsg22
S'true'
p1456
sg24
Nsg25
Nsg26
S'erythromycin'
p1457
sg28
Nsg29
S'Specific_Interaction'
p1458
sg31
Nsg32
Nsg33
Nsg34
Nsg35
Nsg36
Nsg37
S'rivaroxaban'
p1459
sa(dp1460
g2
Nsg3
S'http://bio2rdf.org/drugbank:DB00661'
p1461
sg5
S'http://bio2rdf.org/drugbank:DB00199'
p1462
sg7
Nsg8
Nsg9
Nsg10
Nsg11
Nsg12
Nsg13
Nsg14
Nsg15
Nsg16
g17
sg18
Nsg19
Nsg20
Nsg21
Nsg22
S'true'
p1463
sg24
Nsg25
Nsg26
S'erythromycin'
p1464
sg28
Nsg29
S'Increase_Interaction'
p1465
sg31
Nsg32
Nsg33
Nsg34
Nsg35
Nsg36
Nsg37
S'verapamil'
p1466
sa(dp1467
g2
Nsg3
S'http://bio2rdf.org/drugbank:DB00758'
p1468
sg5
S'http://bio2rdf.org/drugbank:DB00736'
p1469
sg7
Nsg8
Nsg9
Nsg10
Nsg11
Nsg12
Nsg13
Nsg14
Nsg15
Nsg16
g17
sg18
Nsg19
Nsg20
Nsg21
Nsg22
S'true'
p1470
sg24
Nsg25
Nsg26
S'esomeprazole'
p1471
sg28
Nsg29
S'Specific_Interaction'
p1472
sg31
Nsg32
Nsg33
Nsg34
Nsg35
Nsg36
Nsg37
S'Plavix'
p1473
sa(dp1474
g2
Nsg3
S'http://bio2rdf.org/drugbank:DB00864'
p1475
sg5
S'http://bio2rdf.org/drugbank:DB01023'
p1476
sg7
Nsg8
Nsg9
Nsg10
Nsg11
Nsg12
Nsg13
Nsg14
Nsg15
Nsg16
g17
sg18
Nsg19
Nsg20
Nsg21
Nsg22
S'true'
p1477
sg24
Nsg25
Nsg26
S'felodipine'
p1478
sg28
Nsg29
S'Caution_Interaction'
p1479
sg31
Nsg32
Nsg33
Nsg34
Nsg35
Nsg36
Nsg37
S'tacrolimus'
p1480
sa(dp1481
g2
Nsg3
S'http://bio2rdf.org/drugbank:DB00864'
p1482
sg5
S'http://bio2rdf.org/drugbank:DB01023'
p1483
sg7
Nsg8
Nsg9
Nsg10
Nsg11
Nsg12
Nsg13
Nsg14
Nsg15
Nsg16
g17
sg18
Nsg19
Nsg20
Nsg21
Nsg22
S'true'
p1484
sg24
Nsg25
Nsg26
S'Felodipine'
p1485
sg28
Nsg29
S'Increase_Interaction'
p1486
sg31
Nsg32
Nsg33
Nsg34
Nsg35
Nsg36
Nsg37
S'tacrolimus'
p1487
sa(dp1488
g2
Nsg3
S'http://bio2rdf.org/drugbank:DB01118'
p1489
sg5
S'http://bio2rdf.org/drugbank:DB00813'
p1490
sg7
Nsg8
Nsg9
Nsg10
Nsg11
Nsg12
Nsg13
Nsg14
Nsg15
Nsg16
g17
sg18
Nsg19
Nsg20
Nsg21
Nsg22
S'true'
p1491
sg24
Nsg25
Nsg26
S'Fentanyl'
p1492
sg28
Nsg29
S'Specific_Interaction'
p1493
sg31
Nsg32
Nsg33
Nsg34
Nsg35
Nsg36
Nsg37
S'amiodarone'
p1494
sa(dp1495
g2
Nsg3
S'http://bio2rdf.org/drugbank:DB00661'
p1496
sg5
S'http://bio2rdf.org/drugbank:DB01195'
p1497
sg7
Nsg8
Nsg9
Nsg10
Nsg11
Nsg12
Nsg13
Nsg14
Nsg15
Nsg16
g17
sg18
Nsg19
Nsg20
Nsg21
Nsg22
S'true'
p1498
sg24
Nsg25
Nsg26
S'flecainide'
p1499
sg28
Nsg29
S'Specific_Interaction'
p1500
sg31
Nsg32
Nsg33
Nsg34
Nsg35
Nsg36
Nsg37
S'verapamil'
p1501
sa(dp1502
g2
Nsg3
S'http://bio2rdf.org/drugbank:DB00678'
p1503
sg5
S'http://bio2rdf.org/drugbank:DB00196'
p1504
sg7
Nsg8
Nsg9
Nsg10
Nsg11
Nsg12
Nsg13
Nsg14
Nsg15
Nsg16
g17
sg18
Nsg19
Nsg20
Nsg21
Nsg22
S'true'
p1505
sg24
Nsg25
Nsg26
S'Fluconazole'
p1506
sg28
Nsg29
S'Increase_Interaction'
p1507
sg31
Nsg32
Nsg33
Nsg34
Nsg35
Nsg36
Nsg37
S'losartan'
p1508
sa(dp1509
g2
Nsg3
S'http://bio2rdf.org/drugbank:DB06228'
p1510
sg5
S'http://bio2rdf.org/drugbank:DB00196'
p1511
sg7
Nsg8
Nsg9
Nsg10
Nsg11
Nsg12
Nsg13
Nsg14
Nsg15
Nsg16
g17
sg18
Nsg19
Nsg20
Nsg21
Nsg22
S'true'
p1512
sg24
Nsg25
Nsg26
S'fluconazole'
p1513
sg28
Nsg29
S'Increase_Interaction'
p1514
sg31
Nsg32
Nsg33
Nsg34
Nsg35
Nsg36
Nsg37
S'rivaroxaban'
p1515
sa(dp1516
g2
Nsg3
S'http://bio2rdf.org/drugbank:DB06228'
p1517
sg5
S'http://bio2rdf.org/drugbank:DB00196'
p1518
sg7
Nsg8
Nsg9
Nsg10
Nsg11
Nsg12
Nsg13
Nsg14
Nsg15
Nsg16
g17
sg18
Nsg19
Nsg20
Nsg21
Nsg22
S'true'
p1519
sg24
Nsg25
Nsg26
S'fluconazole'
p1520
sg28
Nsg29
S'Specific_Interaction'
p1521
sg31
Nsg32
Nsg33
Nsg34
Nsg35
Nsg36
Nsg37
S'rivaroxaban'
p1522
sa(dp1523
g2
Nsg3
S'http://bio2rdf.org/drugbank:DB00211'
p1524
sg5
S'http://bio2rdf.org/drugbank:DB00687'
p1525
sg7
Nsg8
Nsg9
Nsg10
Nsg11
Nsg12
Nsg13
Nsg14
Nsg15
Nsg16
g17
sg18
Nsg19
Nsg20
Nsg21
Nsg22
S'true'
p1526
sg24
Nsg25
Nsg26
S'fludrocortisone acetate'
p1527
sg28
Nsg29
S'Caution_Interaction'
p1528
sg31
Nsg32
Nsg33
Nsg34
Nsg35
Nsg36
Nsg37
S'ProAmatine'
p1529
sa(dp1530
g2
Nsg3
S'http://bio2rdf.org/drugbank:DB04861'
p1531
sg5
S'http://bio2rdf.org/drugbank:DB00472'
p1532
sg7
Nsg8
Nsg9
Nsg10
Nsg11
Nsg12
Nsg13
Nsg14
Nsg15
Nsg16
g17
sg18
Nsg19
Nsg20
Nsg21
Nsg22
S'true'
p1533
sg24
Nsg25
Nsg26
S'Fluoxetine'
p1534
sg28
Nsg29
S'Increase_Interaction'
p1535
sg31
Nsg32
Nsg33
Nsg34
Nsg35
Nsg36
Nsg37
S'd-nebivolol'
p1536
sa(dp1537
g2
Nsg3
S'http://bio2rdf.org/drugbank:DB01076'
p1538
sg5
S'http://bio2rdf.org/drugbank:DB01319'
p1539
sg7
Nsg8
Nsg9
Nsg10
Nsg11
Nsg12
Nsg13
Nsg14
Nsg15
Nsg16
g17
sg18
Nsg19
Nsg20
Nsg21
Nsg22
S'true'
p1540
sg24
Nsg25
Nsg26
S'fosamprenavir plus ritonavir'
p1541
sg28
Nsg29
S'Caution_Interaction'
p1542
sg31
Nsg32
Nsg33
Nsg34
Nsg35
Nsg36
Nsg37
S'atorvastatin'
p1543
sa(dp1544
g2
Nsg3
S'http://bio2rdf.org/drugbank:DB01076'
p1545
sg5
S'http://bio2rdf.org/drugbank:DB01319'
p1546
sg7
Nsg8
Nsg9
Nsg10
Nsg11
Nsg12
Nsg13
Nsg14
Nsg15
Nsg16
g17
sg18
Nsg19
Nsg20
Nsg21
Nsg22
S'true'
p1547
sg24
Nsg25
Nsg26
S'fosamprenavir'
p1548
sg28
Nsg29
S'Caution_Interaction'
p1549
sg31
Nsg32
Nsg33
Nsg34
Nsg35
Nsg36
Nsg37
S'atorvastatin'
p1550
sa(dp1551
g2
Nsg3
S'http://bio2rdf.org/drugbank:DB00945'
p1552
sg5
S'http://bio2rdf.org/drugbank:DB00695'
p1553
sg7
Nsg8
Nsg9
Nsg10
Nsg11
Nsg12
Nsg13
Nsg14
Nsg15
Nsg16
g17
sg18
Nsg19
Nsg20
Nsg21
Nsg22
S'true'
p1554
sg24
Nsg25
Nsg26
S'furosemide'
p1555
sg28
Nsg29
S'Specific_Interaction'
p1556
sg31
Nsg32
Nsg33
Nsg34
Nsg35
Nsg36
Nsg37
S'acetylsalicylic acid'
p1557
sa(dp1558
g2
Nsg3
S'http://bio2rdf.org/drugbank:DB01240'
p1559
sg5
S'http://bio2rdf.org/drugbank:DB00695'
p1560
sg7
Nsg8
Nsg9
Nsg10
Nsg11
Nsg12
Nsg13
Nsg14
Nsg15
Nsg16
g17
sg18
Nsg19
Nsg20
Nsg21
Nsg22
S'true'
p1561
sg24
Nsg25
Nsg26
S'furosemide'
p1562
sg28
Nsg29
S'Increase_Interaction'
p1563
sg31
Nsg32
Nsg33
Nsg34
Nsg35
Nsg36
Nsg37
S'FLOLAN'
p1564
sa(dp1565
g2
Nsg3
S'http://bio2rdf.org/drugbank:DB00524'
p1566
sg5
S'http://bio2rdf.org/drugbank:DB00695'
p1567
sg7
Nsg8
Nsg9
Nsg10
Nsg11
Nsg12
Nsg13
Nsg14
Nsg15
Nsg16
g17
sg18
Nsg19
Nsg20
Nsg21
Nsg22
S'true'
p1568
sg24
Nsg25
Nsg26
S'Furosemide'
p1569
sg28
Nsg29
S'Specific_Interaction'
p1570
sg31
Nsg32
Nsg33
Nsg34
Nsg35
Nsg36
Nsg37
S'metolazone'
p1571
sa(dp1572
g2
Nsg3
S'http://bio2rdf.org/drugbank:DB00374'
p1573
sg5
S'http://bio2rdf.org/drugbank:DB01241'
p1574
sg7
Nsg8
Nsg9
Nsg10
Nsg11
Nsg12
Nsg13
Nsg14
Nsg15
Nsg16
g17
sg18
Nsg19
Nsg20
Nsg21
Nsg22
S'true'
p1575
sg24
Nsg25
Nsg26
S'gemfibrozil'
p1576
sg28
Nsg29
S'Increase_Interaction'
p1577
sg31
Nsg32
Nsg33
Nsg34
Nsg35
Nsg36
Nsg37
S'treprostinil'
p1578
sa(dp1579
g2
Nsg3
S'http://bio2rdf.org/drugbank:DB00559'
p1580
sg5
S'http://bio2rdf.org/drugbank:DB01016'
p1581
sg7
Nsg8
Nsg9
Nsg10
Nsg11
Nsg12
Nsg13
Nsg14
Nsg15
Nsg16
g17
sg18
Nsg19
Nsg20
Nsg21
Nsg22
S'true'
p1582
sg24
Nsg25
Nsg26
S'glyburide'
p1583
sg28
Nsg29
S'Specific_Interaction'
p1584
sg31
Nsg32
Nsg33
Nsg34
Nsg35
Nsg36
Nsg37
S'bosentan'
p1585
sa(dp1586
g2
Nsg3
S'http://bio2rdf.org/drugbank:DB00559'
p1587
sg5
S'http://bio2rdf.org/drugbank:DB01016'
p1588
sg7
Nsg8
Nsg9
Nsg10
Nsg11
Nsg12
Nsg13
Nsg14
Nsg15
Nsg16
g17
sg18
Nsg19
Nsg20
Nsg21
Nsg22
S'true'
p1589
sg24
Nsg25
Nsg26
S'glyburide'
p1590
sg28
Nsg29
S'Caution_Interaction'
p1591
sg31
Nsg32
Nsg33
Nsg34
Nsg35
Nsg36
Nsg37
S'Tracleer'
p1592
sa(dp1593
g2
Nsg3
S'http://bio2rdf.org/drugbank:DB00999'
p1594
sg5
S'http://bio2rdf.org/drugbank:DB00629'
p1595
sg7
Nsg8
Nsg9
Nsg10
Nsg11
Nsg12
Nsg13
Nsg14
Nsg15
Nsg16
g17
sg18
Nsg19
Nsg20
Nsg21
Nsg22
S'true'
p1596
sg24
Nsg25
Nsg26
S'guanabenz'
p1597
sg28
Nsg29
S'Increase_Interaction'
p1598
sg31
Nsg32
Nsg33
Nsg34
Nsg35
Nsg36
Nsg37
S'hydrochlorothiazide'
p1599
sa(dp1600
g2
Nsg3
S'http://bio2rdf.org/drugbank:DB00908'
p1601
sg5
S'http://bio2rdf.org/drugbank:DB00502'
p1602
sg7
Nsg8
Nsg9
Nsg10
Nsg11
Nsg12
Nsg13
Nsg14
Nsg15
Nsg16
g17
sg18
Nsg19
Nsg20
Nsg21
Nsg22
S'true'
p1603
sg24
Nsg25
Nsg26
S'haloperidol'
p1604
sg28
Nsg29
S'Increase_Interaction'
p1605
sg31
Nsg32
Nsg33
Nsg34
Nsg35
Nsg36
Nsg37
S'quinidine'
p1606
sa(dp1607
g2
Nsg3
S'http://bio2rdf.org/drugbank:DB00204'
p1608
sg5
S'http://bio2rdf.org/drugbank:DB00999'
p1609
sg7
Nsg8
Nsg9
Nsg10
Nsg11
Nsg12
Nsg13
Nsg14
Nsg15
Nsg16
g17
sg18
Nsg19
Nsg20
Nsg21
Nsg22
S'true'
p1610
sg24
Nsg25
Nsg26
S'HCTZ in combination with triamterene'
p1611
sg28
Nsg29
S'Increase_Interaction'
p1612
sg31
Nsg32
Nsg33
Nsg34
Nsg35
Nsg36
Nsg37
S'dofetilide'
p1613
sa(dp1614
g2
Nsg3
S'http://bio2rdf.org/drugbank:DB00204'
p1615
sg5
S'http://bio2rdf.org/drugbank:DB00999'
p1616
sg7
Nsg8
Nsg9
Nsg10
Nsg11
Nsg12
Nsg13
Nsg14
Nsg15
Nsg16
g17
sg18
Nsg19
Nsg20
Nsg21
Nsg22
S'true'
p1617
sg24
Nsg25
Nsg26
S'HCTZ'
p1618
sg28
Nsg29
S'Increase_Interaction'
p1619
sg31
Nsg32
Nsg33
Nsg34
Nsg35
Nsg36
Nsg37
S'dofetilide'
p1620
sa(dp1621
g2
Nsg3
S'http://bio2rdf.org/drugbank:DB00264'
p1622
sg5
S'http://bio2rdf.org/drugbank:DB01275'
p1623
sg7
Nsg8
Nsg9
Nsg10
Nsg11
Nsg12
Nsg13
Nsg14
Nsg15
Nsg16
g17
sg18
Nsg19
Nsg20
Nsg21
Nsg22
S'true'
p1624
sg24
Nsg25
Nsg26
S'hydralazine'
p1625
sg28
Nsg29
S'Increase_Interaction'
p1626
sg31
Nsg32
Nsg33
Nsg34
Nsg35
Nsg36
Nsg37
S'metoprolol'
p1627
sa(dp1628
g2
Nsg3
S'http://bio2rdf.org/drugbank:DB00681'
p1629
sg5
S'http://bio2rdf.org/drugbank:DB00999'
p1630
sg7
Nsg8
Nsg9
Nsg10
Nsg11
Nsg12
Nsg13
Nsg14
Nsg15
Nsg16
g17
sg18
Nsg19
Nsg20
Nsg21
Nsg22
S'true'
p1631
sg24
Nsg25
Nsg26
S'hydrochlorothiazide'
p1632
sg28
Nsg29
S'Specific_Interaction'
p1633
sg31
Nsg32
Nsg33
Nsg34
Nsg35
Nsg36
Nsg37
S'amphotericin B'
p1634
sa(dp1635
g2
Nsg3
S'http://bio2rdf.org/drugbank:DB01285'
p1636
sg5
S'http://bio2rdf.org/drugbank:DB00999'
p1637
sg7
Nsg8
Nsg9
Nsg10
Nsg11
Nsg12
Nsg13
Nsg14
Nsg15
Nsg16
g17
sg18
Nsg19
Nsg20
Nsg21
Nsg22
S'true'
p1638
sg24
Nsg25
Nsg26
S'hydrochlorothiazide'
p1639
sg28
Nsg29
S'Specific_Interaction'
p1640
sg31
Nsg32
Nsg33
Nsg34
Nsg35
Nsg36
Nsg37
S'corticotropin (ACTH)'
p1641
sa(dp1642
g2
Nsg3
S'http://bio2rdf.org/drugbank:DB00968'
p1643
sg5
S'http://bio2rdf.org/drugbank:DB00999'
p1644
sg7
Nsg8
Nsg9
Nsg10
Nsg11
Nsg12
Nsg13
Nsg14
Nsg15
Nsg16
g17
sg18
Nsg19
Nsg20
Nsg21
Nsg22
S'true'
p1645
sg24
Nsg25
Nsg26
S'hydrochlorothiazide'
p1646
sg28
Nsg29
S'Specific_Interaction'
p1647
sg31
Nsg32
Nsg33
Nsg34
Nsg35
Nsg36
Nsg37
S'methyldopa'
p1648
sa(dp1649
g2
Nsg3
S'http://bio2rdf.org/drugbank:DB00368'
p1650
sg5
S'http://bio2rdf.org/drugbank:DB00999'
p1651
sg7
Nsg8
Nsg9
Nsg10
Nsg11
Nsg12
Nsg13
Nsg14
Nsg15
Nsg16
g17
sg18
Nsg19
Nsg20
Nsg21
Nsg22
S'true'
p1652
sg24
Nsg25
Nsg26
S'hydrochlorothiazide'
p1653
sg28
Nsg29
S'Specific_Interaction'
p1654
sg31
Nsg32
Nsg33
Nsg34
Nsg35
Nsg36
Nsg37
S'norepinephrine'
p1655
sa(dp1656
g2
Nsg3
S'http://bio2rdf.org/drugbank:DB01118'
p1657
sg5
S'http://bio2rdf.org/drugbank:DB00224'
p1658
sg7
Nsg8
Nsg9
Nsg10
Nsg11
Nsg12
Nsg13
Nsg14
Nsg15
Nsg16
g17
sg18
Nsg19
Nsg20
Nsg21
Nsg22
S'true'
p1659
sg24
Nsg25
Nsg26
S'indinavir'
p1660
sg28
Nsg29
S'Increase_Interaction'
p1661
sg31
Nsg32
Nsg33
Nsg34
Nsg35
Nsg36
Nsg37
S'amiodarone'
p1662
sa(dp1663
g2
Nsg3
S'http://bio2rdf.org/drugbank:DB00390'
p1664
sg5
S'http://bio2rdf.org/drugbank:DB00328'
p1665
sg7
Nsg8
Nsg9
Nsg10
Nsg11
Nsg12
Nsg13
Nsg14
Nsg15
Nsg16
g17
sg18
Nsg19
Nsg20
Nsg21
Nsg22
S'true'
p1666
sg24
Nsg25
Nsg26
S'indomethacin'
p1667
sg28
Nsg29
S'Increase_Interaction'
p1668
sg31
Nsg32
Nsg33
Nsg34
Nsg35
Nsg36
Nsg37
S'digoxin'
p1669
sa(dp1670
g2
Nsg3
S'http://bio2rdf.org/drugbank:DB00695'
p1671
sg5
S'http://bio2rdf.org/drugbank:DB00328'
p1672
sg7
Nsg8
Nsg9
Nsg10
Nsg11
Nsg12
Nsg13
Nsg14
Nsg15
Nsg16
g17
sg18
Nsg19
Nsg20
Nsg21
Nsg22
S'true'
p1673
sg24
Nsg25
Nsg26
S'indomethacin'
p1674
sg28
Nsg29
S'Specific_Interaction'
p1675
sg31
Nsg32
Nsg33
Nsg34
Nsg35
Nsg36
Nsg37
S'furosemide'
p1676
sa(dp1677
g2
Nsg3
S'http://bio2rdf.org/drugbank:DB00695'
p1678
sg5
S'http://bio2rdf.org/drugbank:DB00328'
p1679
sg7
Nsg8
Nsg9
Nsg10
Nsg11
Nsg12
Nsg13
Nsg14
Nsg15
Nsg16
g17
sg18
Nsg19
Nsg20
Nsg21
Nsg22
S'true'
p1680
sg24
Nsg25
Nsg26
S'indomethacin'
p1681
sg28
Nsg29
S'Caution_Interaction'
p1682
sg31
Nsg32
Nsg33
Nsg34
Nsg35
Nsg36
Nsg37
S'LASIX'
p1683
sa(dp1684
g2
Nsg3
S'http://bio2rdf.org/drugbank:DB00695'
p1685
sg5
S'http://bio2rdf.org/drugbank:DB00328'
p1686
sg7
Nsg8
Nsg9
Nsg10
Nsg11
Nsg12
Nsg13
Nsg14
Nsg15
Nsg16
g17
sg18
Nsg19
Nsg20
Nsg21
Nsg22
S'true'
p1687
sg24
Nsg25
Nsg26
S'indomethacin'
p1688
sg28
Nsg29
S'Specific_Interaction'
p1689
sg31
Nsg32
Nsg33
Nsg34
Nsg35
Nsg36
Nsg37
S'LASIX'
p1690
sa(dp1691
g2
Nsg3
S'http://bio2rdf.org/drugbank:DB00571'
p1692
sg5
S'http://bio2rdf.org/drugbank:DB00328'
p1693
sg7
Nsg8
Nsg9
Nsg10
Nsg11
Nsg12
Nsg13
Nsg14
Nsg15
Nsg16
g17
sg18
Nsg19
Nsg20
Nsg21
Nsg22
S'true'
p1694
sg24
Nsg25
Nsg26
S'indomethacin'
p1695
sg28
Nsg29
S'Decrease_Interaction'
p1696
sg31
Nsg32
Nsg33
Nsg34
Nsg35
Nsg36
Nsg37
S'propranolol'
p1697
sa(dp1698
g2
Nsg3
S'http://bio2rdf.org/drugbank:DB00384'
p1699
sg5
S'http://bio2rdf.org/drugbank:DB00328'
p1700
sg7
Nsg8
Nsg9
Nsg10
Nsg11
Nsg12
Nsg13
Nsg14
Nsg15
Nsg16
g17
sg18
Nsg19
Nsg20
Nsg21
Nsg22
S'true'
p1701
sg24
Nsg25
Nsg26
S'indomethacin'
p1702
sg28
Nsg29
S'Specific_Interaction'
p1703
sg31
Nsg32
Nsg33
Nsg34
Nsg35
Nsg36
Nsg37
S'triamterene'
p1704
sa(dp1705
g2
Nsg3
S'http://bio2rdf.org/drugbank:DB00584'
p1706
sg5
S'http://bio2rdf.org/drugbank:DB00700'
p1707
sg7
Nsg8
Nsg9
Nsg10
Nsg11
Nsg12
Nsg13
Nsg14
Nsg15
Nsg16
g17
sg18
Nsg19
Nsg20
Nsg21
Nsg22
S'true'
p1708
sg24
Nsg25
Nsg26
S'INSPRA'
p1709
sg28
Nsg29
S'Specific_Interaction'
p1710
sg31
Nsg32
Nsg33
Nsg34
Nsg35
Nsg36
Nsg37
S'enalapril'
p1711
sa(dp1712
g2
Nsg3
S'http://bio2rdf.org/drugbank:DB01356'
p1713
sg5
S'http://bio2rdf.org/drugbank:DB00700'
p1714
sg7
Nsg8
Nsg9
Nsg10
Nsg11
Nsg12
Nsg13
Nsg14
Nsg15
Nsg16
g17
sg18
Nsg19
Nsg20
Nsg21
Nsg22
S'true'
p1715
sg24
Nsg25
Nsg26
S'INSPRA'
p1716
sg28
Nsg29
S'Caution_Interaction'
p1717
sg31
Nsg32
Nsg33
Nsg34
Nsg35
Nsg36
Nsg37
S'lithium'
p1718
sa(dp1719
g2
Nsg3
S'http://bio2rdf.org/drugbank:DB01109'
p1720
sg5
S'http://bio2rdf.org/drugbank:DB00063'
p1721
sg7
Nsg8
Nsg9
Nsg10
Nsg11
Nsg12
Nsg13
Nsg14
Nsg15
Nsg16
g17
sg18
Nsg19
Nsg20
Nsg21
Nsg22
S'true'
p1722
sg24
Nsg25
Nsg26
S'INTEGRILIN'
p1723
sg28
Nsg29
S'Specific_Interaction'
p1724
sg31
Nsg32
Nsg33
Nsg34
Nsg35
Nsg36
Nsg37
S'heparin'
p1725
sa(dp1726
g2
Nsg3
S'http://bio2rdf.org/drugbank:DB00999'
p1727
sg5
S'http://bio2rdf.org/drugbank:DB01029'
p1728
sg7
Nsg8
Nsg9
Nsg10
Nsg11
Nsg12
Nsg13
Nsg14
Nsg15
Nsg16
g17
sg18
Nsg19
Nsg20
Nsg21
Nsg22
S'true'
p1729
sg24
Nsg25
Nsg26
S'irbesartan'
p1730
sg28
Nsg29
S'Specific_Interaction'
p1731
sg31
Nsg32
Nsg33
Nsg34
Nsg35
Nsg36
Nsg37
S'hydrochlorothiazide'
p1732
sa(dp1733
g2
Nsg3
S'http://bio2rdf.org/drugbank:DB01115'
p1734
sg5
S'http://bio2rdf.org/drugbank:DB01029'
p1735
sg7
Nsg8
Nsg9
Nsg10
Nsg11
Nsg12
Nsg13
Nsg14
Nsg15
Nsg16
g17
sg18
Nsg19
Nsg20
Nsg21
Nsg22
S'true'
p1736
sg24
Nsg25
Nsg26
S'irbesartan'
p1737
sg28
Nsg29
S'Specific_Interaction'
p1738
sg31
Nsg32
Nsg33
Nsg34
Nsg35
Nsg36
Nsg37
S'nifedipine'
p1739
sa(dp1740
g2
Nsg3
S'http://bio2rdf.org/drugbank:DB01124'
p1741
sg5
S'http://bio2rdf.org/drugbank:DB01029'
p1742
sg7
Nsg8
Nsg9
Nsg10
Nsg11
Nsg12
Nsg13
Nsg14
Nsg15
Nsg16
g17
sg18
Nsg19
Nsg20
Nsg21
Nsg22
S'true'
p1743
sg24
Nsg25
Nsg26
S'irbesartan'
p1744
sg28
Nsg29
S'Specific_Interaction'
p1745
sg31
Nsg32
Nsg33
Nsg34
Nsg35
Nsg36
Nsg37
S'tolbutamide'
p1746
sa(dp1747
g2
Nsg3
S'http://bio2rdf.org/drugbank:DB00551'
p1748
sg5
S'http://bio2rdf.org/drugbank:DB01592'
p1749
sg7
Nsg8
Nsg9
Nsg10
Nsg11
Nsg12
Nsg13
Nsg14
Nsg15
Nsg16
g17
sg18
Nsg19
Nsg20
Nsg21
Nsg22
S'true'
p1750
sg24
Nsg25
Nsg26
S'iron'
p1751
sg28
Nsg29
S'Specific_Interaction'
p1752
sg31
Nsg32
Nsg33
Nsg34
Nsg35
Nsg36
Nsg37
S'AHA'
p1753
sa(dp1754
g2
Nsg3
S'http://bio2rdf.org/drugbank:DB01258'
p1755
sg5
S'http://bio2rdf.org/drugbank:DB01167'
p1756
sg7
Nsg8
Nsg9
Nsg10
Nsg11
Nsg12
Nsg13
Nsg14
Nsg15
Nsg16
g17
sg18
Nsg19
Nsg20
Nsg21
Nsg22
S'true'
p1757
sg24
Nsg25
Nsg26
S'itraconazole'
p1758
sg28
Nsg29
S'Caution_Interaction'
p1759
sg31
Nsg32
Nsg33
Nsg34
Nsg35
Nsg36
Nsg37
S'aliskiren'
p1760
sa(dp1761
g2
Nsg3
S'http://bio2rdf.org/drugbank:DB01258'
p1762
sg5
S'http://bio2rdf.org/drugbank:DB01167'
p1763
sg7
Nsg8
Nsg9
Nsg10
Nsg11
Nsg12
Nsg13
Nsg14
Nsg15
Nsg16
g17
sg18
Nsg19
Nsg20
Nsg21
Nsg22
S'true'
p1764
sg24
Nsg25
Nsg26
S'itraconazole'
p1765
sg28
Nsg29
S'Increase_Interaction'
p1766
sg31
Nsg32
Nsg33
Nsg34
Nsg35
Nsg36
Nsg37
S'aliskiren'
p1767
sa(dp1768
g2
Nsg3
S'http://bio2rdf.org/drugbank:DB01076'
p1769
sg5
S'http://bio2rdf.org/drugbank:DB01167'
p1770
sg7
Nsg8
Nsg9
Nsg10
Nsg11
Nsg12
Nsg13
Nsg14
Nsg15
Nsg16
g17
sg18
Nsg19
Nsg20
Nsg21
Nsg22
S'true'
p1771
sg24
Nsg25
Nsg26
S'itraconazole'
p1772
sg28
Nsg29
S'Caution_Interaction'
p1773
sg31
Nsg32
Nsg33
Nsg34
Nsg35
Nsg36
Nsg37
S'atorvastatin'
p1774
sa(dp1775
g2
Nsg3
S'http://bio2rdf.org/drugbank:DB00390'
p1776
sg5
S'http://bio2rdf.org/drugbank:DB01167'
p1777
sg7
Nsg8
Nsg9
Nsg10
Nsg11
Nsg12
Nsg13
Nsg14
Nsg15
Nsg16
g17
sg18
Nsg19
Nsg20
Nsg21
Nsg22
S'true'
p1778
sg24
Nsg25
Nsg26
S'itraconazole'
p1779
sg28
Nsg29
S'Increase_Interaction'
p1780
sg31
Nsg32
Nsg33
Nsg34
Nsg35
Nsg36
Nsg37
S'digoxin'
p1781
sa(dp1782
g2
Nsg3
S'http://bio2rdf.org/drugbank:DB01023'
p1783
sg5
S'http://bio2rdf.org/drugbank:DB01167'
p1784
sg7
Nsg8
Nsg9
Nsg10
Nsg11
Nsg12
Nsg13
Nsg14
Nsg15
Nsg16
g17
sg18
Nsg19
Nsg20
Nsg21
Nsg22
S'true'
p1785
sg24
Nsg25
Nsg26
S'itraconazole'
p1786
sg28
Nsg29
S'Increase_Interaction'
p1787
sg31
Nsg32
Nsg33
Nsg34
Nsg35
Nsg36
Nsg37
S'felodipine'
p1788
sa(dp1789
g2
Nsg3
S'http://bio2rdf.org/drugbank:DB01356'
p1790
sg5
S'http://bio2rdf.org/drugbank:DB01344'
p1791
sg7
Nsg8
Nsg9
Nsg10
Nsg11
Nsg12
Nsg13
Nsg14
Nsg15
Nsg16
g17
sg18
Nsg19
Nsg20
Nsg21
Nsg22
S'true'
p1792
sg24
Nsg25
Nsg26
S'KAYEXALATE'
p1793
sg28
Nsg29
S'Decrease_Interaction'
p1794
sg31
Nsg32
Nsg33
Nsg34
Nsg35
Nsg36
Nsg37
S'lithium'
p1795
sa(dp1796
g2
Nsg3
S'http://bio2rdf.org/drugbank:DB01378'
p1797
sg5
S'http://bio2rdf.org/drugbank:DB01344'
p1798
sg7
Nsg8
Nsg9
Nsg10
Nsg11
Nsg12
Nsg13
Nsg14
Nsg15
Nsg16
g17
sg18
Nsg19
Nsg20
Nsg21
Nsg22
S'true'
p1799
sg24
Nsg25
Nsg26
S'KAYEXALATE'
p1800
sg28
Nsg29
S'Specific_Interaction'
p1801
sg31
Nsg32
Nsg33
Nsg34
Nsg35
Nsg36
Nsg37
S'magnesium hydroxide'
p1802
sa(dp1803
g2
Nsg3
S'http://bio2rdf.org/drugbank:DB00451'
p1804
sg5
S'http://bio2rdf.org/drugbank:DB01344'
p1805
sg7
Nsg8
Nsg9
Nsg10
Nsg11
Nsg12
Nsg13
Nsg14
Nsg15
Nsg16
g17
sg18
Nsg19
Nsg20
Nsg21
Nsg22
S'true'
p1806
sg24
Nsg25
Nsg26
S'KAYEXALATE'
p1807
sg28
Nsg29
S'Decrease_Interaction'
p1808
sg31
Nsg32
Nsg33
Nsg34
Nsg35
Nsg36
Nsg37
S'thyroxine'
p1809
sa(dp1810
g2
Nsg3
S'http://bio2rdf.org/drugbank:DB00559'
p1811
sg5
S'http://bio2rdf.org/drugbank:DB01026'
p1812
sg7
Nsg8
Nsg9
Nsg10
Nsg11
Nsg12
Nsg13
Nsg14
Nsg15
Nsg16
g17
sg18
Nsg19
Nsg20
Nsg21
Nsg22
S'true'
p1813
sg24
Nsg25
Nsg26
S'ketoconazole'
p1814
sg28
Nsg29
S'Increase_Interaction'
p1815
sg31
Nsg32
Nsg33
Nsg34
Nsg35
Nsg36
Nsg37
S'bosentan'
p1816
sa(dp1817
g2
Nsg3
S'http://bio2rdf.org/drugbank:DB00872'
p1818
sg5
S'http://bio2rdf.org/drugbank:DB01026'
p1819
sg7
Nsg8
Nsg9
Nsg10
Nsg11
Nsg12
Nsg13
Nsg14
Nsg15
Nsg16
g17
sg18
Nsg19
Nsg20
Nsg21
Nsg22
S'true'
p1820
sg24
Nsg25
Nsg26
S'ketoconazole'
p1821
sg28
Nsg29
S'Increase_Interaction'
p1822
sg31
Nsg32
Nsg33
Nsg34
Nsg35
Nsg36
Nsg37
S'conivaptan'
p1823
sa(dp1824
g2
Nsg3
S'http://bio2rdf.org/drugbank:DB00204'
p1825
sg5
S'http://bio2rdf.org/drugbank:DB01026'
p1826
sg7
Nsg8
Nsg9
Nsg10
Nsg11
Nsg12
Nsg13
Nsg14
Nsg15
Nsg16
g17
sg18
Nsg19
Nsg20
Nsg21
Nsg22
S'true'
p1827
sg24
Nsg25
Nsg26
S'ketoconazole'
p1828
sg28
Nsg29
S'Caution_Interaction'
p1829
sg31
Nsg32
Nsg33
Nsg34
Nsg35
Nsg36
Nsg37
S'dofetilide'
p1830
sa(dp1831
g2
Nsg3
S'http://bio2rdf.org/drugbank:DB00204'
p1832
sg5
S'http://bio2rdf.org/drugbank:DB01026'
p1833
sg7
Nsg8
Nsg9
Nsg10
Nsg11
Nsg12
Nsg13
Nsg14
Nsg15
Nsg16
g17
sg18
Nsg19
Nsg20
Nsg21
Nsg22
S'true'
p1834
sg24
Nsg25
Nsg26
S'Ketoconazole'
p1835
sg28
Nsg29
S'Increase_Interaction'
p1836
sg31
Nsg32
Nsg33
Nsg34
Nsg35
Nsg36
Nsg37
S'dofetilide'
p1837
sa(dp1838
g2
Nsg3
S'http://bio2rdf.org/drugbank:DB00204'
p1839
sg5
S'http://bio2rdf.org/drugbank:DB01026'
p1840
sg7
Nsg8
Nsg9
Nsg10
Nsg11
Nsg12
Nsg13
Nsg14
Nsg15
Nsg16
g17
sg18
Nsg19
Nsg20
Nsg21
Nsg22
S'true'
p1841
sg24
Nsg25
Nsg26
S'ketoconazole'
p1842
sg28
Nsg29
S'Specific_Interaction'
p1843
sg31
Nsg32
Nsg33
Nsg34
Nsg35
Nsg36
Nsg37
S'dofetilide'
p1844
sa(dp1845
g2
Nsg3
S'http://bio2rdf.org/drugbank:DB00700'
p1846
sg5
S'http://bio2rdf.org/drugbank:DB01026'
p1847
sg7
Nsg8
Nsg9
Nsg10
Nsg11
Nsg12
Nsg13
Nsg14
Nsg15
Nsg16
g17
sg18
Nsg19
Nsg20
Nsg21
Nsg22
S'true'
p1848
sg24
Nsg25
Nsg26
S'ketoconazole'
p1849
sg28
Nsg29
S'Increase_Interaction'
p1850
sg31
Nsg32
Nsg33
Nsg34
Nsg35
Nsg36
Nsg37
S'eplerenone'
p1851
sa(dp1852
g2
Nsg3
S'http://bio2rdf.org/drugbank:DB06228'
p1853
sg5
S'http://bio2rdf.org/drugbank:DB01026'
p1854
sg7
Nsg8
Nsg9
Nsg10
Nsg11
Nsg12
Nsg13
Nsg14
Nsg15
Nsg16
g17
sg18
Nsg19
Nsg20
Nsg21
Nsg22
S'true'
p1855
sg24
Nsg25
Nsg26
S'ketoconazole'
p1856
sg28
Nsg29
S'Increase_Interaction'
p1857
sg31
Nsg32
Nsg33
Nsg34
Nsg35
Nsg36
Nsg37
S'rivaroxaban'
p1858
sa(dp1859
g2
Nsg3
S'http://bio2rdf.org/drugbank:DB06228'
p1860
sg5
S'http://bio2rdf.org/drugbank:DB01026'
p1861
sg7
Nsg8
Nsg9
Nsg10
Nsg11
Nsg12
Nsg13
Nsg14
Nsg15
Nsg16
g17
sg18
Nsg19
Nsg20
Nsg21
Nsg22
S'true'
p1862
sg24
Nsg25
Nsg26
S'ketoconazole'
p1863
sg28
Nsg29
S'Specific_Interaction'
p1864
sg31
Nsg32
Nsg33
Nsg34
Nsg35
Nsg36
Nsg37
S'rivaroxaban'
p1865
sa(dp1866
g2
Nsg3
S'http://bio2rdf.org/drugbank:DB06212'
p1867
sg5
S'http://bio2rdf.org/drugbank:DB01026'
p1868
sg7
Nsg8
Nsg9
Nsg10
Nsg11
Nsg12
Nsg13
Nsg14
Nsg15
Nsg16
g17
sg18
Nsg19
Nsg20
Nsg21
Nsg22
S'true'
p1869
sg24
Nsg25
Nsg26
S'Ketoconazole'
p1870
sg28
Nsg29
S'Increase_Interaction'
p1871
sg31
Nsg32
Nsg33
Nsg34
Nsg35
Nsg36
Nsg37
S'tolvaptan'
p1872
sa(dp1873
g2
Nsg3
S'http://bio2rdf.org/drugbank:DB01159'
p1874
sg5
S'http://bio2rdf.org/drugbank:DB00598'
p1875
sg7
Nsg8
Nsg9
Nsg10
Nsg11
Nsg12
Nsg13
Nsg14
Nsg15
Nsg16
g17
sg18
Nsg19
Nsg20
Nsg21
Nsg22
S'true'
p1876
sg24
Nsg25
Nsg26
S'labetalol HCl'
p1877
sg28
Nsg29
S'Specific_Interaction'
p1878
sg31
Nsg32
Nsg33
Nsg34
Nsg35
Nsg36
Nsg37
S'halothane anesthesia'
p1879
sa(dp1880
g2
Nsg3
S'http://bio2rdf.org/drugbank:DB01159'
p1881
sg5
S'http://bio2rdf.org/drugbank:DB00598'
p1882
sg7
Nsg8
Nsg9
Nsg10
Nsg11
Nsg12
Nsg13
Nsg14
Nsg15
Nsg16
g17
sg18
Nsg19
Nsg20
Nsg21
Nsg22
S'true'
p1883
sg24
Nsg25
Nsg26
S'labetalol HCl'
p1884
sg28
Nsg29
S'Caution_Interaction'
p1885
sg31
Nsg32
Nsg33
Nsg34
Nsg35
Nsg36
Nsg37
S'halothane'
p1886
sa(dp1887
g2
Nsg3
S'http://bio2rdf.org/drugbank:DB00727'
p1888
sg5
S'http://bio2rdf.org/drugbank:DB00598'
p1889
sg7
Nsg8
Nsg9
Nsg10
Nsg11
Nsg12
Nsg13
Nsg14
Nsg15
Nsg16
g17
sg18
Nsg19
Nsg20
Nsg21
Nsg22
S'true'
p1890
sg24
Nsg25
Nsg26
S'Labetalol HCl'
p1891
sg28
Nsg29
S'Specific_Interaction'
p1892
sg31
Nsg32
Nsg33
Nsg34
Nsg35
Nsg36
Nsg37
S'nitroglycerin'
p1893
sa(dp1894
g2
Nsg3
S'http://bio2rdf.org/drugbank:DB01373'
p1895
sg5
S'http://bio2rdf.org/drugbank:DB00598'
p1896
sg7
Nsg8
Nsg9
Nsg10
Nsg11
Nsg12
Nsg13
Nsg14
Nsg15
Nsg16
g17
sg18
Nsg19
Nsg20
Nsg21
Nsg22
S'true'
p1897
sg24
Nsg25
Nsg26
S'labetalol'
p1898
sg28
Nsg29
S'Caution_Interaction'
p1899
sg31
Nsg32
Nsg33
Nsg34
Nsg35
Nsg36
Nsg37
S'calcium antagonists of the verapamil type'
p1900
sa(dp1901
g2
Nsg3
S'http://bio2rdf.org/drugbank:DB00727'
p1902
sg5
S'http://bio2rdf.org/drugbank:DB00598'
p1903
sg7
Nsg8
Nsg9
Nsg10
Nsg11
Nsg12
Nsg13
Nsg14
Nsg15
Nsg16
g17
sg18
Nsg19
Nsg20
Nsg21
Nsg22
S'true'
p1904
sg24
Nsg25
Nsg26
S'Labetolol'
p1905
sg28
Nsg29
S'Specific_Interaction'
p1906
sg31
Nsg32
Nsg33
Nsg34
Nsg35
Nsg36
Nsg37
S'nitroglycerin'
p1907
sa(dp1908
g2
Nsg3
S'http://bio2rdf.org/drugbank:DB00758'
p1909
sg5
S'http://bio2rdf.org/drugbank:DB00448'
p1910
sg7
Nsg8
Nsg9
Nsg10
Nsg11
Nsg12
Nsg13
Nsg14
Nsg15
Nsg16
g17
sg18
Nsg19
Nsg20
Nsg21
Nsg22
S'true'
p1911
sg24
Nsg25
Nsg26
S'lansoprazole'
p1912
sg28
Nsg29
S'Specific_Interaction'
p1913
sg31
Nsg32
Nsg33
Nsg34
Nsg35
Nsg36
Nsg37
S'Plavix'
p1914
sa(dp1915
g2
Nsg3
S'http://bio2rdf.org/drugbank:DB01285'
p1916
sg5
S'http://bio2rdf.org/drugbank:DB00695'
p1917
sg7
Nsg8
Nsg9
Nsg10
Nsg11
Nsg12
Nsg13
Nsg14
Nsg15
Nsg16
g17
sg18
Nsg19
Nsg20
Nsg21
Nsg22
S'true'
p1918
sg24
Nsg25
Nsg26
S'LASIX'
p1919
sg28
Nsg29
S'Specific_Interaction'
p1920
sg31
Nsg32
Nsg33
Nsg34
Nsg35
Nsg36
Nsg37
S'ACTH'
p1921
sa(dp1922
g2
Nsg3
S'http://bio2rdf.org/drugbank:DB01563'
p1923
sg5
S'http://bio2rdf.org/drugbank:DB00695'
p1924
sg7
Nsg8
Nsg9
Nsg10
Nsg11
Nsg12
Nsg13
Nsg14
Nsg15
Nsg16
g17
sg18
Nsg19
Nsg20
Nsg21
Nsg22
S'true'
p1925
sg24
Nsg25
Nsg26
S'LASIX'
p1926
sg28
Nsg29
S'Caution_Interaction'
p1927
sg31
Nsg32
Nsg33
Nsg34
Nsg35
Nsg36
Nsg37
S'chloral hydrate'
p1928
sa(dp1929
g2
Nsg3
S'http://bio2rdf.org/drugbank:DB00903'
p1930
sg5
S'http://bio2rdf.org/drugbank:DB00695'
p1931
sg7
Nsg8
Nsg9
Nsg10
Nsg11
Nsg12
Nsg13
Nsg14
Nsg15
Nsg16
g17
sg18
Nsg19
Nsg20
Nsg21
Nsg22
S'true'
p1932
sg24
Nsg25
Nsg26
S'LASIX'
p1933
sg28
Nsg29
S'Specific_Interaction'
p1934
sg31
Nsg32
Nsg33
Nsg34
Nsg35
Nsg36
Nsg37
S'ethacrynic acid'
p1935
sa(dp1936
g2
Nsg3
S'http://bio2rdf.org/drugbank:DB00368'
p1937
sg5
S'http://bio2rdf.org/drugbank:DB00695'
p1938
sg7
Nsg8
Nsg9
Nsg10
Nsg11
Nsg12
Nsg13
Nsg14
Nsg15
Nsg16
g17
sg18
Nsg19
Nsg20
Nsg21
Nsg22
S'true'
p1939
sg24
Nsg25
Nsg26
S'LASIX'
p1940
sg28
Nsg29
S'Specific_Interaction'
p1941
sg31
Nsg32
Nsg33
Nsg34
Nsg35
Nsg36
Nsg37
S'norepinephrine'
p1942
sa(dp1943
g2
Nsg3
S'http://bio2rdf.org/drugbank:DB00202'
p1944
sg5
S'http://bio2rdf.org/drugbank:DB00695'
p1945
sg7
Nsg8
Nsg9
Nsg10
Nsg11
Nsg12
Nsg13
Nsg14
Nsg15
Nsg16
g17
sg18
Nsg19
Nsg20
Nsg21
Nsg22
S'true'
p1946
sg24
Nsg25
Nsg26
S'LASIX'
p1947
sg28
Nsg29
S'Increase_Interaction'
p1948
sg31
Nsg32
Nsg33
Nsg34
Nsg35
Nsg36
Nsg37
S'succinylcholine'
p1949
sa(dp1950
g2
Nsg3
S'http://bio2rdf.org/drugbank:DB00364'
p1951
sg5
S'http://bio2rdf.org/drugbank:DB00695'
p1952
sg7
Nsg8
Nsg9
Nsg10
Nsg11
Nsg12
Nsg13
Nsg14
Nsg15
Nsg16
g17
sg18
Nsg19
Nsg20
Nsg21
Nsg22
S'true'
p1953
sg24
Nsg25
Nsg26
S'LASIX'
p1954
sg28
Nsg29
S'Caution_Interaction'
p1955
sg31
Nsg32
Nsg33
Nsg34
Nsg35
Nsg36
Nsg37
S'sucralfate'
p1956
sa(dp1957
g2
Nsg3
S'http://bio2rdf.org/drugbank:DB01199'
p1958
sg5
S'http://bio2rdf.org/drugbank:DB00695'
p1959
sg7
Nsg8
Nsg9
Nsg10
Nsg11
Nsg12
Nsg13
Nsg14
Nsg15
Nsg16
g17
sg18
Nsg19
Nsg20
Nsg21
Nsg22
S'true'
p1960
sg24
Nsg25
Nsg26
S'LASIX'
p1961
sg28
Nsg29
S'Specific_Interaction'
p1962
sg31
Nsg32
Nsg33
Nsg34
Nsg35
Nsg36
Nsg37
S'tubocurarine'
p1963
sa(dp1964
g2
Nsg3
S'http://bio2rdf.org/drugbank:DB00775'
p1965
sg5
S'http://bio2rdf.org/drugbank:DB00451'
p1966
sg7
Nsg8
Nsg9
Nsg10
Nsg11
Nsg12
Nsg13
Nsg14
Nsg15
Nsg16
g17
sg18
Nsg19
Nsg20
Nsg21
Nsg22
S'true'
p1967
sg24
Nsg25
Nsg26
S'levothyroxine'
p1968
sg28
Nsg29
S'Decrease_Interaction'
p1969
sg31
Nsg32
Nsg33
Nsg34
Nsg35
Nsg36
Nsg37
S'AGGRASTAT'
p1970
sa(dp1971
g2
Nsg3
S'http://bio2rdf.org/drugbank:DB00571'
p1972
sg5
S'http://bio2rdf.org/drugbank:DB05291'
p1973
sg7
Nsg8
Nsg9
Nsg10
Nsg11
Nsg12
Nsg13
Nsg14
Nsg15
Nsg16
g17
sg18
Nsg19
Nsg20
Nsg21
Nsg22
S'true'
p1974
sg24
Nsg25
Nsg26
S'Lidocaine Hydrochloride Injection'
p1975
sg28
Nsg29
S'Increase_Interaction'
p1976
sg31
Nsg32
Nsg33
Nsg34
Nsg35
Nsg36
Nsg37
S'propranolol'
p1977
sa(dp1978
g2
Nsg3
S'http://bio2rdf.org/drugbank:DB00571'
p1979
sg5
S'http://bio2rdf.org/drugbank:DB00281'
p1980
sg7
Nsg8
Nsg9
Nsg10
Nsg11
Nsg12
Nsg13
Nsg14
Nsg15
Nsg16
g17
sg18
Nsg19
Nsg20
Nsg21
Nsg22
S'true'
p1981
sg24
Nsg25
Nsg26
S'Lidocaine'
p1982
sg28
Nsg29
S'Increase_Interaction'
p1983
sg31
Nsg32
Nsg33
Nsg34
Nsg35
Nsg36
Nsg37
S'propranolol'
p1984
sa(dp1985
g2
Nsg3
S'http://bio2rdf.org/drugbank:DB01356'
p1986
sg5
S'http://bio2rdf.org/drugbank:DB00722'
p1987
sg7
Nsg8
Nsg9
Nsg10
Nsg11
Nsg12
Nsg13
Nsg14
Nsg15
Nsg16
g17
sg18
Nsg19
Nsg20
Nsg21
Nsg22
S'true'
p1988
sg24
Nsg25
Nsg26
S'lisinopril'
p1989
sg28
Nsg29
S'Caution_Interaction'
p1990
sg31
Nsg32
Nsg33
Nsg34
Nsg35
Nsg36
Nsg37
S'lithium'
p1991
sa(dp1992
g2
Nsg3
S'http://bio2rdf.org/drugbank:DB01345'
p1993
sg5
S'http://bio2rdf.org/drugbank:DB00722'
p1994
sg7
Nsg8
Nsg9
Nsg10
Nsg11
Nsg12
Nsg13
Nsg14
Nsg15
Nsg16
g17
sg18
Nsg19
Nsg20
Nsg21
Nsg22
S'true'
p1995
sg24
Nsg25
Nsg26
S'lisinopril'
p1996
sg28
Nsg29
S'Specific_Interaction'
p1997
sg31
Nsg32
Nsg33
Nsg34
Nsg35
Nsg36
Nsg37
S'potassium supplements'
p1998
sa(dp1999
g2
Nsg3
S'http://bio2rdf.org/drugbank:DB01345'
p2000
sg5
S'http://bio2rdf.org/drugbank:DB00722'
p2001
sg7
Nsg8
Nsg9
Nsg10
Nsg11
Nsg12
Nsg13
Nsg14
Nsg15
Nsg16
g17
sg18
Nsg19
Nsg20
Nsg21
Nsg22
S'true'
p2002
sg24
Nsg25
Nsg26
S'lisinopril'
p2003
sg28
Nsg29
S'Specific_Interaction'
p2004
sg31
Nsg32
Nsg33
Nsg34
Nsg35
Nsg36
Nsg37
S'potassium-containing salt substitutes'
p2005
sa(dp2006
g2
Nsg3
S'http://bio2rdf.org/drugbank:DB00796'
p2007
sg5
S'http://bio2rdf.org/drugbank:DB01356'
p2008
sg7
Nsg8
Nsg9
Nsg10
Nsg11
Nsg12
Nsg13
Nsg14
Nsg15
Nsg16
g17
sg18
Nsg19
Nsg20
Nsg21
Nsg22
S'true'
p2009
sg24
Nsg25
Nsg26
S'lithium'
p2010
sg28
Nsg29
S'Increase_Interaction'
p2011
sg31
Nsg32
Nsg33
Nsg34
Nsg35
Nsg36
Nsg37
S'ATACAND'
p2012
sa(dp2013
g2
Nsg3
S'http://bio2rdf.org/drugbank:DB00796'
p2014
sg5
S'http://bio2rdf.org/drugbank:DB01356'
p2015
sg7
Nsg8
Nsg9
Nsg10
Nsg11
Nsg12
Nsg13
Nsg14
Nsg15
Nsg16
g17
sg18
Nsg19
Nsg20
Nsg21
Nsg22
S'true'
p2016
sg24
Nsg25
Nsg26
S'lithium'
p2017
sg28
Nsg29
S'Increase_Interaction'
p2018
sg31
Nsg32
Nsg33
Nsg34
Nsg35
Nsg36
Nsg37
S'candesartan cilexetil'
p2019
sa(dp2020
g2
Nsg3
S'http://bio2rdf.org/drugbank:DB00310'
p2021
sg5
S'http://bio2rdf.org/drugbank:DB01356'
p2022
sg7
Nsg8
Nsg9
Nsg10
Nsg11
Nsg12
Nsg13
Nsg14
Nsg15
Nsg16
g17
sg18
Nsg19
Nsg20
Nsg21
Nsg22
S'true'
p2023
sg24
Nsg25
Nsg26
S'Lithium'
p2024
sg28
Nsg29
S'Increase_Interaction'
p2025
sg31
Nsg32
Nsg33
Nsg34
Nsg35
Nsg36
Nsg37
S'chlorthalidone'
p2026
sa(dp2027
g2
Nsg3
S'http://bio2rdf.org/drugbank:DB00584'
p2028
sg5
S'http://bio2rdf.org/drugbank:DB01356'
p2029
sg7
Nsg8
Nsg9
Nsg10
Nsg11
Nsg12
Nsg13
Nsg14
Nsg15
Nsg16
g17
sg18
Nsg19
Nsg20
Nsg21
Nsg22
S'true'
p2030
sg24
Nsg25
Nsg26
S'lithium'
p2031
sg28
Nsg29
S'Increase_Interaction'
p2032
sg31
Nsg32
Nsg33
Nsg34
Nsg35
Nsg36
Nsg37
S'enalapril'
p2033
sa(dp2034
g2
Nsg3
S'http://bio2rdf.org/drugbank:DB00542'
p2035
sg5
S'http://bio2rdf.org/drugbank:DB01356'
p2036
sg7
Nsg8
Nsg9
Nsg10
Nsg11
Nsg12
Nsg13
Nsg14
Nsg15
Nsg16
g17
sg18
Nsg19
Nsg20
Nsg21
Nsg22
S'true'
p2037
sg24
Nsg25
Nsg26
S'lithium'
p2038
sg28
Nsg29
S'Caution_Interaction'
p2039
sg31
Nsg32
Nsg33
Nsg34
Nsg35
Nsg36
Nsg37
S'Lotensin'
p2040
sa(dp2041
g2
Nsg3
S'http://bio2rdf.org/drugbank:DB00966'
p2042
sg5
S'http://bio2rdf.org/drugbank:DB01356'
p2043
sg7
Nsg8
Nsg9
Nsg10
Nsg11
Nsg12
Nsg13
Nsg14
Nsg15
Nsg16
g17
sg18
Nsg19
Nsg20
Nsg21
Nsg22
S'true'
p2044
sg24
Nsg25
Nsg26
S'lithium'
p2045
sg28
Nsg29
S'Caution_Interaction'
p2046
sg31
Nsg32
Nsg33
Nsg34
Nsg35
Nsg36
Nsg37
S'telmisartan and hydrochlorothiazide'
p2047
sa(dp2048
g2
Nsg3
S'http://bio2rdf.org/drugbank:DB00584'
p2049
sg5
S'http://bio2rdf.org/drugbank:DB01356'
p2050
sg7
Nsg8
Nsg9
Nsg10
Nsg11
Nsg12
Nsg13
Nsg14
Nsg15
Nsg16
g17
sg18
Nsg19
Nsg20
Nsg21
Nsg22
S'true'
p2051
sg24
Nsg25
Nsg26
S'lithium'
p2052
sg28
Nsg29
S'Increase_Interaction'
p2053
sg31
Nsg32
Nsg33
Nsg34
Nsg35
Nsg36
Nsg37
S'VASOTEC'
p2054
sa(dp2055
g2
Nsg3
S'http://bio2rdf.org/drugbank:DB00661'
p2056
sg5
S'http://bio2rdf.org/drugbank:DB01356'
p2057
sg7
Nsg8
Nsg9
Nsg10
Nsg11
Nsg12
Nsg13
Nsg14
Nsg15
Nsg16
g17
sg18
Nsg19
Nsg20
Nsg21
Nsg22
S'true'
p2058
sg24
Nsg25
Nsg26
S'lithium'
p2059
sg28
Nsg29
S'Specific_Interaction'
p2060
sg31
Nsg32
Nsg33
Nsg34
Nsg35
Nsg36
Nsg37
S'verapamil'
p2061
sa(dp2062
g2
Nsg3
S'http://bio2rdf.org/drugbank:DB01076'
p2063
sg5
S'http://bio2rdf.org/drugbank:DB01601'
p2064
sg7
Nsg8
Nsg9
Nsg10
Nsg11
Nsg12
Nsg13
Nsg14
Nsg15
Nsg16
g17
sg18
Nsg19
Nsg20
Nsg21
Nsg22
S'true'
p2065
sg24
Nsg25
Nsg26
S'lopinavir plus ritonavir'
p2066
sg28
Nsg29
S'Caution_Interaction'
p2067
sg31
Nsg32
Nsg33
Nsg34
Nsg35
Nsg36
Nsg37
S'atorvastatin'
p2068
sa(dp2069
g2
Nsg3
S'http://bio2rdf.org/drugbank:DB00575'
p2070
sg5
S'http://bio2rdf.org/drugbank:DB00264'
p2071
sg7
Nsg8
Nsg9
Nsg10
Nsg11
Nsg12
Nsg13
Nsg14
Nsg15
Nsg16
g17
sg18
Nsg19
Nsg20
Nsg21
Nsg22
S'true'
p2072
sg24
Nsg25
Nsg26
S'Lopressor'
p2073
sg28
Nsg29
S'Caution_Interaction'
p2074
sg31
Nsg32
Nsg33
Nsg34
Nsg35
Nsg36
Nsg37
S'clonidine'
p2075
sa(dp2076
g2
Nsg3
S'http://bio2rdf.org/drugbank:DB01118'
p2077
sg5
S'http://bio2rdf.org/drugbank:DB00455'
p2078
sg7
Nsg8
Nsg9
Nsg10
Nsg11
Nsg12
Nsg13
Nsg14
Nsg15
Nsg16
g17
sg18
Nsg19
Nsg20
Nsg21
Nsg22
S'true'
p2079
sg24
Nsg25
Nsg26
S'loratadine'
p2080
sg28
Nsg29
S'Specific_Interaction'
p2081
sg31
Nsg32
Nsg33
Nsg34
Nsg35
Nsg36
Nsg37
S'amiodarone'
p2082
sa(dp2083
g2
Nsg3
S'http://bio2rdf.org/drugbank:DB00999'
p2084
sg5
S'http://bio2rdf.org/drugbank:DB00678'
p2085
sg7
Nsg8
Nsg9
Nsg10
Nsg11
Nsg12
Nsg13
Nsg14
Nsg15
Nsg16
g17
sg18
Nsg19
Nsg20
Nsg21
Nsg22
S'true'
p2086
sg24
Nsg25
Nsg26
S'losartan potassium'
p2087
sg28
Nsg29
S'Specific_Interaction'
p2088
sg31
Nsg32
Nsg33
Nsg34
Nsg35
Nsg36
Nsg37
S'hydrochlorothiazide'
p2089
sa(dp2090
g2
Nsg3
S'http://bio2rdf.org/drugbank:DB01345'
p2091
sg5
S'http://bio2rdf.org/drugbank:DB00678'
p2092
sg7
Nsg8
Nsg9
Nsg10
Nsg11
Nsg12
Nsg13
Nsg14
Nsg15
Nsg16
g17
sg18
Nsg19
Nsg20
Nsg21
Nsg22
S'true'
p2093
sg24
Nsg25
Nsg26
S'losartan potassium'
p2094
sg28
Nsg29
S'Caution_Interaction'
p2095
sg31
Nsg32
Nsg33
Nsg34
Nsg35
Nsg36
Nsg37
S'potassium supplements'
p2096
sa(dp2097
g2
Nsg3
S'http://bio2rdf.org/drugbank:DB00999'
p2098
sg5
S'http://bio2rdf.org/drugbank:DB00678'
p2099
sg7
Nsg8
Nsg9
Nsg10
Nsg11
Nsg12
Nsg13
Nsg14
Nsg15
Nsg16
g17
sg18
Nsg19
Nsg20
Nsg21
Nsg22
S'true'
p2100
sg24
Nsg25
Nsg26
S'losartan'
p2101
sg28
Nsg29
S'Specific_Interaction'
p2102
sg31
Nsg32
Nsg33
Nsg34
Nsg35
Nsg36
Nsg37
S'hydrochlorothiazide'
p2103
sa(dp2104
g2
Nsg3
S'http://bio2rdf.org/drugbank:DB01045'
p2105
sg5
S'http://bio2rdf.org/drugbank:DB00678'
p2106
sg7
Nsg8
Nsg9
Nsg10
Nsg11
Nsg12
Nsg13
Nsg14
Nsg15
Nsg16
g17
sg18
Nsg19
Nsg20
Nsg21
Nsg22
S'true'
p2107
sg24
Nsg25
Nsg26
S'losartan'
p2108
sg28
Nsg29
S'Decrease_Interaction'
p2109
sg31
Nsg32
Nsg33
Nsg34
Nsg35
Nsg36
Nsg37
S'rifampin'
p2110
sa(dp2111
g2
Nsg3
S'http://bio2rdf.org/drugbank:DB01345'
p2112
sg5
S'http://bio2rdf.org/drugbank:DB00542'
p2113
sg7
Nsg8
Nsg9
Nsg10
Nsg11
Nsg12
Nsg13
Nsg14
Nsg15
Nsg16
g17
sg18
Nsg19
Nsg20
Nsg21
Nsg22
S'true'
p2114
sg24
Nsg25
Nsg26
S'Lotensin'
p2115
sg28
Nsg29
S'Specific_Interaction'
p2116
sg31
Nsg32
Nsg33
Nsg34
Nsg35
Nsg36
Nsg37
S'potassium salt substitutes'
p2117
sa(dp2118
g2
Nsg3
S'http://bio2rdf.org/drugbank:DB01345'
p2119
sg5
S'http://bio2rdf.org/drugbank:DB00542'
p2120
sg7
Nsg8
Nsg9
Nsg10
Nsg11
Nsg12
Nsg13
Nsg14
Nsg15
Nsg16
g17
sg18
Nsg19
Nsg20
Nsg21
Nsg22
S'true'
p2121
sg24
Nsg25
Nsg26
S'Lotensin'
p2122
sg28
Nsg29
S'Specific_Interaction'
p2123
sg31
Nsg32
Nsg33
Nsg34
Nsg35
Nsg36
Nsg37
S'potassium supplements'
p2124
sa(dp2125
g2
Nsg3
S'http://bio2rdf.org/drugbank:DB01356'
p2126
sg5
S'http://bio2rdf.org/drugbank:DB00381'
p2127
sg7
Nsg8
Nsg9
Nsg10
Nsg11
Nsg12
Nsg13
Nsg14
Nsg15
Nsg16
g17
sg18
Nsg19
Nsg20
Nsg21
Nsg22
S'true'
p2128
sg24
Nsg25
Nsg26
S'Lotrel'
p2129
sg28
Nsg29
S'Caution_Interaction'
p2130
sg31
Nsg32
Nsg33
Nsg34
Nsg35
Nsg36
Nsg37
S'lithium'
p2131
sa(dp2132
g2
Nsg3
S'http://bio2rdf.org/drugbank:DB01344'
p2133
sg5
S'http://bio2rdf.org/drugbank:DB01378'
p2134
sg7
Nsg8
Nsg9
Nsg10
Nsg11
Nsg12
Nsg13
Nsg14
Nsg15
Nsg16
g17
sg18
Nsg19
Nsg20
Nsg21
Nsg22
S'true'
p2135
sg24
Nsg25
Nsg26
S'Magnesium hydroxide'
p2136
sg28
Nsg29
S'Caution_Interaction'
p2137
sg31
Nsg32
Nsg33
Nsg34
Nsg35
Nsg36
Nsg37
S'KAYEXALATE'
p2138
sa(dp2139
g2
Nsg3
S'http://bio2rdf.org/drugbank:DB01345'
p2140
sg5
S'http://bio2rdf.org/drugbank:DB00519'
p2141
sg7
Nsg8
Nsg9
Nsg10
Nsg11
Nsg12
Nsg13
Nsg14
Nsg15
Nsg16
g17
sg18
Nsg19
Nsg20
Nsg21
Nsg22
S'true'
p2142
sg24
Nsg25
Nsg26
S'MAVIK'
p2143
sg28
Nsg29
S'Specific_Interaction'
p2144
sg31
Nsg32
Nsg33
Nsg34
Nsg35
Nsg36
Nsg37
S'potassium salt substitutes'
p2145
sa(dp2146
g2
Nsg3
S'http://bio2rdf.org/drugbank:DB01345'
p2147
sg5
S'http://bio2rdf.org/drugbank:DB00519'
p2148
sg7
Nsg8
Nsg9
Nsg10
Nsg11
Nsg12
Nsg13
Nsg14
Nsg15
Nsg16
g17
sg18
Nsg19
Nsg20
Nsg21
Nsg22
S'true'
p2149
sg24
Nsg25
Nsg26
S'MAVIK'
p2150
sg28
Nsg29
S'Specific_Interaction'
p2151
sg31
Nsg32
Nsg33
Nsg34
Nsg35
Nsg36
Nsg37
S'potassium sparing diuretics'
p2152
sa(dp2153
g2
Nsg3
S'http://bio2rdf.org/drugbank:DB01345'
p2154
sg5
S'http://bio2rdf.org/drugbank:DB00519'
p2155
sg7
Nsg8
Nsg9
Nsg10
Nsg11
Nsg12
Nsg13
Nsg14
Nsg15
Nsg16
g17
sg18
Nsg19
Nsg20
Nsg21
Nsg22
S'true'
p2156
sg24
Nsg25
Nsg26
S'MAVIK'
p2157
sg28
Nsg29
S'Specific_Interaction'
p2158
sg31
Nsg32
Nsg33
Nsg34
Nsg35
Nsg36
Nsg37
S'potassium supplements'
p2159
sa(dp2160
g2
Nsg3
S'http://bio2rdf.org/drugbank:DB00571'
p2161
sg5
S'http://bio2rdf.org/drugbank:DB01028'
p2162
sg7
Nsg8
Nsg9
Nsg10
Nsg11
Nsg12
Nsg13
Nsg14
Nsg15
Nsg16
g17
sg18
Nsg19
Nsg20
Nsg21
Nsg22
S'true'
p2163
sg24
Nsg25
Nsg26
S'Methoxyflurane'
p2164
sg28
Nsg29
S'Specific_Interaction'
p2165
sg31
Nsg32
Nsg33
Nsg34
Nsg35
Nsg36
Nsg37
S'propranolol'
p2166
sa(dp2167
g2
Nsg3
S'http://bio2rdf.org/drugbank:DB00390'
p2168
sg5
S'http://bio2rdf.org/drugbank:DB01233'
p2169
sg7
Nsg8
Nsg9
Nsg10
Nsg11
Nsg12
Nsg13
Nsg14
Nsg15
Nsg16
g17
sg18
Nsg19
Nsg20
Nsg21
Nsg22
S'true'
p2170
sg24
Nsg25
Nsg26
S'metoclopramide'
p2171
sg28
Nsg29
S'Decrease_Interaction'
p2172
sg31
Nsg32
Nsg33
Nsg34
Nsg35
Nsg36
Nsg37
S'digoxin'
p2173
sa(dp2174
g2
Nsg3
S'http://bio2rdf.org/drugbank:DB00368'
p2175
sg5
S'http://bio2rdf.org/drugbank:DB00524'
p2176
sg7
Nsg8
Nsg9
Nsg10
Nsg11
Nsg12
Nsg13
Nsg14
Nsg15
Nsg16
g17
sg18
Nsg19
Nsg20
Nsg21
Nsg22
S'true'
p2177
sg24
Nsg25
Nsg26
S'Metolazone'
p2178
sg28
Nsg29
S'Specific_Interaction'
p2179
sg31
Nsg32
Nsg33
Nsg34
Nsg35
Nsg36
Nsg37
S'norepinephrine'
p2180
sa(dp2181
g2
Nsg3
S'http://bio2rdf.org/drugbank:DB00281'
p2182
sg5
S'http://bio2rdf.org/drugbank:DB00264'
p2183
sg7
Nsg8
Nsg9
Nsg10
Nsg11
Nsg12
Nsg13
Nsg14
Nsg15
Nsg16
g17
sg18
Nsg19
Nsg20
Nsg21
Nsg22
S'true'
p2184
sg24
Nsg25
Nsg26
S'metoprolol'
p2185
sg28
Nsg29
S'Increase_Interaction'
p2186
sg31
Nsg32
Nsg33
Nsg34
Nsg35
Nsg36
Nsg37
S'lidocaine'
p2187
sa(dp2188
g2
Nsg3
S'http://bio2rdf.org/drugbank:DB00661'
p2189
sg5
S'http://bio2rdf.org/drugbank:DB00264'
p2190
sg7
Nsg8
Nsg9
Nsg10
Nsg11
Nsg12
Nsg13
Nsg14
Nsg15
Nsg16
g17
sg18
Nsg19
Nsg20
Nsg21
Nsg22
S'true'
p2191
sg24
Nsg25
Nsg26
S'metoprolol'
p2192
sg28
Nsg29
S'Increase_Interaction'
p2193
sg31
Nsg32
Nsg33
Nsg34
Nsg35
Nsg36
Nsg37
S'verapamil'
p2194
sa(dp2195
g2
Nsg3
S'http://bio2rdf.org/drugbank:DB00390'
p2196
sg5
S'http://bio2rdf.org/drugbank:DB00966'
p2197
sg7
Nsg8
Nsg9
Nsg10
Nsg11
Nsg12
Nsg13
Nsg14
Nsg15
Nsg16
g17
sg18
Nsg19
Nsg20
Nsg21
Nsg22
S'true'
p2198
sg24
Nsg25
Nsg26
S'MICARDIS'
p2199
sg28
Nsg29
S'Increase_Interaction'
p2200
sg31
Nsg32
Nsg33
Nsg34
Nsg35
Nsg36
Nsg37
S'digoxin'
p2201
sa(dp2202
g2
Nsg3
S'http://bio2rdf.org/drugbank:DB00178'
p2203
sg5
S'http://bio2rdf.org/drugbank:DB00966'
p2204
sg7
Nsg8
Nsg9
Nsg10
Nsg11
Nsg12
Nsg13
Nsg14
Nsg15
Nsg16
g17
sg18
Nsg19
Nsg20
Nsg21
Nsg22
S'true'
p2205
sg24
Nsg25
Nsg26
S'MICARDIS'
p2206
sg28
Nsg29
S'Caution_Interaction'
p2207
sg31
Nsg32
Nsg33
Nsg34
Nsg35
Nsg36
Nsg37
S'ramipril'
p2208
sa(dp2209
g2
Nsg3
S'http://bio2rdf.org/drugbank:DB00178'
p2210
sg5
S'http://bio2rdf.org/drugbank:DB00966'
p2211
sg7
Nsg8
Nsg9
Nsg10
Nsg11
Nsg12
Nsg13
Nsg14
Nsg15
Nsg16
g17
sg18
Nsg19
Nsg20
Nsg21
Nsg22
S'true'
p2212
sg24
Nsg25
Nsg26
S'MICARDIS'
p2213
sg28
Nsg29
S'Specific_Interaction'
p2214
sg31
Nsg32
Nsg33
Nsg34
Nsg35
Nsg36
Nsg37
S'ramipril'
p2215
sa(dp2216
g2
Nsg3
S'http://bio2rdf.org/drugbank:DB00343'
p2217
sg5
S'http://bio2rdf.org/drugbank:DB00683'
p2218
sg7
Nsg8
Nsg9
Nsg10
Nsg11
Nsg12
Nsg13
Nsg14
Nsg15
Nsg16
g17
sg18
Nsg19
Nsg20
Nsg21
Nsg22
S'true'
p2219
sg24
Nsg25
Nsg26
S'midazolam'
p2220
sg28
Nsg29
S'Increase_Interaction'
p2221
sg31
Nsg32
Nsg33
Nsg34
Nsg35
Nsg36
Nsg37
S'diltiazem'
p2222
sa(dp2223
g2
Nsg3
S'http://bio2rdf.org/drugbank:DB00898'
p2224
sg5
S'http://bio2rdf.org/drugbank:DB00457'
p2225
sg7
Nsg8
Nsg9
Nsg10
Nsg11
Nsg12
Nsg13
Nsg14
Nsg15
Nsg16
g17
sg18
Nsg19
Nsg20
Nsg21
Nsg22
S'true'
p2226
sg24
Nsg25
Nsg26
S'MINIPRESS'
p2227
sg28
Nsg29
S'Caution_Interaction'
p2228
sg31
Nsg32
Nsg33
Nsg34
Nsg35
Nsg36
Nsg37
S'alcohol'
p2229
sa(dp2230
g2
Nsg3
S'http://bio2rdf.org/drugbank:DB00203'
p2231
sg5
S'http://bio2rdf.org/drugbank:DB01020'
p2232
sg7
Nsg8
Nsg9
Nsg10
Nsg11
Nsg12
Nsg13
Nsg14
Nsg15
Nsg16
g17
sg18
Nsg19
Nsg20
Nsg21
Nsg22
S'true'
p2233
sg24
Nsg25
Nsg26
S'monoket'
p2234
sg28
Nsg29
S'Specific_Interaction'
p2235
sg31
Nsg32
Nsg33
Nsg34
Nsg35
Nsg36
Nsg37
S'sildenafil'
p2236
sa(dp2237
g2
Nsg3
S'http://bio2rdf.org/drugbank:DB00281'
p2238
sg5
S'http://bio2rdf.org/drugbank:DB01203'
p2239
sg7
Nsg8
Nsg9
Nsg10
Nsg11
Nsg12
Nsg13
Nsg14
Nsg15
Nsg16
g17
sg18
Nsg19
Nsg20
Nsg21
Nsg22
S'true'
p2240
sg24
Nsg25
Nsg26
S'nadolol'
p2241
sg28
Nsg29
S'Increase_Interaction'
p2242
sg31
Nsg32
Nsg33
Nsg34
Nsg35
Nsg36
Nsg37
S'lidocaine'
p2243
sa(dp2244
g2
Nsg3
S'http://bio2rdf.org/drugbank:DB00203'
p2245
sg5
S'http://bio2rdf.org/drugbank:DB04861'
p2246
sg7
Nsg8
Nsg9
Nsg10
Nsg11
Nsg12
Nsg13
Nsg14
Nsg15
Nsg16
g17
sg18
Nsg19
Nsg20
Nsg21
Nsg22
S'true'
p2247
sg24
Nsg25
Nsg26
S'nebivolol'
p2248
sg28
Nsg29
S'Decrease_Interaction'
p2249
sg31
Nsg32
Nsg33
Nsg34
Nsg35
Nsg36
Nsg37
S'sildenafil'
p2250
sa(dp2251
g2
Nsg3
S'http://bio2rdf.org/drugbank:DB01076'
p2252
sg5
S'http://bio2rdf.org/drugbank:DB00220'
p2253
sg7
Nsg8
Nsg9
Nsg10
Nsg11
Nsg12
Nsg13
Nsg14
Nsg15
Nsg16
g17
sg18
Nsg19
Nsg20
Nsg21
Nsg22
S'true'
p2254
sg24
Nsg25
Nsg26
S'nelfinavir'
p2255
sg28
Nsg29
S'Caution_Interaction'
p2256
sg31
Nsg32
Nsg33
Nsg34
Nsg35
Nsg36
Nsg37
S'atorvastatin'
p2257
sa(dp2258
g2
Nsg3
S'http://bio2rdf.org/drugbank:DB00390'
p2259
sg5
S'http://bio2rdf.org/drugbank:DB00994'
p2260
sg7
Nsg8
Nsg9
Nsg10
Nsg11
Nsg12
Nsg13
Nsg14
Nsg15
Nsg16
g17
sg18
Nsg19
Nsg20
Nsg21
Nsg22
S'true'
p2261
sg24
Nsg25
Nsg26
S'neomycin'
p2262
sg28
Nsg29
S'Decrease_Interaction'
p2263
sg31
Nsg32
Nsg33
Nsg34
Nsg35
Nsg36
Nsg37
S'digoxin'
p2264
sa(dp2265
g2
Nsg3
S'http://bio2rdf.org/drugbank:DB00091'
p2266
sg5
S'http://bio2rdf.org/drugbank:DB00622'
p2267
sg7
Nsg8
Nsg9
Nsg10
Nsg11
Nsg12
Nsg13
Nsg14
Nsg15
Nsg16
g17
sg18
Nsg19
Nsg20
Nsg21
Nsg22
S'true'
p2268
sg24
Nsg25
Nsg26
S'Nicardipine'
p2269
sg28
Nsg29
S'Increase_Interaction'
p2270
sg31
Nsg32
Nsg33
Nsg34
Nsg35
Nsg36
Nsg37
S'cyclosporine'
p2271
sa(dp2272
g2
Nsg3
S'http://bio2rdf.org/drugbank:DB00501'
p2273
sg5
S'http://bio2rdf.org/drugbank:DB01115'
p2274
sg7
Nsg8
Nsg9
Nsg10
Nsg11
Nsg12
Nsg13
Nsg14
Nsg15
Nsg16
g17
sg18
Nsg19
Nsg20
Nsg21
Nsg22
S'true'
p2275
sg24
Nsg25
Nsg26
S'nifedipine'
p2276
sg28
Nsg29
S'Caution_Interaction'
p2277
sg31
Nsg32
Nsg33
Nsg34
Nsg35
Nsg36
Nsg37
S'cimetidine'
p2278
sa(dp2279
g2
Nsg3
S'http://bio2rdf.org/drugbank:DB00501'
p2280
sg5
S'http://bio2rdf.org/drugbank:DB01115'
p2281
sg7
Nsg8
Nsg9
Nsg10
Nsg11
Nsg12
Nsg13
Nsg14
Nsg15
Nsg16
g17
sg18
Nsg19
Nsg20
Nsg21
Nsg22
S'true'
p2282
sg24
Nsg25
Nsg26
S'nifedipine'
p2283
sg28
Nsg29
S'Increase_Interaction'
p2284
sg31
Nsg32
Nsg33
Nsg34
Nsg35
Nsg36
Nsg37
S'cimetidine'
p2285
sa(dp2286
g2
Nsg3
S'http://bio2rdf.org/drugbank:DB00390'
p2287
sg5
S'http://bio2rdf.org/drugbank:DB01115'
p2288
sg7
Nsg8
Nsg9
Nsg10
Nsg11
Nsg12
Nsg13
Nsg14
Nsg15
Nsg16
g17
sg18
Nsg19
Nsg20
Nsg21
Nsg22
S'true'
p2289
sg24
Nsg25
Nsg26
S'nifedipine'
p2290
sg28
Nsg29
S'Increase_Interaction'
p2291
sg31
Nsg32
Nsg33
Nsg34
Nsg35
Nsg36
Nsg37
S'digoxin'
p2292
sa(dp2293
g2
Nsg3
S'http://bio2rdf.org/drugbank:DB00908'
p2294
sg5
S'http://bio2rdf.org/drugbank:DB01115'
p2295
sg7
Nsg8
Nsg9
Nsg10
Nsg11
Nsg12
Nsg13
Nsg14
Nsg15
Nsg16
g17
sg18
Nsg19
Nsg20
Nsg21
Nsg22
S'true'
p2296
sg24
Nsg25
Nsg26
S'nifedipine'
p2297
sg28
Nsg29
S'Decrease_Interaction'
p2298
sg31
Nsg32
Nsg33
Nsg34
Nsg35
Nsg36
Nsg37
S'quinidine'
p2299
sa(dp2300
g2
Nsg3
S'http://bio2rdf.org/drugbank:DB00501'
p2301
sg5
S'http://bio2rdf.org/drugbank:DB00401'
p2302
sg7
Nsg8
Nsg9
Nsg10
Nsg11
Nsg12
Nsg13
Nsg14
Nsg15
Nsg16
g17
sg18
Nsg19
Nsg20
Nsg21
Nsg22
S'true'
p2303
sg24
Nsg25
Nsg26
S'nisoldipine'
p2304
sg28
Nsg29
S'Increase_Interaction'
p2305
sg31
Nsg32
Nsg33
Nsg34
Nsg35
Nsg36
Nsg37
S'cimetidine'
p2306
sa(dp2307
g2
Nsg3
S'http://bio2rdf.org/drugbank:DB00945'
p2308
sg5
S'http://bio2rdf.org/drugbank:DB00727'
p2309
sg7
Nsg8
Nsg9
Nsg10
Nsg11
Nsg12
Nsg13
Nsg14
Nsg15
Nsg16
g17
sg18
Nsg19
Nsg20
Nsg21
Nsg22
S'true'
p2310
sg24
Nsg25
Nsg26
S'nitroglycerin'
p2311
sg28
Nsg29
S'Specific_Interaction'
p2312
sg31
Nsg32
Nsg33
Nsg34
Nsg35
Nsg36
Nsg37
S'aspirin'
p2313
sa(dp2314
g2
Nsg3
S'http://bio2rdf.org/drugbank:DB00203'
p2315
sg5
S'http://bio2rdf.org/drugbank:DB00727'
p2316
sg7
Nsg8
Nsg9
Nsg10
Nsg11
Nsg12
Nsg13
Nsg14
Nsg15
Nsg16
g17
sg18
Nsg19
Nsg20
Nsg21
Nsg22
S'true'
p2317
sg24
Nsg25
Nsg26
S'Nitroglycerin'
p2318
sg28
Nsg29
S'Specific_Interaction'
p2319
sg31
Nsg32
Nsg33
Nsg34
Nsg35
Nsg36
Nsg37
S'sildenafil'
p2320
sa(dp2321
g2
Nsg3
S'http://bio2rdf.org/drugbank:DB00009'
p2322
sg5
S'http://bio2rdf.org/drugbank:DB00727'
p2323
sg7
Nsg8
Nsg9
Nsg10
Nsg11
Nsg12
Nsg13
Nsg14
Nsg15
Nsg16
g17
sg18
Nsg19
Nsg20
Nsg21
Nsg22
S'true'
p2324
sg24
Nsg25
Nsg26
S'nitroglycerin'
p2325
sg28
Nsg29
S'Specific_Interaction'
p2326
sg31
Nsg32
Nsg33
Nsg34
Nsg35
Nsg36
Nsg37
S'tissue-type plasminogen activator'
p2327
sa(dp2328
g2
Nsg3
S'http://bio2rdf.org/drugbank:DB00009'
p2329
sg5
S'http://bio2rdf.org/drugbank:DB00727'
p2330
sg7
Nsg8
Nsg9
Nsg10
Nsg11
Nsg12
Nsg13
Nsg14
Nsg15
Nsg16
g17
sg18
Nsg19
Nsg20
Nsg21
Nsg22
S'true'
p2331
sg24
Nsg25
Nsg26
S'nitroglycerin'
p2332
sg28
Nsg29
S'Caution_Interaction'
p2333
sg31
Nsg32
Nsg33
Nsg34
Nsg35
Nsg36
Nsg37
S't-PA'
p2334
sa(dp2335
g2
Nsg3
S'http://bio2rdf.org/drugbank:DB00908'
p2336
sg5
S'http://bio2rdf.org/drugbank:DB00280'
p2337
sg7
Nsg8
Nsg9
Nsg10
Nsg11
Nsg12
Nsg13
Nsg14
Nsg15
Nsg16
g17
sg18
Nsg19
Nsg20
Nsg21
Nsg22
S'true'
p2338
sg24
Nsg25
Nsg26
S'Norpace'
p2339
sg28
Nsg29
S'Decrease_Interaction'
p2340
sg31
Nsg32
Nsg33
Nsg34
Nsg35
Nsg36
Nsg37
S'quinidine'
p2341
sa(dp2342
g2
Nsg3
S'http://bio2rdf.org/drugbank:DB00775'
p2343
sg5
S'http://bio2rdf.org/drugbank:DB00338'
p2344
sg7
Nsg8
Nsg9
Nsg10
Nsg11
Nsg12
Nsg13
Nsg14
Nsg15
Nsg16
g17
sg18
Nsg19
Nsg20
Nsg21
Nsg22
S'true'
p2345
sg24
Nsg25
Nsg26
S'omeprazole'
p2346
sg28
Nsg29
S'Decrease_Interaction'
p2347
sg31
Nsg32
Nsg33
Nsg34
Nsg35
Nsg36
Nsg37
S'AGGRASTAT'
p2348
sa(dp2349
g2
Nsg3
S'http://bio2rdf.org/drugbank:DB01166'
p2350
sg5
S'http://bio2rdf.org/drugbank:DB00338'
p2351
sg7
Nsg8
Nsg9
Nsg10
Nsg11
Nsg12
Nsg13
Nsg14
Nsg15
Nsg16
g17
sg18
Nsg19
Nsg20
Nsg21
Nsg22
S'true'
p2352
sg24
Nsg25
Nsg26
S'omeprazole'
p2353
sg28
Nsg29
S'Increase_Interaction'
p2354
sg31
Nsg32
Nsg33
Nsg34
Nsg35
Nsg36
Nsg37
S'cilostazol'
p2355
sa(dp2356
g2
Nsg3
S'http://bio2rdf.org/drugbank:DB00758'
p2357
sg5
S'http://bio2rdf.org/drugbank:DB00338'
p2358
sg7
Nsg8
Nsg9
Nsg10
Nsg11
Nsg12
Nsg13
Nsg14
Nsg15
Nsg16
g17
sg18
Nsg19
Nsg20
Nsg21
Nsg22
S'true'
p2359
sg24
Nsg25
Nsg26
S'omeprazole'
p2360
sg28
Nsg29
S'Specific_Interaction'
p2361
sg31
Nsg32
Nsg33
Nsg34
Nsg35
Nsg36
Nsg37
S'Plavix'
p2362
sa(dp2363
g2
Nsg3
S'http://bio2rdf.org/drugbank:DB00758'
p2364
sg5
S'http://bio2rdf.org/drugbank:DB00213'
p2365
sg7
Nsg8
Nsg9
Nsg10
Nsg11
Nsg12
Nsg13
Nsg14
Nsg15
Nsg16
g17
sg18
Nsg19
Nsg20
Nsg21
Nsg22
S'true'
p2366
sg24
Nsg25
Nsg26
S'pantoprazole'
p2367
sg28
Nsg29
S'Specific_Interaction'
p2368
sg31
Nsg32
Nsg33
Nsg34
Nsg35
Nsg36
Nsg37
S'Plavix'
p2369
sa(dp2370
g2
Nsg3
S'http://bio2rdf.org/drugbank:DB00898'
p2371
sg5
S'http://bio2rdf.org/drugbank:DB01359'
p2372
sg7
Nsg8
Nsg9
Nsg10
Nsg11
Nsg12
Nsg13
Nsg14
Nsg15
Nsg16
g17
sg18
Nsg19
Nsg20
Nsg21
Nsg22
S'true'
p2373
sg24
Nsg25
Nsg26
S'penbutolol'
p2374
sg28
Nsg29
S'Specific_Interaction'
p2375
sg31
Nsg32
Nsg33
Nsg34
Nsg35
Nsg36
Nsg37
S'alcohol'
p2376
sa(dp2377
g2
Nsg3
S'http://bio2rdf.org/drugbank:DB00281'
p2378
sg5
S'http://bio2rdf.org/drugbank:DB01359'
p2379
sg7
Nsg8
Nsg9
Nsg10
Nsg11
Nsg12
Nsg13
Nsg14
Nsg15
Nsg16
g17
sg18
Nsg19
Nsg20
Nsg21
Nsg22
S'true'
p2380
sg24
Nsg25
Nsg26
S'Penbutolol'
p2381
sg28
Nsg29
S'Decrease_Interaction'
p2382
sg31
Nsg32
Nsg33
Nsg34
Nsg35
Nsg36
Nsg37
S'lidocaine'
p2383
sa(dp2384
g2
Nsg3
S'http://bio2rdf.org/drugbank:DB00678'
p2385
sg5
S'http://bio2rdf.org/drugbank:DB01174'
p2386
sg7
Nsg8
Nsg9
Nsg10
Nsg11
Nsg12
Nsg13
Nsg14
Nsg15
Nsg16
g17
sg18
Nsg19
Nsg20
Nsg21
Nsg22
S'true'
p2387
sg24
Nsg25
Nsg26
S'phenobarbital'
p2388
sg28
Nsg29
S'Decrease_Interaction'
p2389
sg31
Nsg32
Nsg33
Nsg34
Nsg35
Nsg36
Nsg37
S'losartan'
p2390
sa(dp2391
g2
Nsg3
S'http://bio2rdf.org/drugbank:DB00661'
p2392
sg5
S'http://bio2rdf.org/drugbank:DB01174'
p2393
sg7
Nsg8
Nsg9
Nsg10
Nsg11
Nsg12
Nsg13
Nsg14
Nsg15
Nsg16
g17
sg18
Nsg19
Nsg20
Nsg21
Nsg22
S'true'
p2394
sg24
Nsg25
Nsg26
S'Phenobarbital'
p2395
sg28
Nsg29
S'Decrease_Interaction'
p2396
sg31
Nsg32
Nsg33
Nsg34
Nsg35
Nsg36
Nsg37
S'verapamil'
p2397
sa(dp2398
g2
Nsg3
S'http://bio2rdf.org/drugbank:DB01118'
p2399
sg5
S'http://bio2rdf.org/drugbank:DB00252'
p2400
sg7
Nsg8
Nsg9
Nsg10
Nsg11
Nsg12
Nsg13
Nsg14
Nsg15
Nsg16
g17
sg18
Nsg19
Nsg20
Nsg21
Nsg22
S'true'
p2401
sg24
Nsg25
Nsg26
S'Phenytoin'
p2402
sg28
Nsg29
S'Decrease_Interaction'
p2403
sg31
Nsg32
Nsg33
Nsg34
Nsg35
Nsg36
Nsg37
S'amiodarone'
p2404
sa(dp2405
g2
Nsg3
S'http://bio2rdf.org/drugbank:DB01118'
p2406
sg5
S'http://bio2rdf.org/drugbank:DB00252'
p2407
sg7
Nsg8
Nsg9
Nsg10
Nsg11
Nsg12
Nsg13
Nsg14
Nsg15
Nsg16
g17
sg18
Nsg19
Nsg20
Nsg21
Nsg22
S'true'
p2408
sg24
Nsg25
Nsg26
S'phenytoin'
p2409
sg28
Nsg29
S'Increase_Interaction'
p2410
sg31
Nsg32
Nsg33
Nsg34
Nsg35
Nsg36
Nsg37
S'amiodarone'
p2411
sa(dp2412
g2
Nsg3
S'http://bio2rdf.org/drugbank:DB00280'
p2413
sg5
S'http://bio2rdf.org/drugbank:DB00252'
p2414
sg7
Nsg8
Nsg9
Nsg10
Nsg11
Nsg12
Nsg13
Nsg14
Nsg15
Nsg16
g17
sg18
Nsg19
Nsg20
Nsg21
Nsg22
S'true'
p2415
sg24
Nsg25
Nsg26
S'phenytoin'
p2416
sg28
Nsg29
S'Decrease_Interaction'
p2417
sg31
Nsg32
Nsg33
Nsg34
Nsg35
Nsg36
Nsg37
S'disopyramide'
p2418
sa(dp2419
g2
Nsg3
S'http://bio2rdf.org/drugbank:DB00695'
p2420
sg5
S'http://bio2rdf.org/drugbank:DB00252'
p2421
sg7
Nsg8
Nsg9
Nsg10
Nsg11
Nsg12
Nsg13
Nsg14
Nsg15
Nsg16
g17
sg18
Nsg19
Nsg20
Nsg21
Nsg22
S'true'
p2422
sg24
Nsg25
Nsg26
S'phenytoin'
p2423
sg28
Nsg29
S'Decrease_Interaction'
p2424
sg31
Nsg32
Nsg33
Nsg34
Nsg35
Nsg36
Nsg37
S'furosemide'
p2425
sa(dp2426
g2
Nsg3
S'http://bio2rdf.org/drugbank:DB00695'
p2427
sg5
S'http://bio2rdf.org/drugbank:DB00252'
p2428
sg7
Nsg8
Nsg9
Nsg10
Nsg11
Nsg12
Nsg13
Nsg14
Nsg15
Nsg16
g17
sg18
Nsg19
Nsg20
Nsg21
Nsg22
S'true'
p2429
sg24
Nsg25
Nsg26
S'Phenytoin'
p2430
sg28
Nsg29
S'Specific_Interaction'
p2431
sg31
Nsg32
Nsg33
Nsg34
Nsg35
Nsg36
Nsg37
S'LASIX'
p2432
sa(dp2433
g2
Nsg3
S'http://bio2rdf.org/drugbank:DB00281'
p2434
sg5
S'http://bio2rdf.org/drugbank:DB00252'
p2435
sg7
Nsg8
Nsg9
Nsg10
Nsg11
Nsg12
Nsg13
Nsg14
Nsg15
Nsg16
g17
sg18
Nsg19
Nsg20
Nsg21
Nsg22
S'true'
p2436
sg24
Nsg25
Nsg26
S'Phenytoin'
p2437
sg28
Nsg29
S'Specific_Interaction'
p2438
sg31
Nsg32
Nsg33
Nsg34
Nsg35
Nsg36
Nsg37
S'lidocaine'
p2439
sa(dp2440
g2
Nsg3
S'http://bio2rdf.org/drugbank:DB00401'
p2441
sg5
S'http://bio2rdf.org/drugbank:DB00252'
p2442
sg7
Nsg8
Nsg9
Nsg10
Nsg11
Nsg12
Nsg13
Nsg14
Nsg15
Nsg16
g17
sg18
Nsg19
Nsg20
Nsg21
Nsg22
S'true'
p2443
sg24
Nsg25
Nsg26
S'phenytoin'
p2444
sg28
Nsg29
S'Decrease_Interaction'
p2445
sg31
Nsg32
Nsg33
Nsg34
Nsg35
Nsg36
Nsg37
S'nisoldipine'
p2446
sa(dp2447
g2
Nsg3
S'http://bio2rdf.org/drugbank:DB00736'
p2448
sg5
S'http://bio2rdf.org/drugbank:DB00758'
p2449
sg7
Nsg8
Nsg9
Nsg10
Nsg11
Nsg12
Nsg13
Nsg14
Nsg15
Nsg16
g17
sg18
Nsg19
Nsg20
Nsg21
Nsg22
S'true'
p2450
sg24
Nsg25
Nsg26
S'Plavix'
p2451
sg28
Nsg29
S'Caution_Interaction'
p2452
sg31
Nsg32
Nsg33
Nsg34
Nsg35
Nsg36
Nsg37
S'esomeprazole'
p2453
sa(dp2454
g2
Nsg3
S'http://bio2rdf.org/drugbank:DB00736'
p2455
sg5
S'http://bio2rdf.org/drugbank:DB00758'
p2456
sg7
Nsg8
Nsg9
Nsg10
Nsg11
Nsg12
Nsg13
Nsg14
Nsg15
Nsg16
g17
sg18
Nsg19
Nsg20
Nsg21
Nsg22
S'true'
p2457
sg24
Nsg25
Nsg26
S'Plavix'
p2458
sg28
Nsg29
S'Specific_Interaction'
p2459
sg31
Nsg32
Nsg33
Nsg34
Nsg35
Nsg36
Nsg37
S'esomeprazole'
p2460
sa(dp2461
g2
Nsg3
S'http://bio2rdf.org/drugbank:DB00338'
p2462
sg5
S'http://bio2rdf.org/drugbank:DB00758'
p2463
sg7
Nsg8
Nsg9
Nsg10
Nsg11
Nsg12
Nsg13
Nsg14
Nsg15
Nsg16
g17
sg18
Nsg19
Nsg20
Nsg21
Nsg22
S'true'
p2464
sg24
Nsg25
Nsg26
S'Plavix'
p2465
sg28
Nsg29
S'Caution_Interaction'
p2466
sg31
Nsg32
Nsg33
Nsg34
Nsg35
Nsg36
Nsg37
S'omeprazole'
p2467
sa(dp2468
g2
Nsg3
S'http://bio2rdf.org/drugbank:DB00338'
p2469
sg5
S'http://bio2rdf.org/drugbank:DB00758'
p2470
sg7
Nsg8
Nsg9
Nsg10
Nsg11
Nsg12
Nsg13
Nsg14
Nsg15
Nsg16
g17
sg18
Nsg19
Nsg20
Nsg21
Nsg22
S'true'
p2471
sg24
Nsg25
Nsg26
S'Plavix'
p2472
sg28
Nsg29
S'Specific_Interaction'
p2473
sg31
Nsg32
Nsg33
Nsg34
Nsg35
Nsg36
Nsg37
S'omeprazole'
p2474
sa(dp2475
g2
Nsg3
S'http://bio2rdf.org/drugbank:DB00682'
p2476
sg5
S'http://bio2rdf.org/drugbank:DB00758'
p2477
sg7
Nsg8
Nsg9
Nsg10
Nsg11
Nsg12
Nsg13
Nsg14
Nsg15
Nsg16
g17
sg18
Nsg19
Nsg20
Nsg21
Nsg22
S'true'
p2478
sg24
Nsg25
Nsg26
S'Plavix'
p2479
sg28
Nsg29
S'Specific_Interaction'
p2480
sg31
Nsg32
Nsg33
Nsg34
Nsg35
Nsg36
Nsg37
S'warfarin'
p2481
sa(dp2482
g2
Nsg3
S'http://bio2rdf.org/drugbank:DB00384'
p2483
sg5
S'http://bio2rdf.org/drugbank:DB01345'
p2484
sg7
Nsg8
Nsg9
Nsg10
Nsg11
Nsg12
Nsg13
Nsg14
Nsg15
Nsg16
g17
sg18
Nsg19
Nsg20
Nsg21
Nsg22
S'true'
p2485
sg24
Nsg25
Nsg26
S'potassium salts'
p2486
sg28
Nsg29
S'Caution_Interaction'
p2487
sg31
Nsg32
Nsg33
Nsg34
Nsg35
Nsg36
Nsg37
S'Dyrenium'
p2488
sa(dp2489
g2
Nsg3
S'http://bio2rdf.org/drugbank:DB00584'
p2490
sg5
S'http://bio2rdf.org/drugbank:DB01345'
p2491
sg7
Nsg8
Nsg9
Nsg10
Nsg11
Nsg12
Nsg13
Nsg14
Nsg15
Nsg16
g17
sg18
Nsg19
Nsg20
Nsg21
Nsg22
S'true'
p2492
sg24
Nsg25
Nsg26
S'Potassium sparing agents'
p2493
sg28
Nsg29
S'Caution_Interaction'
p2494
sg31
Nsg32
Nsg33
Nsg34
Nsg35
Nsg36
Nsg37
S'VASOTEC'
p2495
sa(dp2496
g2
Nsg3
S'http://bio2rdf.org/drugbank:DB00421'
p2497
sg5
S'http://bio2rdf.org/drugbank:DB01345'
p2498
sg7
Nsg8
Nsg9
Nsg10
Nsg11
Nsg12
Nsg13
Nsg14
Nsg15
Nsg16
g17
sg18
Nsg19
Nsg20
Nsg21
Nsg22
S'true'
p2499
sg24
Nsg25
Nsg26
S'potassium supplement'
p2500
sg28
Nsg29
S'Caution_Interaction'
p2501
sg31
Nsg32
Nsg33
Nsg34
Nsg35
Nsg36
Nsg37
S'ALDACTONE'
p2502
sa(dp2503
g2
Nsg3
S'http://bio2rdf.org/drugbank:DB00421'
p2504
sg5
S'http://bio2rdf.org/drugbank:DB01345'
p2505
sg7
Nsg8
Nsg9
Nsg10
Nsg11
Nsg12
Nsg13
Nsg14
Nsg15
Nsg16
g17
sg18
Nsg19
Nsg20
Nsg21
Nsg22
S'true'
p2506
sg24
Nsg25
Nsg26
S'Potassium supplementation'
p2507
sg28
Nsg29
S'Caution_Interaction'
p2508
sg31
Nsg32
Nsg33
Nsg34
Nsg35
Nsg36
Nsg37
S'ALDACTONE'
p2509
sa(dp2510
g2
Nsg3
S'http://bio2rdf.org/drugbank:DB00881'
p2511
sg5
S'http://bio2rdf.org/drugbank:DB01345'
p2512
sg7
Nsg8
Nsg9
Nsg10
Nsg11
Nsg12
Nsg13
Nsg14
Nsg15
Nsg16
g17
sg18
Nsg19
Nsg20
Nsg21
Nsg22
S'true'
p2513
sg24
Nsg25
Nsg26
S'potassium supplements'
p2514
sg28
Nsg29
S'Specific_Interaction'
p2515
sg31
Nsg32
Nsg33
Nsg34
Nsg35
Nsg36
Nsg37
S'ACCUPRIL'
p2516
sa(dp2517
g2
Nsg3
S'http://bio2rdf.org/drugbank:DB00178'
p2518
sg5
S'http://bio2rdf.org/drugbank:DB01345'
p2519
sg7
Nsg8
Nsg9
Nsg10
Nsg11
Nsg12
Nsg13
Nsg14
Nsg15
Nsg16
g17
sg18
Nsg19
Nsg20
Nsg21
Nsg22
S'true'
p2520
sg24
Nsg25
Nsg26
S'potassium supplements'
p2521
sg28
Nsg29
S'Specific_Interaction'
p2522
sg31
Nsg32
Nsg33
Nsg34
Nsg35
Nsg36
Nsg37
S'ALTACE'
p2523
sa(dp2524
g2
Nsg3
S'http://bio2rdf.org/drugbank:DB00584'
p2525
sg5
S'http://bio2rdf.org/drugbank:DB01345'
p2526
sg7
Nsg8
Nsg9
Nsg10
Nsg11
Nsg12
Nsg13
Nsg14
Nsg15
Nsg16
g17
sg18
Nsg19
Nsg20
Nsg21
Nsg22
S'true'
p2527
sg24
Nsg25
Nsg26
S'potassium supplements'
p2528
sg28
Nsg29
S'Specific_Interaction'
p2529
sg31
Nsg32
Nsg33
Nsg34
Nsg35
Nsg36
Nsg37
S'enalapril'
p2530
sa(dp2531
g2
Nsg3
S'http://bio2rdf.org/drugbank:DB00542'
p2532
sg5
S'http://bio2rdf.org/drugbank:DB01345'
p2533
sg7
Nsg8
Nsg9
Nsg10
Nsg11
Nsg12
Nsg13
Nsg14
Nsg15
Nsg16
g17
sg18
Nsg19
Nsg20
Nsg21
Nsg22
S'true'
p2534
sg24
Nsg25
Nsg26
S'potassium supplements'
p2535
sg28
Nsg29
S'Specific_Interaction'
p2536
sg31
Nsg32
Nsg33
Nsg34
Nsg35
Nsg36
Nsg37
S'Lotensin'
p2537
sa(dp2538
g2
Nsg3
S'http://bio2rdf.org/drugbank:DB00519'
p2539
sg5
S'http://bio2rdf.org/drugbank:DB01345'
p2540
sg7
Nsg8
Nsg9
Nsg10
Nsg11
Nsg12
Nsg13
Nsg14
Nsg15
Nsg16
g17
sg18
Nsg19
Nsg20
Nsg21
Nsg22
S'true'
p2541
sg24
Nsg25
Nsg26
S'potassium supplements'
p2542
sg28
Nsg29
S'Specific_Interaction'
p2543
sg31
Nsg32
Nsg33
Nsg34
Nsg35
Nsg36
Nsg37
S'MAVIK'
p2544
sa(dp2545
g2
Nsg3
S'http://bio2rdf.org/drugbank:DB00691'
p2546
sg5
S'http://bio2rdf.org/drugbank:DB01345'
p2547
sg7
Nsg8
Nsg9
Nsg10
Nsg11
Nsg12
Nsg13
Nsg14
Nsg15
Nsg16
g17
sg18
Nsg19
Nsg20
Nsg21
Nsg22
S'true'
p2548
sg24
Nsg25
Nsg26
S'potassium supplements'
p2549
sg28
Nsg29
S'Caution_Interaction'
p2550
sg31
Nsg32
Nsg33
Nsg34
Nsg35
Nsg36
Nsg37
S'moexipril'
p2551
sa(dp2552
g2
Nsg3
S'http://bio2rdf.org/drugbank:DB00519'
p2553
sg5
S'http://bio2rdf.org/drugbank:DB01345'
p2554
sg7
Nsg8
Nsg9
Nsg10
Nsg11
Nsg12
Nsg13
Nsg14
Nsg15
Nsg16
g17
sg18
Nsg19
Nsg20
Nsg21
Nsg22
S'true'
p2555
sg24
Nsg25
Nsg26
S'potassium supplements'
p2556
sg28
Nsg29
S'Specific_Interaction'
p2557
sg31
Nsg32
Nsg33
Nsg34
Nsg35
Nsg36
Nsg37
S'trandolapril'
p2558
sa(dp2559
g2
Nsg3
S'http://bio2rdf.org/drugbank:DB00584'
p2560
sg5
S'http://bio2rdf.org/drugbank:DB01345'
p2561
sg7
Nsg8
Nsg9
Nsg10
Nsg11
Nsg12
Nsg13
Nsg14
Nsg15
Nsg16
g17
sg18
Nsg19
Nsg20
Nsg21
Nsg22
S'true'
p2562
sg24
Nsg25
Nsg26
S'potassium supplements'
p2563
sg28
Nsg29
S'Specific_Interaction'
p2564
sg31
Nsg32
Nsg33
Nsg34
Nsg35
Nsg36
Nsg37
S'VASOTEC'
p2565
sa(dp2566
g2
Nsg3
S'http://bio2rdf.org/drugbank:DB00421'
p2567
sg5
S'http://bio2rdf.org/drugbank:DB01345'
p2568
sg7
Nsg8
Nsg9
Nsg10
Nsg11
Nsg12
Nsg13
Nsg14
Nsg15
Nsg16
g17
sg18
Nsg19
Nsg20
Nsg21
Nsg22
S'true'
p2569
sg24
Nsg25
Nsg26
S'potassium'
p2570
sg28
Nsg29
S'Specific_Interaction'
p2571
sg31
Nsg32
Nsg33
Nsg34
Nsg35
Nsg36
Nsg37
S'ALDACTONE'
p2572
sa(dp2573
g2
Nsg3
S'http://bio2rdf.org/drugbank:DB00091'
p2574
sg5
S'http://bio2rdf.org/drugbank:DB01345'
p2575
sg7
Nsg8
Nsg9
Nsg10
Nsg11
Nsg12
Nsg13
Nsg14
Nsg15
Nsg16
g17
sg18
Nsg19
Nsg20
Nsg21
Nsg22
S'true'
p2576
sg24
Nsg25
Nsg26
S'potassium-conserving agents'
p2577
sg28
Nsg29
S'Specific_Interaction'
p2578
sg31
Nsg32
Nsg33
Nsg34
Nsg35
Nsg36
Nsg37
S'cyclosporine'
p2579
sa(dp2580
g2
Nsg3
S'http://bio2rdf.org/drugbank:DB00864'
p2581
sg5
S'http://bio2rdf.org/drugbank:DB01345'
p2582
sg7
Nsg8
Nsg9
Nsg10
Nsg11
Nsg12
Nsg13
Nsg14
Nsg15
Nsg16
g17
sg18
Nsg19
Nsg20
Nsg21
Nsg22
S'true'
p2583
sg24
Nsg25
Nsg26
S'potassium-conserving agents'
p2584
sg28
Nsg29
S'Specific_Interaction'
p2585
sg31
Nsg32
Nsg33
Nsg34
Nsg35
Nsg36
Nsg37
S'tacrolimus'
p2586
sa(dp2587
g2
Nsg3
S'http://bio2rdf.org/drugbank:DB00881'
p2588
sg5
S'http://bio2rdf.org/drugbank:DB01345'
p2589
sg7
Nsg8
Nsg9
Nsg10
Nsg11
Nsg12
Nsg13
Nsg14
Nsg15
Nsg16
g17
sg18
Nsg19
Nsg20
Nsg21
Nsg22
S'true'
p2590
sg24
Nsg25
Nsg26
S'potassium-containing salt substitutes'
p2591
sg28
Nsg29
S'Specific_Interaction'
p2592
sg31
Nsg32
Nsg33
Nsg34
Nsg35
Nsg36
Nsg37
S'ACCUPRIL'
p2593
sa(dp2594
g2
Nsg3
S'http://bio2rdf.org/drugbank:DB00178'
p2595
sg5
S'http://bio2rdf.org/drugbank:DB01345'
p2596
sg7
Nsg8
Nsg9
Nsg10
Nsg11
Nsg12
Nsg13
Nsg14
Nsg15
Nsg16
g17
sg18
Nsg19
Nsg20
Nsg21
Nsg22
S'true'
p2597
sg24
Nsg25
Nsg26
S'potassium-containing salt substitutes'
p2598
sg28
Nsg29
S'Specific_Interaction'
p2599
sg31
Nsg32
Nsg33
Nsg34
Nsg35
Nsg36
Nsg37
S'ALTACE'
p2600
sa(dp2601
g2
Nsg3
S'http://bio2rdf.org/drugbank:DB00384'
p2602
sg5
S'http://bio2rdf.org/drugbank:DB01345'
p2603
sg7
Nsg8
Nsg9
Nsg10
Nsg11
Nsg12
Nsg13
Nsg14
Nsg15
Nsg16
g17
sg18
Nsg19
Nsg20
Nsg21
Nsg22
S'true'
p2604
sg24
Nsg25
Nsg26
S'potassium-containing salt substitutes'
p2605
sg28
Nsg29
S'Caution_Interaction'
p2606
sg31
Nsg32
Nsg33
Nsg34
Nsg35
Nsg36
Nsg37
S'Dyrenium'
p2607
sa(dp2608
g2
Nsg3
S'http://bio2rdf.org/drugbank:DB00584'
p2609
sg5
S'http://bio2rdf.org/drugbank:DB01345'
p2610
sg7
Nsg8
Nsg9
Nsg10
Nsg11
Nsg12
Nsg13
Nsg14
Nsg15
Nsg16
g17
sg18
Nsg19
Nsg20
Nsg21
Nsg22
S'true'
p2611
sg24
Nsg25
Nsg26
S'potassium-containing salt substitutes'
p2612
sg28
Nsg29
S'Specific_Interaction'
p2613
sg31
Nsg32
Nsg33
Nsg34
Nsg35
Nsg36
Nsg37
S'enalapril'
p2614
sa(dp2615
g2
Nsg3
S'http://bio2rdf.org/drugbank:DB00542'
p2616
sg5
S'http://bio2rdf.org/drugbank:DB01345'
p2617
sg7
Nsg8
Nsg9
Nsg10
Nsg11
Nsg12
Nsg13
Nsg14
Nsg15
Nsg16
g17
sg18
Nsg19
Nsg20
Nsg21
Nsg22
S'true'
p2618
sg24
Nsg25
Nsg26
S'potassium-containing salt substitutes'
p2619
sg28
Nsg29
S'Specific_Interaction'
p2620
sg31
Nsg32
Nsg33
Nsg34
Nsg35
Nsg36
Nsg37
S'Lotensin'
p2621
sa(dp2622
g2
Nsg3
S'http://bio2rdf.org/drugbank:DB00519'
p2623
sg5
S'http://bio2rdf.org/drugbank:DB01345'
p2624
sg7
Nsg8
Nsg9
Nsg10
Nsg11
Nsg12
Nsg13
Nsg14
Nsg15
Nsg16
g17
sg18
Nsg19
Nsg20
Nsg21
Nsg22
S'true'
p2625
sg24
Nsg25
Nsg26
S'potassium-containing salt substitutes'
p2626
sg28
Nsg29
S'Specific_Interaction'
p2627
sg31
Nsg32
Nsg33
Nsg34
Nsg35
Nsg36
Nsg37
S'MAVIK'
p2628
sa(dp2629
g2
Nsg3
S'http://bio2rdf.org/drugbank:DB00691'
p2630
sg5
S'http://bio2rdf.org/drugbank:DB01345'
p2631
sg7
Nsg8
Nsg9
Nsg10
Nsg11
Nsg12
Nsg13
Nsg14
Nsg15
Nsg16
g17
sg18
Nsg19
Nsg20
Nsg21
Nsg22
S'true'
p2632
sg24
Nsg25
Nsg26
S'potassium-containing salt substitutes'
p2633
sg28
Nsg29
S'Caution_Interaction'
p2634
sg31
Nsg32
Nsg33
Nsg34
Nsg35
Nsg36
Nsg37
S'moexipril'
p2635
sa(dp2636
g2
Nsg3
S'http://bio2rdf.org/drugbank:DB00519'
p2637
sg5
S'http://bio2rdf.org/drugbank:DB01345'
p2638
sg7
Nsg8
Nsg9
Nsg10
Nsg11
Nsg12
Nsg13
Nsg14
Nsg15
Nsg16
g17
sg18
Nsg19
Nsg20
Nsg21
Nsg22
S'true'
p2639
sg24
Nsg25
Nsg26
S'potassium-containing salt substitutes'
p2640
sg28
Nsg29
S'Specific_Interaction'
p2641
sg31
Nsg32
Nsg33
Nsg34
Nsg35
Nsg36
Nsg37
S'trandolapril'
p2642
sa(dp2643
g2
Nsg3
S'http://bio2rdf.org/drugbank:DB00584'
p2644
sg5
S'http://bio2rdf.org/drugbank:DB01345'
p2645
sg7
Nsg8
Nsg9
Nsg10
Nsg11
Nsg12
Nsg13
Nsg14
Nsg15
Nsg16
g17
sg18
Nsg19
Nsg20
Nsg21
Nsg22
S'true'
p2646
sg24
Nsg25
Nsg26
S'potassium-containing salt substitutes'
p2647
sg28
Nsg29
S'Specific_Interaction'
p2648
sg31
Nsg32
Nsg33
Nsg34
Nsg35
Nsg36
Nsg37
S'VASOTEC'
p2649
sa(dp2650
g2
Nsg3
S'http://bio2rdf.org/drugbank:DB04855'
p2651
sg5
S'http://bio2rdf.org/drugbank:DB06695'
p2652
sg7
Nsg8
Nsg9
Nsg10
Nsg11
Nsg12
Nsg13
Nsg14
Nsg15
Nsg16
g17
sg18
Nsg19
Nsg20
Nsg21
Nsg22
S'true'
p2653
sg24
Nsg25
Nsg26
S'PRADAXA'
p2654
sg28
Nsg29
S'Caution_Interaction'
p2655
sg31
Nsg32
Nsg33
Nsg34
Nsg35
Nsg36
Nsg37
S'dronedarone'
p2656
sa(dp2657
g2
Nsg3
S'http://bio2rdf.org/drugbank:DB00328'
p2658
sg5
S'http://bio2rdf.org/drugbank:DB00722'
p2659
sg7
Nsg8
Nsg9
Nsg10
Nsg11
Nsg12
Nsg13
Nsg14
Nsg15
Nsg16
g17
sg18
Nsg19
Nsg20
Nsg21
Nsg22
S'true'
p2660
sg24
Nsg25
Nsg26
S'PRINIVIL'
p2661
sg28
Nsg29
S'Decrease_Interaction'
p2662
sg31
Nsg32
Nsg33
Nsg34
Nsg35
Nsg36
Nsg37
S'indomethacin'
p2663
sa(dp2664
g2
Nsg3
S'http://bio2rdf.org/drugbank:DB01345'
p2665
sg5
S'http://bio2rdf.org/drugbank:DB00722'
p2666
sg7
Nsg8
Nsg9
Nsg10
Nsg11
Nsg12
Nsg13
Nsg14
Nsg15
Nsg16
g17
sg18
Nsg19
Nsg20
Nsg21
Nsg22
S'true'
p2667
sg24
Nsg25
Nsg26
S'PRINIVIL'
p2668
sg28
Nsg29
S'Specific_Interaction'
p2669
sg31
Nsg32
Nsg33
Nsg34
Nsg35
Nsg36
Nsg37
S'potassium salt substitutes'
p2670
sa(dp2671
g2
Nsg3
S'http://bio2rdf.org/drugbank:DB01345'
p2672
sg5
S'http://bio2rdf.org/drugbank:DB00722'
p2673
sg7
Nsg8
Nsg9
Nsg10
Nsg11
Nsg12
Nsg13
Nsg14
Nsg15
Nsg16
g17
sg18
Nsg19
Nsg20
Nsg21
Nsg22
S'true'
p2674
sg24
Nsg25
Nsg26
S'PRINIVIL'
p2675
sg28
Nsg29
S'Specific_Interaction'
p2676
sg31
Nsg32
Nsg33
Nsg34
Nsg35
Nsg36
Nsg37
S'potassium supplements'
p2677
sa(dp2678
g2
Nsg3
S'http://bio2rdf.org/drugbank:DB01345'
p2679
sg5
S'http://bio2rdf.org/drugbank:DB00722'
p2680
sg7
Nsg8
Nsg9
Nsg10
Nsg11
Nsg12
Nsg13
Nsg14
Nsg15
Nsg16
g17
sg18
Nsg19
Nsg20
Nsg21
Nsg22
S'true'
p2681
sg24
Nsg25
Nsg26
S'PRINIVIL'
p2682
sg28
Nsg29
S'Specific_Interaction'
p2683
sg31
Nsg32
Nsg33
Nsg34
Nsg35
Nsg36
Nsg37
S'potassium-containing salt substitutes'
p2684
sa(dp2685
g2
Nsg3
S'http://bio2rdf.org/drugbank:DB00687'
p2686
sg5
S'http://bio2rdf.org/drugbank:DB00211'
p2687
sg7
Nsg8
Nsg9
Nsg10
Nsg11
Nsg12
Nsg13
Nsg14
Nsg15
Nsg16
g17
sg18
Nsg19
Nsg20
Nsg21
Nsg22
S'true'
p2688
sg24
Nsg25
Nsg26
S'ProAmatine'
p2689
sg28
Nsg29
S'Caution_Interaction'
p2690
sg31
Nsg32
Nsg33
Nsg34
Nsg35
Nsg36
Nsg37
S'fludrocortisone acetate'
p2691
sa(dp2692
g2
Nsg3
S'http://bio2rdf.org/drugbank:DB00214'
p2693
sg5
S'http://bio2rdf.org/drugbank:DB01032'
p2694
sg7
Nsg8
Nsg9
Nsg10
Nsg11
Nsg12
Nsg13
Nsg14
Nsg15
Nsg16
g17
sg18
Nsg19
Nsg20
Nsg21
Nsg22
S'true'
p2695
sg24
Nsg25
Nsg26
S'probenecid'
p2696
sg28
Nsg29
S'Specific_Interaction'
p2697
sg31
Nsg32
Nsg33
Nsg34
Nsg35
Nsg36
Nsg37
S'DEMADEX'
p2698
sa(dp2699
g2
Nsg3
S'http://bio2rdf.org/drugbank:DB01118'
p2700
sg5
S'http://bio2rdf.org/drugbank:DB01035'
p2701
sg7
Nsg8
Nsg9
Nsg10
Nsg11
Nsg12
Nsg13
Nsg14
Nsg15
Nsg16
g17
sg18
Nsg19
Nsg20
Nsg21
Nsg22
S'true'
p2702
sg24
Nsg25
Nsg26
S'procainamide'
p2703
sg28
Nsg29
S'Increase_Interaction'
p2704
sg31
Nsg32
Nsg33
Nsg34
Nsg35
Nsg36
Nsg37
S'amiodarone'
p2705
sa(dp2706
g2
Nsg3
S'http://bio2rdf.org/drugbank:DB00390'
p2707
sg5
S'http://bio2rdf.org/drugbank:DB01182'
p2708
sg7
Nsg8
Nsg9
Nsg10
Nsg11
Nsg12
Nsg13
Nsg14
Nsg15
Nsg16
g17
sg18
Nsg19
Nsg20
Nsg21
Nsg22
S'true'
p2709
sg24
Nsg25
Nsg26
S'propafenone'
p2710
sg28
Nsg29
S'Increase_Interaction'
p2711
sg31
Nsg32
Nsg33
Nsg34
Nsg35
Nsg36
Nsg37
S'digoxin'
p2712
sa(dp2713
g2
Nsg3
S'http://bio2rdf.org/drugbank:DB00264'
p2714
sg5
S'http://bio2rdf.org/drugbank:DB01182'
p2715
sg7
Nsg8
Nsg9
Nsg10
Nsg11
Nsg12
Nsg13
Nsg14
Nsg15
Nsg16
g17
sg18
Nsg19
Nsg20
Nsg21
Nsg22
S'true'
p2716
sg24
Nsg25
Nsg26
S'propafenone'
p2717
sg28
Nsg29
S'Increase_Interaction'
p2718
sg31
Nsg32
Nsg33
Nsg34
Nsg35
Nsg36
Nsg37
S'metoprolol'
p2719
sa(dp2720
g2
Nsg3
S'http://bio2rdf.org/drugbank:DB00571'
p2721
sg5
S'http://bio2rdf.org/drugbank:DB01182'
p2722
sg7
Nsg8
Nsg9
Nsg10
Nsg11
Nsg12
Nsg13
Nsg14
Nsg15
Nsg16
g17
sg18
Nsg19
Nsg20
Nsg21
Nsg22
S'true'
p2723
sg24
Nsg25
Nsg26
S'Propafenone'
p2724
sg28
Nsg29
S'Specific_Interaction'
p2725
sg31
Nsg32
Nsg33
Nsg34
Nsg35
Nsg36
Nsg37
S'propranolol'
p2726
sa(dp2727
g2
Nsg3
S'http://bio2rdf.org/drugbank:DB00661'
p2728
sg5
S'http://bio2rdf.org/drugbank:DB00571'
p2729
sg7
Nsg8
Nsg9
Nsg10
Nsg11
Nsg12
Nsg13
Nsg14
Nsg15
Nsg16
g17
sg18
Nsg19
Nsg20
Nsg21
Nsg22
S'true'
p2730
sg24
Nsg25
Nsg26
S'propanolol'
p2731
sg28
Nsg29
S'Increase_Interaction'
p2732
sg31
Nsg32
Nsg33
Nsg34
Nsg35
Nsg36
Nsg37
S'verapamil'
p2733
sa(dp2734
g2
Nsg3
S'http://bio2rdf.org/drugbank:DB00390'
p2735
sg5
S'http://bio2rdf.org/drugbank:DB00782'
p2736
sg7
Nsg8
Nsg9
Nsg10
Nsg11
Nsg12
Nsg13
Nsg14
Nsg15
Nsg16
g17
sg18
Nsg19
Nsg20
Nsg21
Nsg22
S'true'
p2737
sg24
Nsg25
Nsg26
S'Propantheline'
p2738
sg28
Nsg29
S'Increase_Interaction'
p2739
sg31
Nsg32
Nsg33
Nsg34
Nsg35
Nsg36
Nsg37
S'digoxin'
p2740
sa(dp2741
g2
Nsg3
S'http://bio2rdf.org/drugbank:DB00999'
p2742
sg5
S'http://bio2rdf.org/drugbank:DB00782'
p2743
sg7
Nsg8
Nsg9
Nsg10
Nsg11
Nsg12
Nsg13
Nsg14
Nsg15
Nsg16
g17
sg18
Nsg19
Nsg20
Nsg21
Nsg22
S'true'
p2744
sg24
Nsg25
Nsg26
S'propantheline'
p2745
sg28
Nsg29
S'Increase_Interaction'
p2746
sg31
Nsg32
Nsg33
Nsg34
Nsg35
Nsg36
Nsg37
S'hydrochlorothiazide'
p2747
sa(dp2748
g2
Nsg3
S'http://bio2rdf.org/drugbank:DB00898'
p2749
sg5
S'http://bio2rdf.org/drugbank:DB00571'
p2750
sg7
Nsg8
Nsg9
Nsg10
Nsg11
Nsg12
Nsg13
Nsg14
Nsg15
Nsg16
g17
sg18
Nsg19
Nsg20
Nsg21
Nsg22
S'true'
p2751
sg24
Nsg25
Nsg26
S'propranolol'
p2752
sg28
Nsg29
S'Decrease_Interaction'
p2753
sg31
Nsg32
Nsg33
Nsg34
Nsg35
Nsg36
Nsg37
S'alcohol'
p2754
sa(dp2755
g2
Nsg3
S'http://bio2rdf.org/drugbank:DB00898'
p2756
sg5
S'http://bio2rdf.org/drugbank:DB00571'
p2757
sg7
Nsg8
Nsg9
Nsg10
Nsg11
Nsg12
Nsg13
Nsg14
Nsg15
Nsg16
g17
sg18
Nsg19
Nsg20
Nsg21
Nsg22
S'true'
p2758
sg24
Nsg25
Nsg26
S'propranolol'
p2759
sg28
Nsg29
S'Increase_Interaction'
p2760
sg31
Nsg32
Nsg33
Nsg34
Nsg35
Nsg36
Nsg37
S'alcohol'
p2761
sa(dp2762
g2
Nsg3
S'http://bio2rdf.org/drugbank:DB00343'
p2763
sg5
S'http://bio2rdf.org/drugbank:DB00571'
p2764
sg7
Nsg8
Nsg9
Nsg10
Nsg11
Nsg12
Nsg13
Nsg14
Nsg15
Nsg16
g17
sg18
Nsg19
Nsg20
Nsg21
Nsg22
S'true'
p2765
sg24
Nsg25
Nsg26
S'propranolol'
p2766
sg28
Nsg29
S'Specific_Interaction'
p2767
sg31
Nsg32
Nsg33
Nsg34
Nsg35
Nsg36
Nsg37
S'diltiazem'
p2768
sa(dp2769
g2
Nsg3
S'http://bio2rdf.org/drugbank:DB00668'
p2770
sg5
S'http://bio2rdf.org/drugbank:DB00571'
p2771
sg7
Nsg8
Nsg9
Nsg10
Nsg11
Nsg12
Nsg13
Nsg14
Nsg15
Nsg16
g17
sg18
Nsg19
Nsg20
Nsg21
Nsg22
S'true'
p2772
sg24
Nsg25
Nsg26
S'propranolol'
p2773
sg28
Nsg29
S'Specific_Interaction'
p2774
sg31
Nsg32
Nsg33
Nsg34
Nsg35
Nsg36
Nsg37
S'epinephrine'
p2775
sa(dp2776
g2
Nsg3
S'http://bio2rdf.org/drugbank:DB00502'
p2777
sg5
S'http://bio2rdf.org/drugbank:DB00571'
p2778
sg7
Nsg8
Nsg9
Nsg10
Nsg11
Nsg12
Nsg13
Nsg14
Nsg15
Nsg16
g17
sg18
Nsg19
Nsg20
Nsg21
Nsg22
S'true'
p2779
sg24
Nsg25
Nsg26
S'propranolol'
p2780
sg28
Nsg29
S'Specific_Interaction'
p2781
sg31
Nsg32
Nsg33
Nsg34
Nsg35
Nsg36
Nsg37
S'haloperidol'
p2782
sa(dp2783
g2
Nsg3
S'http://bio2rdf.org/drugbank:DB00281'
p2784
sg5
S'http://bio2rdf.org/drugbank:DB00571'
p2785
sg7
Nsg8
Nsg9
Nsg10
Nsg11
Nsg12
Nsg13
Nsg14
Nsg15
Nsg16
g17
sg18
Nsg19
Nsg20
Nsg21
Nsg22
S'true'
p2786
sg24
Nsg25
Nsg26
S'propranolol'
p2787
sg28
Nsg29
S'Increase_Interaction'
p2788
sg31
Nsg32
Nsg33
Nsg34
Nsg35
Nsg36
Nsg37
S'lidocaine'
p2789
sa(dp2790
g2
Nsg3
S'http://bio2rdf.org/drugbank:DB00661'
p2791
sg5
S'http://bio2rdf.org/drugbank:DB00571'
p2792
sg7
Nsg8
Nsg9
Nsg10
Nsg11
Nsg12
Nsg13
Nsg14
Nsg15
Nsg16
g17
sg18
Nsg19
Nsg20
Nsg21
Nsg22
S'true'
p2793
sg24
Nsg25
Nsg26
S'propranolol'
p2794
sg28
Nsg29
S'Increase_Interaction'
p2795
sg31
Nsg32
Nsg33
Nsg34
Nsg35
Nsg36
Nsg37
S'verapamil'
p2796
sa(dp2797
g2
Nsg3
S'http://bio2rdf.org/drugbank:DB00682'
p2798
sg5
S'http://bio2rdf.org/drugbank:DB00571'
p2799
sg7
Nsg8
Nsg9
Nsg10
Nsg11
Nsg12
Nsg13
Nsg14
Nsg15
Nsg16
g17
sg18
Nsg19
Nsg20
Nsg21
Nsg22
S'true'
p2800
sg24
Nsg25
Nsg26
S'Propranolol'
p2801
sg28
Nsg29
S'Increase_Interaction'
p2802
sg31
Nsg32
Nsg33
Nsg34
Nsg35
Nsg36
Nsg37
S'warfarin'
p2803
sa(dp2804
g2
Nsg3
S'http://bio2rdf.org/drugbank:DB00759'
p2805
sg5
S'http://bio2rdf.org/drugbank:DB00881'
p2806
sg7
Nsg8
Nsg9
Nsg10
Nsg11
Nsg12
Nsg13
Nsg14
Nsg15
Nsg16
g17
sg18
Nsg19
Nsg20
Nsg21
Nsg22
S'true'
p2807
sg24
Nsg25
Nsg26
S'quinapril'
p2808
sg28
Nsg29
S'Decrease_Interaction'
p2809
sg31
Nsg32
Nsg33
Nsg34
Nsg35
Nsg36
Nsg37
S'tetracycline'
p2810
sa(dp2811
g2
Nsg3
S'http://bio2rdf.org/drugbank:DB01118'
p2812
sg5
S'http://bio2rdf.org/drugbank:DB00908'
p2813
sg7
Nsg8
Nsg9
Nsg10
Nsg11
Nsg12
Nsg13
Nsg14
Nsg15
Nsg16
g17
sg18
Nsg19
Nsg20
Nsg21
Nsg22
S'true'
p2814
sg24
Nsg25
Nsg26
S'quinidine'
p2815
sg28
Nsg29
S'Increase_Interaction'
p2816
sg31
Nsg32
Nsg33
Nsg34
Nsg35
Nsg36
Nsg37
S'amiodarone'
p2817
sa(dp2818
g2
Nsg3
S'http://bio2rdf.org/drugbank:DB00501'
p2819
sg5
S'http://bio2rdf.org/drugbank:DB00908'
p2820
sg7
Nsg8
Nsg9
Nsg10
Nsg11
Nsg12
Nsg13
Nsg14
Nsg15
Nsg16
g17
sg18
Nsg19
Nsg20
Nsg21
Nsg22
S'true'
p2821
sg24
Nsg25
Nsg26
S'quinidine'
p2822
sg28
Nsg29
S'Increase_Interaction'
p2823
sg31
Nsg32
Nsg33
Nsg34
Nsg35
Nsg36
Nsg37
S'cimetidine'
p2824
sa(dp2825
g2
Nsg3
S'http://bio2rdf.org/drugbank:DB06695'
p2826
sg5
S'http://bio2rdf.org/drugbank:DB00908'
p2827
sg7
Nsg8
Nsg9
Nsg10
Nsg11
Nsg12
Nsg13
Nsg14
Nsg15
Nsg16
g17
sg18
Nsg19
Nsg20
Nsg21
Nsg22
S'true'
p2828
sg24
Nsg25
Nsg26
S'quinidine'
p2829
sg28
Nsg29
S'Increase_Interaction'
p2830
sg31
Nsg32
Nsg33
Nsg34
Nsg35
Nsg36
Nsg37
S'dabigatran'
p2831
sa(dp2832
g2
Nsg3
S'http://bio2rdf.org/drugbank:DB00390'
p2833
sg5
S'http://bio2rdf.org/drugbank:DB00908'
p2834
sg7
Nsg8
Nsg9
Nsg10
Nsg11
Nsg12
Nsg13
Nsg14
Nsg15
Nsg16
g17
sg18
Nsg19
Nsg20
Nsg21
Nsg22
S'true'
p2835
sg24
Nsg25
Nsg26
S'Quinidine'
p2836
sg28
Nsg29
S'Increase_Interaction'
p2837
sg31
Nsg32
Nsg33
Nsg34
Nsg35
Nsg36
Nsg37
S'digoxin'
p2838
sa(dp2839
g2
Nsg3
S'http://bio2rdf.org/drugbank:DB00280'
p2840
sg5
S'http://bio2rdf.org/drugbank:DB00908'
p2841
sg7
Nsg8
Nsg9
Nsg10
Nsg11
Nsg12
Nsg13
Nsg14
Nsg15
Nsg16
g17
sg18
Nsg19
Nsg20
Nsg21
Nsg22
S'true'
p2842
sg24
Nsg25
Nsg26
S'quinidine'
p2843
sg28
Nsg29
S'Increase_Interaction'
p2844
sg31
Nsg32
Nsg33
Nsg34
Nsg35
Nsg36
Nsg37
S'disopyramide'
p2845
sa(dp2846
g2
Nsg3
S'http://bio2rdf.org/drugbank:DB01026'
p2847
sg5
S'http://bio2rdf.org/drugbank:DB00908'
p2848
sg7
Nsg8
Nsg9
Nsg10
Nsg11
Nsg12
Nsg13
Nsg14
Nsg15
Nsg16
g17
sg18
Nsg19
Nsg20
Nsg21
Nsg22
S'true'
p2849
sg24
Nsg25
Nsg26
S'quinidine'
p2850
sg28
Nsg29
S'Increase_Interaction'
p2851
sg31
Nsg32
Nsg33
Nsg34
Nsg35
Nsg36
Nsg37
S'ketaconazole'
p2852
sa(dp2853
g2
Nsg3
S'http://bio2rdf.org/drugbank:DB00264'
p2854
sg5
S'http://bio2rdf.org/drugbank:DB00908'
p2855
sg7
Nsg8
Nsg9
Nsg10
Nsg11
Nsg12
Nsg13
Nsg14
Nsg15
Nsg16
g17
sg18
Nsg19
Nsg20
Nsg21
Nsg22
S'true'
p2856
sg24
Nsg25
Nsg26
S'quinidine'
p2857
sg28
Nsg29
S'Increase_Interaction'
p2858
sg31
Nsg32
Nsg33
Nsg34
Nsg35
Nsg36
Nsg37
S'metoprolol'
p2859
sa(dp2860
g2
Nsg3
S'http://bio2rdf.org/drugbank:DB01115'
p2861
sg5
S'http://bio2rdf.org/drugbank:DB00908'
p2862
sg7
Nsg8
Nsg9
Nsg10
Nsg11
Nsg12
Nsg13
Nsg14
Nsg15
Nsg16
g17
sg18
Nsg19
Nsg20
Nsg21
Nsg22
S'true'
p2863
sg24
Nsg25
Nsg26
S'quinidine'
p2864
sg28
Nsg29
S'Decrease_Interaction'
p2865
sg31
Nsg32
Nsg33
Nsg34
Nsg35
Nsg36
Nsg37
S'nifedipine'
p2866
sa(dp2867
g2
Nsg3
S'http://bio2rdf.org/drugbank:DB00401'
p2868
sg5
S'http://bio2rdf.org/drugbank:DB00908'
p2869
sg7
Nsg8
Nsg9
Nsg10
Nsg11
Nsg12
Nsg13
Nsg14
Nsg15
Nsg16
g17
sg18
Nsg19
Nsg20
Nsg21
Nsg22
S'true'
p2870
sg24
Nsg25
Nsg26
S'Quinidine'
p2871
sg28
Nsg29
S'Decrease_Interaction'
p2872
sg31
Nsg32
Nsg33
Nsg34
Nsg35
Nsg36
Nsg37
S'nisoldipine'
p2873
sa(dp2874
g2
Nsg3
S'http://bio2rdf.org/drugbank:DB01035'
p2875
sg5
S'http://bio2rdf.org/drugbank:DB00908'
p2876
sg7
Nsg8
Nsg9
Nsg10
Nsg11
Nsg12
Nsg13
Nsg14
Nsg15
Nsg16
g17
sg18
Nsg19
Nsg20
Nsg21
Nsg22
S'true'
p2877
sg24
Nsg25
Nsg26
S'quinidine'
p2878
sg28
Nsg29
S'Increase_Interaction'
p2879
sg31
Nsg32
Nsg33
Nsg34
Nsg35
Nsg36
Nsg37
S'procainamide'
p2880
sa(dp2881
g2
Nsg3
S'http://bio2rdf.org/drugbank:DB00571'
p2882
sg5
S'http://bio2rdf.org/drugbank:DB00908'
p2883
sg7
Nsg8
Nsg9
Nsg10
Nsg11
Nsg12
Nsg13
Nsg14
Nsg15
Nsg16
g17
sg18
Nsg19
Nsg20
Nsg21
Nsg22
S'true'
p2884
sg24
Nsg25
Nsg26
S'Quinidine'
p2885
sg28
Nsg29
S'Increase_Interaction'
p2886
sg31
Nsg32
Nsg33
Nsg34
Nsg35
Nsg36
Nsg37
S'propranolol'
p2887
sa(dp2888
g2
Nsg3
S'http://bio2rdf.org/drugbank:DB00264'
p2889
sg5
S'http://bio2rdf.org/drugbank:DB00908'
p2890
sg7
Nsg8
Nsg9
Nsg10
Nsg11
Nsg12
Nsg13
Nsg14
Nsg15
Nsg16
g17
sg18
Nsg19
Nsg20
Nsg21
Nsg22
S'true'
p2891
sg24
Nsg25
Nsg26
S'quinidine'
p2892
sg28
Nsg29
S'Increase_Interaction'
p2893
sg31
Nsg32
Nsg33
Nsg34
Nsg35
Nsg36
Nsg37
S'S\xe2\x80\x94metoprolol'
p2894
sa(dp2895
g2
Nsg3
S'http://bio2rdf.org/drugbank:DB00661'
p2896
sg5
S'http://bio2rdf.org/drugbank:DB00908'
p2897
sg7
Nsg8
Nsg9
Nsg10
Nsg11
Nsg12
Nsg13
Nsg14
Nsg15
Nsg16
g17
sg18
Nsg19
Nsg20
Nsg21
Nsg22
S'true'
p2898
sg24
Nsg25
Nsg26
S'quinidine'
p2899
sg28
Nsg29
S'Increase_Interaction'
p2900
sg31
Nsg32
Nsg33
Nsg34
Nsg35
Nsg36
Nsg37
S'verapamil'
p2901
sa(dp2902
g2
Nsg3
S'http://bio2rdf.org/drugbank:DB00661'
p2903
sg5
S'http://bio2rdf.org/drugbank:DB00908'
p2904
sg7
Nsg8
Nsg9
Nsg10
Nsg11
Nsg12
Nsg13
Nsg14
Nsg15
Nsg16
g17
sg18
Nsg19
Nsg20
Nsg21
Nsg22
S'true'
p2905
sg24
Nsg25
Nsg26
S'quinidine'
p2906
sg28
Nsg29
S'Specific_Interaction'
p2907
sg31
Nsg32
Nsg33
Nsg34
Nsg35
Nsg36
Nsg37
S'verapamil'
p2908
sa(dp2909
g2
Nsg3
S'http://bio2rdf.org/drugbank:DB00682'
p2910
sg5
S'http://bio2rdf.org/drugbank:DB00908'
p2911
sg7
Nsg8
Nsg9
Nsg10
Nsg11
Nsg12
Nsg13
Nsg14
Nsg15
Nsg16
g17
sg18
Nsg19
Nsg20
Nsg21
Nsg22
S'true'
p2912
sg24
Nsg25
Nsg26
S'quinidine'
p2913
sg28
Nsg29
S'Specific_Interaction'
p2914
sg31
Nsg32
Nsg33
Nsg34
Nsg35
Nsg36
Nsg37
S'warfarin'
p2915
sa(dp2916
g2
Nsg3
S'http://bio2rdf.org/drugbank:DB00966'
p2917
sg5
S'http://bio2rdf.org/drugbank:DB00178'
p2918
sg7
Nsg8
Nsg9
Nsg10
Nsg11
Nsg12
Nsg13
Nsg14
Nsg15
Nsg16
g17
sg18
Nsg19
Nsg20
Nsg21
Nsg22
S'true'
p2919
sg24
Nsg25
Nsg26
S'ramipril'
p2920
sg28
Nsg29
S'Increase_Interaction'
p2921
sg31
Nsg32
Nsg33
Nsg34
Nsg35
Nsg36
Nsg37
S'telmisartan'
p2922
sa(dp2923
g2
Nsg3
S'http://bio2rdf.org/drugbank:DB00966'
p2924
sg5
S'http://bio2rdf.org/drugbank:DB00178'
p2925
sg7
Nsg8
Nsg9
Nsg10
Nsg11
Nsg12
Nsg13
Nsg14
Nsg15
Nsg16
g17
sg18
Nsg19
Nsg20
Nsg21
Nsg22
S'true'
p2926
sg24
Nsg25
Nsg26
S'ramiprilat'
p2927
sg28
Nsg29
S'Increase_Interaction'
p2928
sg31
Nsg32
Nsg33
Nsg34
Nsg35
Nsg36
Nsg37
S'telmisartan'
p2929
sa(dp2930
g2
Nsg3
S'http://bio2rdf.org/drugbank:DB00908'
p2931
sg5
S'http://bio2rdf.org/drugbank:DB00206'
p2932
sg7
Nsg8
Nsg9
Nsg10
Nsg11
Nsg12
Nsg13
Nsg14
Nsg15
Nsg16
g17
sg18
Nsg19
Nsg20
Nsg21
Nsg22
S'true'
p2933
sg24
Nsg25
Nsg26
S'Reserpine'
p2934
sg28
Nsg29
S'Caution_Interaction'
p2935
sg31
Nsg32
Nsg33
Nsg34
Nsg35
Nsg36
Nsg37
S'quinidine'
p2936
sa(dp2937
g2
Nsg3
S'http://bio2rdf.org/drugbank:DB00503'
p2938
sg5
S'http://bio2rdf.org/drugbank:DB00203'
p2939
sg7
Nsg8
Nsg9
Nsg10
Nsg11
Nsg12
Nsg13
Nsg14
Nsg15
Nsg16
g17
sg18
Nsg19
Nsg20
Nsg21
Nsg22
S'true'
p2940
sg24
Nsg25
Nsg26
S'REVATIO'
p2941
sg28
Nsg29
S'Caution_Interaction'
p2942
sg31
Nsg32
Nsg33
Nsg34
Nsg35
Nsg36
Nsg37
S'ritonavir'
p2943
sa(dp2944
g2
Nsg3
S'http://bio2rdf.org/drugbank:DB00203'
p2945
sg5
S'http://bio2rdf.org/drugbank:DB00203'
p2946
sg7
Nsg8
Nsg9
Nsg10
Nsg11
Nsg12
Nsg13
Nsg14
Nsg15
Nsg16
g17
sg18
Nsg19
Nsg20
Nsg21
Nsg22
S'true'
p2947
sg24
Nsg25
Nsg26
S'REVATIO'
p2948
sg28
Nsg29
S'Caution_Interaction'
p2949
sg31
Nsg32
Nsg33
Nsg34
Nsg35
Nsg36
Nsg37
S'VIAGRA'
p2950
sa(dp2951
g2
Nsg3
S'http://bio2rdf.org/drugbank:DB01118'
p2952
sg5
S'http://bio2rdf.org/drugbank:DB01045'
p2953
sg7
Nsg8
Nsg9
Nsg10
Nsg11
Nsg12
Nsg13
Nsg14
Nsg15
Nsg16
g17
sg18
Nsg19
Nsg20
Nsg21
Nsg22
S'true'
p2954
sg24
Nsg25
Nsg26
S'rifampin'
p2955
sg28
Nsg29
S'Decrease_Interaction'
p2956
sg31
Nsg32
Nsg33
Nsg34
Nsg35
Nsg36
Nsg37
S'amiodarone'
p2957
sa(dp2958
g2
Nsg3
S'http://bio2rdf.org/drugbank:DB00612'
p2959
sg5
S'http://bio2rdf.org/drugbank:DB01045'
p2960
sg7
Nsg8
Nsg9
Nsg10
Nsg11
Nsg12
Nsg13
Nsg14
Nsg15
Nsg16
g17
sg18
Nsg19
Nsg20
Nsg21
Nsg22
S'true'
p2961
sg24
Nsg25
Nsg26
S'rifampin'
p2962
sg28
Nsg29
S'Decrease_Interaction'
p2963
sg31
Nsg32
Nsg33
Nsg34
Nsg35
Nsg36
Nsg37
S'bisoprolol fumarate'
p2964
sa(dp2965
g2
Nsg3
S'http://bio2rdf.org/drugbank:DB00559'
p2966
sg5
S'http://bio2rdf.org/drugbank:DB01045'
p2967
sg7
Nsg8
Nsg9
Nsg10
Nsg11
Nsg12
Nsg13
Nsg14
Nsg15
Nsg16
g17
sg18
Nsg19
Nsg20
Nsg21
Nsg22
S'true'
p2968
sg24
Nsg25
Nsg26
S'rifampin'
p2969
sg28
Nsg29
S'Decrease_Interaction'
p2970
sg31
Nsg32
Nsg33
Nsg34
Nsg35
Nsg36
Nsg37
S'bosentan'
p2971
sa(dp2972
g2
Nsg3
S'http://bio2rdf.org/drugbank:DB00559'
p2973
sg5
S'http://bio2rdf.org/drugbank:DB01045'
p2974
sg7
Nsg8
Nsg9
Nsg10
Nsg11
Nsg12
Nsg13
Nsg14
Nsg15
Nsg16
g17
sg18
Nsg19
Nsg20
Nsg21
Nsg22
S'true'
p2975
sg24
Nsg25
Nsg26
S'rifampin'
p2976
sg28
Nsg29
S'Increase_Interaction'
p2977
sg31
Nsg32
Nsg33
Nsg34
Nsg35
Nsg36
Nsg37
S'bosentan'
p2978
sa(dp2979
g2
Nsg3
S'http://bio2rdf.org/drugbank:DB00559'
p2980
sg5
S'http://bio2rdf.org/drugbank:DB01045'
p2981
sg7
Nsg8
Nsg9
Nsg10
Nsg11
Nsg12
Nsg13
Nsg14
Nsg15
Nsg16
g17
sg18
Nsg19
Nsg20
Nsg21
Nsg22
S'true'
p2982
sg24
Nsg25
Nsg26
S'Rifampin'
p2983
sg28
Nsg29
S'Specific_Interaction'
p2984
sg31
Nsg32
Nsg33
Nsg34
Nsg35
Nsg36
Nsg37
S'bosentan'
p2985
sa(dp2986
g2
Nsg3
S'http://bio2rdf.org/drugbank:DB01136'
p2987
sg5
S'http://bio2rdf.org/drugbank:DB01045'
p2988
sg7
Nsg8
Nsg9
Nsg10
Nsg11
Nsg12
Nsg13
Nsg14
Nsg15
Nsg16
g17
sg18
Nsg19
Nsg20
Nsg21
Nsg22
S'true'
p2989
sg24
Nsg25
Nsg26
S'Rifampin'
p2990
sg28
Nsg29
S'Decrease_Interaction'
p2991
sg31
Nsg32
Nsg33
Nsg34
Nsg35
Nsg36
Nsg37
S'carvedilol'
p2992
sa(dp2993
g2
Nsg3
S'http://bio2rdf.org/drugbank:DB06695'
p2994
sg5
S'http://bio2rdf.org/drugbank:DB01045'
p2995
sg7
Nsg8
Nsg9
Nsg10
Nsg11
Nsg12
Nsg13
Nsg14
Nsg15
Nsg16
g17
sg18
Nsg19
Nsg20
Nsg21
Nsg22
S'true'
p2996
sg24
Nsg25
Nsg26
S'Rifampin'
p2997
sg28
Nsg29
S'Decrease_Interaction'
p2998
sg31
Nsg32
Nsg33
Nsg34
Nsg35
Nsg36
Nsg37
S'dabigatran'
p2999
sa(dp3000
g2
Nsg3
S'http://bio2rdf.org/drugbank:DB00390'
p3001
sg5
S'http://bio2rdf.org/drugbank:DB01045'
p3002
sg7
Nsg8
Nsg9
Nsg10
Nsg11
Nsg12
Nsg13
Nsg14
Nsg15
Nsg16
g17
sg18
Nsg19
Nsg20
Nsg21
Nsg22
S'true'
p3003
sg24
Nsg25
Nsg26
S'Rifampin'
p3004
sg28
Nsg29
S'Decrease_Interaction'
p3005
sg31
Nsg32
Nsg33
Nsg34
Nsg35
Nsg36
Nsg37
S'digoxin'
p3006
sa(dp3007
g2
Nsg3
S'http://bio2rdf.org/drugbank:DB00343'
p3008
sg5
S'http://bio2rdf.org/drugbank:DB01045'
p3009
sg7
Nsg8
Nsg9
Nsg10
Nsg11
Nsg12
Nsg13
Nsg14
Nsg15
Nsg16
g17
sg18
Nsg19
Nsg20
Nsg21
Nsg22
S'true'
p3010
sg24
Nsg25
Nsg26
S'rifampin'
p3011
sg28
Nsg29
S'Decrease_Interaction'
p3012
sg31
Nsg32
Nsg33
Nsg34
Nsg35
Nsg36
Nsg37
S'diltiazem'
p3013
sa(dp3014
g2
Nsg3
S'http://bio2rdf.org/drugbank:DB00678'
p3015
sg5
S'http://bio2rdf.org/drugbank:DB01045'
p3016
sg7
Nsg8
Nsg9
Nsg10
Nsg11
Nsg12
Nsg13
Nsg14
Nsg15
Nsg16
g17
sg18
Nsg19
Nsg20
Nsg21
Nsg22
S'true'
p3017
sg24
Nsg25
Nsg26
S'Rifampin'
p3018
sg28
Nsg29
S'Decrease_Interaction'
p3019
sg31
Nsg32
Nsg33
Nsg34
Nsg35
Nsg36
Nsg37
S'losartan'
p3020
sa(dp3021
g2
Nsg3
S'http://bio2rdf.org/drugbank:DB06212'
p3022
sg5
S'http://bio2rdf.org/drugbank:DB01045'
p3023
sg7
Nsg8
Nsg9
Nsg10
Nsg11
Nsg12
Nsg13
Nsg14
Nsg15
Nsg16
g17
sg18
Nsg19
Nsg20
Nsg21
Nsg22
S'true'
p3024
sg24
Nsg25
Nsg26
S'rifampin'
p3025
sg28
Nsg29
S'Decrease_Interaction'
p3026
sg31
Nsg32
Nsg33
Nsg34
Nsg35
Nsg36
Nsg37
S'tolvaptan'
p3027
sa(dp3028
g2
Nsg3
S'http://bio2rdf.org/drugbank:DB00374'
p3029
sg5
S'http://bio2rdf.org/drugbank:DB01045'
p3030
sg7
Nsg8
Nsg9
Nsg10
Nsg11
Nsg12
Nsg13
Nsg14
Nsg15
Nsg16
g17
sg18
Nsg19
Nsg20
Nsg21
Nsg22
S'true'
p3031
sg24
Nsg25
Nsg26
S'rifampin'
p3032
sg28
Nsg29
S'Decrease_Interaction'
p3033
sg31
Nsg32
Nsg33
Nsg34
Nsg35
Nsg36
Nsg37
S'treprostinil'
p3034
sa(dp3035
g2
Nsg3
S'http://bio2rdf.org/drugbank:DB00612'
p3036
sg5
S'http://bio2rdf.org/drugbank:DB01045'
p3037
sg7
Nsg8
Nsg9
Nsg10
Nsg11
Nsg12
Nsg13
Nsg14
Nsg15
Nsg16
g17
sg18
Nsg19
Nsg20
Nsg21
Nsg22
S'true'
p3038
sg24
Nsg25
Nsg26
S'rifampin'
p3039
sg28
Nsg29
S'Decrease_Interaction'
p3040
sg31
Nsg32
Nsg33
Nsg34
Nsg35
Nsg36
Nsg37
S'ZEBETA'
p3041
sa(dp3042
g2
Nsg3
S'http://bio2rdf.org/drugbank:DB06228'
p3043
sg5
S'http://bio2rdf.org/drugbank:DB00503'
p3044
sg7
Nsg8
Nsg9
Nsg10
Nsg11
Nsg12
Nsg13
Nsg14
Nsg15
Nsg16
g17
sg18
Nsg19
Nsg20
Nsg21
Nsg22
S'true'
p3045
sg24
Nsg25
Nsg26
S'ritonavir'
p3046
sg28
Nsg29
S'Increase_Interaction'
p3047
sg31
Nsg32
Nsg33
Nsg34
Nsg35
Nsg36
Nsg37
S'rivaroxaban'
p3048
sa(dp3049
g2
Nsg3
S'http://bio2rdf.org/drugbank:DB06228'
p3050
sg5
S'http://bio2rdf.org/drugbank:DB00503'
p3051
sg7
Nsg8
Nsg9
Nsg10
Nsg11
Nsg12
Nsg13
Nsg14
Nsg15
Nsg16
g17
sg18
Nsg19
Nsg20
Nsg21
Nsg22
S'true'
p3052
sg24
Nsg25
Nsg26
S'ritonavir'
p3053
sg28
Nsg29
S'Specific_Interaction'
p3054
sg31
Nsg32
Nsg33
Nsg34
Nsg35
Nsg36
Nsg37
S'rivaroxaban'
p3055
sa(dp3056
g2
Nsg3
S'http://bio2rdf.org/drugbank:DB00252'
p3057
sg5
S'http://bio2rdf.org/drugbank:DB00936'
p3058
sg7
Nsg8
Nsg9
Nsg10
Nsg11
Nsg12
Nsg13
Nsg14
Nsg15
Nsg16
g17
sg18
Nsg19
Nsg20
Nsg21
Nsg22
S'true'
p3059
sg24
Nsg25
Nsg26
S'Salicylic acid'
p3060
sg28
Nsg29
S'Decrease_Interaction'
p3061
sg31
Nsg32
Nsg33
Nsg34
Nsg35
Nsg36
Nsg37
S'phenytoin'
p3062
sa(dp3063
g2
Nsg3
S'http://bio2rdf.org/drugbank:DB00313'
p3064
sg5
S'http://bio2rdf.org/drugbank:DB00936'
p3065
sg7
Nsg8
Nsg9
Nsg10
Nsg11
Nsg12
Nsg13
Nsg14
Nsg15
Nsg16
g17
sg18
Nsg19
Nsg20
Nsg21
Nsg22
S'true'
p3066
sg24
Nsg25
Nsg26
S'Salicylic acid'
p3067
sg28
Nsg29
S'Increase_Interaction'
p3068
sg31
Nsg32
Nsg33
Nsg34
Nsg35
Nsg36
Nsg37
S'valproic acid'
p3069
sa(dp3070
g2
Nsg3
S'http://bio2rdf.org/drugbank:DB00390'
p3071
sg5
S'http://bio2rdf.org/drugbank:DB06212'
p3072
sg7
Nsg8
Nsg9
Nsg10
Nsg11
Nsg12
Nsg13
Nsg14
Nsg15
Nsg16
g17
sg18
Nsg19
Nsg20
Nsg21
Nsg22
S'true'
p3073
sg24
Nsg25
Nsg26
S'SAMSCA'
p3074
sg28
Nsg29
S'Increase_Interaction'
p3075
sg31
Nsg32
Nsg33
Nsg34
Nsg35
Nsg36
Nsg37
S'digoxin'
p3076
sa(dp3077
g2
Nsg3
S'http://bio2rdf.org/drugbank:DB00227'
p3078
sg5
S'http://bio2rdf.org/drugbank:DB06212'
p3079
sg7
Nsg8
Nsg9
Nsg10
Nsg11
Nsg12
Nsg13
Nsg14
Nsg15
Nsg16
g17
sg18
Nsg19
Nsg20
Nsg21
Nsg22
S'true'
p3080
sg24
Nsg25
Nsg26
S'SAMSCA'
p3081
sg28
Nsg29
S'Increase_Interaction'
p3082
sg31
Nsg32
Nsg33
Nsg34
Nsg35
Nsg36
Nsg37
S'lovastatin- hydroxyacid'
p3083
sa(dp3084
g2
Nsg3
S'http://bio2rdf.org/drugbank:DB00227'
p3085
sg5
S'http://bio2rdf.org/drugbank:DB06212'
p3086
sg7
Nsg8
Nsg9
Nsg10
Nsg11
Nsg12
Nsg13
Nsg14
Nsg15
Nsg16
g17
sg18
Nsg19
Nsg20
Nsg21
Nsg22
S'true'
p3087
sg24
Nsg25
Nsg26
S'SAMSCA'
p3088
sg28
Nsg29
S'Increase_Interaction'
p3089
sg31
Nsg32
Nsg33
Nsg34
Nsg35
Nsg36
Nsg37
S'lovastatin'
p3090
sa(dp3091
g2
Nsg3
S'http://bio2rdf.org/drugbank:DB01045'
p3092
sg5
S'http://bio2rdf.org/drugbank:DB06212'
p3093
sg7
Nsg8
Nsg9
Nsg10
Nsg11
Nsg12
Nsg13
Nsg14
Nsg15
Nsg16
g17
sg18
Nsg19
Nsg20
Nsg21
Nsg22
S'true'
p3094
sg24
Nsg25
Nsg26
S'SAMSCA'
p3095
sg28
Nsg29
S'Specific_Interaction'
p3096
sg31
Nsg32
Nsg33
Nsg34
Nsg35
Nsg36
Nsg37
S'rifampin'
p3097
sa(dp3098
g2
Nsg3
S'http://bio2rdf.org/drugbank:DB00537'
p3099
sg5
S'http://bio2rdf.org/drugbank:DB00658'
p3100
sg7
Nsg8
Nsg9
Nsg10
Nsg11
Nsg12
Nsg13
Nsg14
Nsg15
Nsg16
g17
sg18
Nsg19
Nsg20
Nsg21
Nsg22
S'true'
p3101
sg24
Nsg25
Nsg26
S'sevelamer hydrochloride'
p3102
sg28
Nsg29
S'Decrease_Interaction'
p3103
sg31
Nsg32
Nsg33
Nsg34
Nsg35
Nsg36
Nsg37
S'ciprofloxacin'
p3104
sa(dp3105
g2
Nsg3
S'http://bio2rdf.org/drugbank:DB00158'
p3106
sg5
S'http://bio2rdf.org/drugbank:DB00658'
p3107
sg7
Nsg8
Nsg9
Nsg10
Nsg11
Nsg12
Nsg13
Nsg14
Nsg15
Nsg16
g17
sg18
Nsg19
Nsg20
Nsg21
Nsg22
S'true'
p3108
sg24
Nsg25
Nsg26
S'sevelamer hydrochloride'
p3109
sg28
Nsg29
S'Decrease_Interaction'
p3110
sg31
Nsg32
Nsg33
Nsg34
Nsg35
Nsg36
Nsg37
S'folic acid'
p3111
sa(dp3112
g2
Nsg3
S'http://bio2rdf.org/drugbank:DB00451'
p3113
sg5
S'http://bio2rdf.org/drugbank:DB00658'
p3114
sg7
Nsg8
Nsg9
Nsg10
Nsg11
Nsg12
Nsg13
Nsg14
Nsg15
Nsg16
g17
sg18
Nsg19
Nsg20
Nsg21
Nsg22
S'true'
p3115
sg24
Nsg25
Nsg26
S'sevelamer hydrochloride'
p3116
sg28
Nsg29
S'Specific_Interaction'
p3117
sg31
Nsg32
Nsg33
Nsg34
Nsg35
Nsg36
Nsg37
S'levothyroxine'
p3118
sa(dp3119
g2
Nsg3
S'http://bio2rdf.org/drugbank:DB00537'
p3120
sg5
S'http://bio2rdf.org/drugbank:DB00658'
p3121
sg7
Nsg8
Nsg9
Nsg10
Nsg11
Nsg12
Nsg13
Nsg14
Nsg15
Nsg16
g17
sg18
Nsg19
Nsg20
Nsg21
Nsg22
S'true'
p3122
sg24
Nsg25
Nsg26
S'Sevelamer'
p3123
sg28
Nsg29
S'Decrease_Interaction'
p3124
sg31
Nsg32
Nsg33
Nsg34
Nsg35
Nsg36
Nsg37
S'ciprofloxacin'
p3125
sa(dp3126
g2
Nsg3
S'http://bio2rdf.org/drugbank:DB00559'
p3127
sg5
S'http://bio2rdf.org/drugbank:DB00203'
p3128
sg7
Nsg8
Nsg9
Nsg10
Nsg11
Nsg12
Nsg13
Nsg14
Nsg15
Nsg16
g17
sg18
Nsg19
Nsg20
Nsg21
Nsg22
S'true'
p3129
sg24
Nsg25
Nsg26
S'sildenafil'
p3130
sg28
Nsg29
S'Increase_Interaction'
p3131
sg31
Nsg32
Nsg33
Nsg34
Nsg35
Nsg36
Nsg37
S'bosentan'
p3132
sa(dp3133
g2
Nsg3
S'http://bio2rdf.org/drugbank:DB01118'
p3134
sg5
S'http://bio2rdf.org/drugbank:DB00641'
p3135
sg7
Nsg8
Nsg9
Nsg10
Nsg11
Nsg12
Nsg13
Nsg14
Nsg15
Nsg16
g17
sg18
Nsg19
Nsg20
Nsg21
Nsg22
S'true'
p3136
sg24
Nsg25
Nsg26
S'simvastatin'
p3137
sg28
Nsg29
S'Caution_Interaction'
p3138
sg31
Nsg32
Nsg33
Nsg34
Nsg35
Nsg36
Nsg37
S'amiodarone'
p3139
sa(dp3140
g2
Nsg3
S'http://bio2rdf.org/drugbank:DB00381'
p3141
sg5
S'http://bio2rdf.org/drugbank:DB00641'
p3142
sg7
Nsg8
Nsg9
Nsg10
Nsg11
Nsg12
Nsg13
Nsg14
Nsg15
Nsg16
g17
sg18
Nsg19
Nsg20
Nsg21
Nsg22
S'true'
p3143
sg24
Nsg25
Nsg26
S'simvastatin'
p3144
sg28
Nsg29
S'Caution_Interaction'
p3145
sg31
Nsg32
Nsg33
Nsg34
Nsg35
Nsg36
Nsg37
S'amlodipine'
p3146
sa(dp3147
g2
Nsg3
S'http://bio2rdf.org/drugbank:DB00343'
p3148
sg5
S'http://bio2rdf.org/drugbank:DB00641'
p3149
sg7
Nsg8
Nsg9
Nsg10
Nsg11
Nsg12
Nsg13
Nsg14
Nsg15
Nsg16
g17
sg18
Nsg19
Nsg20
Nsg21
Nsg22
S'true'
p3150
sg24
Nsg25
Nsg26
S'simvastatin'
p3151
sg28
Nsg29
S'Caution_Interaction'
p3152
sg31
Nsg32
Nsg33
Nsg34
Nsg35
Nsg36
Nsg37
S'diltiazem'
p3153
sa(dp3154
g2
Nsg3
S'http://bio2rdf.org/drugbank:DB00661'
p3155
sg5
S'http://bio2rdf.org/drugbank:DB00641'
p3156
sg7
Nsg8
Nsg9
Nsg10
Nsg11
Nsg12
Nsg13
Nsg14
Nsg15
Nsg16
g17
sg18
Nsg19
Nsg20
Nsg21
Nsg22
S'true'
p3157
sg24
Nsg25
Nsg26
S'simvastatin'
p3158
sg28
Nsg29
S'Caution_Interaction'
p3159
sg31
Nsg32
Nsg33
Nsg34
Nsg35
Nsg36
Nsg37
S'verapamil'
p3160
sa(dp3161
g2
Nsg3
S'http://bio2rdf.org/drugbank:DB01344'
p3162
sg5
S'http://bio2rdf.org/drugbank:DB01638'
p3163
sg7
Nsg8
Nsg9
Nsg10
Nsg11
Nsg12
Nsg13
Nsg14
Nsg15
Nsg16
g17
sg18
Nsg19
Nsg20
Nsg21
Nsg22
S'true'
p3164
sg24
Nsg25
Nsg26
S'Sorbitol'
p3165
sg28
Nsg29
S'Specific_Interaction'
p3166
sg31
Nsg32
Nsg33
Nsg34
Nsg35
Nsg36
Nsg37
S'KAYEXALATE'
p3167
sa(dp3168
g2
Nsg3
S'http://bio2rdf.org/drugbank:DB01373'
p3169
sg5
S'http://bio2rdf.org/drugbank:DB00489'
p3170
sg7
Nsg8
Nsg9
Nsg10
Nsg11
Nsg12
Nsg13
Nsg14
Nsg15
Nsg16
g17
sg18
Nsg19
Nsg20
Nsg21
Nsg22
S'true'
p3171
sg24
Nsg25
Nsg26
S'Sotalol'
p3172
sg28
Nsg29
S'Specific_Interaction'
p3173
sg31
Nsg32
Nsg33
Nsg34
Nsg35
Nsg36
Nsg37
S'calcium blocking drugs'
p3174
sa(dp3175
g2
Nsg3
S'http://bio2rdf.org/drugbank:DB00390'
p3176
sg5
S'http://bio2rdf.org/drugbank:DB00489'
p3177
sg7
Nsg8
Nsg9
Nsg10
Nsg11
Nsg12
Nsg13
Nsg14
Nsg15
Nsg16
g17
sg18
Nsg19
Nsg20
Nsg21
Nsg22
S'true'
p3178
sg24
Nsg25
Nsg26
S'sotalol'
p3179
sg28
Nsg29
S'Specific_Interaction'
p3180
sg31
Nsg32
Nsg33
Nsg34
Nsg35
Nsg36
Nsg37
S'digoxin'
p3181
sa(dp3182
g2
Nsg3
S'http://bio2rdf.org/drugbank:DB01432'
p3183
sg5
S'http://bio2rdf.org/drugbank:DB00421'
p3184
sg7
Nsg8
Nsg9
Nsg10
Nsg11
Nsg12
Nsg13
Nsg14
Nsg15
Nsg16
g17
sg18
Nsg19
Nsg20
Nsg21
Nsg22
S'true'
p3185
sg24
Nsg25
Nsg26
S'spironolactone'
p3186
sg28
Nsg29
S'Specific_Interaction'
p3187
sg31
Nsg32
Nsg33
Nsg34
Nsg35
Nsg36
Nsg37
S'cholestyramine'
p3188
sa(dp3189
g2
Nsg3
S'http://bio2rdf.org/drugbank:DB00390'
p3190
sg5
S'http://bio2rdf.org/drugbank:DB00421'
p3191
sg7
Nsg8
Nsg9
Nsg10
Nsg11
Nsg12
Nsg13
Nsg14
Nsg15
Nsg16
g17
sg18
Nsg19
Nsg20
Nsg21
Nsg22
S'true'
p3192
sg24
Nsg25
Nsg26
S'spironolactone'
p3193
sg28
Nsg29
S'Increase_Interaction'
p3194
sg31
Nsg32
Nsg33
Nsg34
Nsg35
Nsg36
Nsg37
S'digoxin'
p3195
sa(dp3196
g2
Nsg3
S'http://bio2rdf.org/drugbank:DB00384'
p3197
sg5
S'http://bio2rdf.org/drugbank:DB00421'
p3198
sg7
Nsg8
Nsg9
Nsg10
Nsg11
Nsg12
Nsg13
Nsg14
Nsg15
Nsg16
g17
sg18
Nsg19
Nsg20
Nsg21
Nsg22
S'true'
p3199
sg24
Nsg25
Nsg26
S'spironolactone'
p3200
sg28
Nsg29
S'Specific_Interaction'
p3201
sg31
Nsg32
Nsg33
Nsg34
Nsg35
Nsg36
Nsg37
S'Dyrenium'
p3202
sa(dp3203
g2
Nsg3
S'http://bio2rdf.org/drugbank:DB00328'
p3204
sg5
S'http://bio2rdf.org/drugbank:DB00421'
p3205
sg7
Nsg8
Nsg9
Nsg10
Nsg11
Nsg12
Nsg13
Nsg14
Nsg15
Nsg16
g17
sg18
Nsg19
Nsg20
Nsg21
Nsg22
S'true'
p3206
sg24
Nsg25
Nsg26
S'Spironolactone'
p3207
sg28
Nsg29
S'Specific_Interaction'
p3208
sg31
Nsg32
Nsg33
Nsg34
Nsg35
Nsg36
Nsg37
S'indomethacin'
p3209
sa(dp3210
g2
Nsg3
S'http://bio2rdf.org/drugbank:DB00368'
p3211
sg5
S'http://bio2rdf.org/drugbank:DB00421'
p3212
sg7
Nsg8
Nsg9
Nsg10
Nsg11
Nsg12
Nsg13
Nsg14
Nsg15
Nsg16
g17
sg18
Nsg19
Nsg20
Nsg21
Nsg22
S'true'
p3213
sg24
Nsg25
Nsg26
S'spironolactone'
p3214
sg28
Nsg29
S'Specific_Interaction'
p3215
sg31
Nsg32
Nsg33
Nsg34
Nsg35
Nsg36
Nsg37
S'norepinephrine'
p3216
sa(dp3217
g2
Nsg3
S'http://bio2rdf.org/drugbank:DB00695'
p3218
sg5
S'http://bio2rdf.org/drugbank:DB00364'
p3219
sg7
Nsg8
Nsg9
Nsg10
Nsg11
Nsg12
Nsg13
Nsg14
Nsg15
Nsg16
g17
sg18
Nsg19
Nsg20
Nsg21
Nsg22
S'true'
p3220
sg24
Nsg25
Nsg26
S'sucralfate'
p3221
sg28
Nsg29
S'Specific_Interaction'
p3222
sg31
Nsg32
Nsg33
Nsg34
Nsg35
Nsg36
Nsg37
S'LASIX'
p3223
sa(dp3224
g2
Nsg3
S'http://bio2rdf.org/drugbank:DB00335'
p3225
sg5
S'http://bio2rdf.org/drugbank:DB00401'
p3226
sg7
Nsg8
Nsg9
Nsg10
Nsg11
Nsg12
Nsg13
Nsg14
Nsg15
Nsg16
g17
sg18
Nsg19
Nsg20
Nsg21
Nsg22
S'true'
p3227
sg24
Nsg25
Nsg26
S'SULAR'
p3228
sg28
Nsg29
S'Specific_Interaction'
p3229
sg31
Nsg32
Nsg33
Nsg34
Nsg35
Nsg36
Nsg37
S'atenolol'
p3230
sa(dp3231
g2
Nsg3
S'http://bio2rdf.org/drugbank:DB00252'
p3232
sg5
S'http://bio2rdf.org/drugbank:DB00401'
p3233
sg7
Nsg8
Nsg9
Nsg10
Nsg11
Nsg12
Nsg13
Nsg14
Nsg15
Nsg16
g17
sg18
Nsg19
Nsg20
Nsg21
Nsg22
S'true'
p3234
sg24
Nsg25
Nsg26
S'SULAR'
p3235
sg28
Nsg29
S'Caution_Interaction'
p3236
sg31
Nsg32
Nsg33
Nsg34
Nsg35
Nsg36
Nsg37
S'phenytoin'
p3237
sa(dp3238
g2
Nsg3
S'http://bio2rdf.org/drugbank:DB00390'
p3239
sg5
S'http://bio2rdf.org/drugbank:DB00795'
p3240
sg7
Nsg8
Nsg9
Nsg10
Nsg11
Nsg12
Nsg13
Nsg14
Nsg15
Nsg16
g17
sg18
Nsg19
Nsg20
Nsg21
Nsg22
S'true'
p3241
sg24
Nsg25
Nsg26
S'sulfasalazine'
p3242
sg28
Nsg29
S'Decrease_Interaction'
p3243
sg31
Nsg32
Nsg33
Nsg34
Nsg35
Nsg36
Nsg37
S'digoxin'
p3244
sa(dp3245
g2
Nsg3
S'http://bio2rdf.org/drugbank:DB00559'
p3246
sg5
S'http://bio2rdf.org/drugbank:DB00864'
p3247
sg7
Nsg8
Nsg9
Nsg10
Nsg11
Nsg12
Nsg13
Nsg14
Nsg15
Nsg16
g17
sg18
Nsg19
Nsg20
Nsg21
Nsg22
S'true'
p3248
sg24
Nsg25
Nsg26
S'tacrolimus'
p3249
sg28
Nsg29
S'Increase_Interaction'
p3250
sg31
Nsg32
Nsg33
Nsg34
Nsg35
Nsg36
Nsg37
S'bosentan'
p3251
sa(dp3252
g2
Nsg3
S'http://bio2rdf.org/drugbank:DB00559'
p3253
sg5
S'http://bio2rdf.org/drugbank:DB00864'
p3254
sg7
Nsg8
Nsg9
Nsg10
Nsg11
Nsg12
Nsg13
Nsg14
Nsg15
Nsg16
g17
sg18
Nsg19
Nsg20
Nsg21
Nsg22
S'true'
p3255
sg24
Nsg25
Nsg26
S'tacrolimus'
p3256
sg28
Nsg29
S'Caution_Interaction'
p3257
sg31
Nsg32
Nsg33
Nsg34
Nsg35
Nsg36
Nsg37
S'Tracleer'
p3258
sa(dp3259
g2
Nsg3
S'http://bio2rdf.org/drugbank:DB00571'
p3260
sg5
S'http://bio2rdf.org/drugbank:DB01195'
p3261
sg7
Nsg8
Nsg9
Nsg10
Nsg11
Nsg12
Nsg13
Nsg14
Nsg15
Nsg16
g17
sg18
Nsg19
Nsg20
Nsg21
Nsg22
S'true'
p3262
sg24
Nsg25
Nsg26
S'TAMBOCOR'
p3263
sg28
Nsg29
S'Increase_Interaction'
p3264
sg31
Nsg32
Nsg33
Nsg34
Nsg35
Nsg36
Nsg37
S'propranolol'
p3265
sa(dp3266
g2
Nsg3
S'http://bio2rdf.org/drugbank:DB00571'
p3267
sg5
S'http://bio2rdf.org/drugbank:DB01195'
p3268
sg7
Nsg8
Nsg9
Nsg10
Nsg11
Nsg12
Nsg13
Nsg14
Nsg15
Nsg16
g17
sg18
Nsg19
Nsg20
Nsg21
Nsg22
S'true'
p3269
sg24
Nsg25
Nsg26
S'TAMBOCOR'
p3270
sg28
Nsg29
S'Specific_Interaction'
p3271
sg31
Nsg32
Nsg33
Nsg34
Nsg35
Nsg36
Nsg37
S'propranolol'
p3272
sa(dp3273
g2
Nsg3
S'http://bio2rdf.org/drugbank:DB01076'
p3274
sg5
S'http://bio2rdf.org/drugbank:DB05521'
p3275
sg7
Nsg8
Nsg9
Nsg10
Nsg11
Nsg12
Nsg13
Nsg14
Nsg15
Nsg16
g17
sg18
Nsg19
Nsg20
Nsg21
Nsg22
S'true'
p3276
sg24
Nsg25
Nsg26
S'telaprevir'
p3277
sg28
Nsg29
S'Caution_Interaction'
p3278
sg31
Nsg32
Nsg33
Nsg34
Nsg35
Nsg36
Nsg37
S'atorvastatin'
p3279
sa(dp3280
g2
Nsg3
S'http://bio2rdf.org/drugbank:DB00661'
p3281
sg5
S'http://bio2rdf.org/drugbank:DB00976'
p3282
sg7
Nsg8
Nsg9
Nsg10
Nsg11
Nsg12
Nsg13
Nsg14
Nsg15
Nsg16
g17
sg18
Nsg19
Nsg20
Nsg21
Nsg22
S'true'
p3283
sg24
Nsg25
Nsg26
S'telithromycin'
p3284
sg28
Nsg29
S'Increase_Interaction'
p3285
sg31
Nsg32
Nsg33
Nsg34
Nsg35
Nsg36
Nsg37
S'verapamil'
p3286
sa(dp3287
g2
Nsg3
S'http://bio2rdf.org/drugbank:DB00390'
p3288
sg5
S'http://bio2rdf.org/drugbank:DB00966'
p3289
sg7
Nsg8
Nsg9
Nsg10
Nsg11
Nsg12
Nsg13
Nsg14
Nsg15
Nsg16
g17
sg18
Nsg19
Nsg20
Nsg21
Nsg22
S'true'
p3290
sg24
Nsg25
Nsg26
S'telmisartan'
p3291
sg28
Nsg29
S'Increase_Interaction'
p3292
sg31
Nsg32
Nsg33
Nsg34
Nsg35
Nsg36
Nsg37
S'digoxin'
p3293
sa(dp3294
g2
Nsg3
S'http://bio2rdf.org/drugbank:DB00178'
p3295
sg5
S'http://bio2rdf.org/drugbank:DB00966'
p3296
sg7
Nsg8
Nsg9
Nsg10
Nsg11
Nsg12
Nsg13
Nsg14
Nsg15
Nsg16
g17
sg18
Nsg19
Nsg20
Nsg21
Nsg22
S'true'
p3297
sg24
Nsg25
Nsg26
S'telmisartan'
p3298
sg28
Nsg29
S'Caution_Interaction'
p3299
sg31
Nsg32
Nsg33
Nsg34
Nsg35
Nsg36
Nsg37
S'ramipril'
p3300
sa(dp3301
g2
Nsg3
S'http://bio2rdf.org/drugbank:DB00178'
p3302
sg5
S'http://bio2rdf.org/drugbank:DB00966'
p3303
sg7
Nsg8
Nsg9
Nsg10
Nsg11
Nsg12
Nsg13
Nsg14
Nsg15
Nsg16
g17
sg18
Nsg19
Nsg20
Nsg21
Nsg22
S'true'
p3304
sg24
Nsg25
Nsg26
S'telmisartan'
p3305
sg28
Nsg29
S'Increase_Interaction'
p3306
sg31
Nsg32
Nsg33
Nsg34
Nsg35
Nsg36
Nsg37
S'ramipril'
p3307
sa(dp3308
g2
Nsg3
S'http://bio2rdf.org/drugbank:DB00178'
p3309
sg5
S'http://bio2rdf.org/drugbank:DB00966'
p3310
sg7
Nsg8
Nsg9
Nsg10
Nsg11
Nsg12
Nsg13
Nsg14
Nsg15
Nsg16
g17
sg18
Nsg19
Nsg20
Nsg21
Nsg22
S'true'
p3311
sg24
Nsg25
Nsg26
S'telmisartan'
p3312
sg28
Nsg29
S'Specific_Interaction'
p3313
sg31
Nsg32
Nsg33
Nsg34
Nsg35
Nsg36
Nsg37
S'ramipril'
p3314
sa(dp3315
g2
Nsg3
S'http://bio2rdf.org/drugbank:DB00178'
p3316
sg5
S'http://bio2rdf.org/drugbank:DB00966'
p3317
sg7
Nsg8
Nsg9
Nsg10
Nsg11
Nsg12
Nsg13
Nsg14
Nsg15
Nsg16
g17
sg18
Nsg19
Nsg20
Nsg21
Nsg22
S'true'
p3318
sg24
Nsg25
Nsg26
S'telmisartan'
p3319
sg28
Nsg29
S'Increase_Interaction'
p3320
sg31
Nsg32
Nsg33
Nsg34
Nsg35
Nsg36
Nsg37
S'ramiprilat'
p3321
sa(dp3322
g2
Nsg3
S'http://bio2rdf.org/drugbank:DB00682'
p3323
sg5
S'http://bio2rdf.org/drugbank:DB00966'
p3324
sg7
Nsg8
Nsg9
Nsg10
Nsg11
Nsg12
Nsg13
Nsg14
Nsg15
Nsg16
g17
sg18
Nsg19
Nsg20
Nsg21
Nsg22
S'true'
p3325
sg24
Nsg25
Nsg26
S'Telmisartan'
p3326
sg28
Nsg29
S'Decrease_Interaction'
p3327
sg31
Nsg32
Nsg33
Nsg34
Nsg35
Nsg36
Nsg37
S'warfarin'
p3328
sa(dp3329
g2
Nsg3
S'http://bio2rdf.org/drugbank:DB00390'
p3330
sg5
S'http://bio2rdf.org/drugbank:DB00759'
p3331
sg7
Nsg8
Nsg9
Nsg10
Nsg11
Nsg12
Nsg13
Nsg14
Nsg15
Nsg16
g17
sg18
Nsg19
Nsg20
Nsg21
Nsg22
S'true'
p3332
sg24
Nsg25
Nsg26
S'tetracycline'
p3333
sg28
Nsg29
S'Increase_Interaction'
p3334
sg31
Nsg32
Nsg33
Nsg34
Nsg35
Nsg36
Nsg37
S'digoxin'
p3335
sa(dp3336
g2
Nsg3
S'http://bio2rdf.org/drugbank:DB00571'
p3337
sg5
S'http://bio2rdf.org/drugbank:DB00451'
p3338
sg7
Nsg8
Nsg9
Nsg10
Nsg11
Nsg12
Nsg13
Nsg14
Nsg15
Nsg16
g17
sg18
Nsg19
Nsg20
Nsg21
Nsg22
S'true'
p3339
sg24
Nsg25
Nsg26
S'Thyroxine'
p3340
sg28
Nsg29
S'Specific_Interaction'
p3341
sg31
Nsg32
Nsg33
Nsg34
Nsg35
Nsg36
Nsg37
S'propranolol'
p3342
sa(dp3343
g2
Nsg3
S'http://bio2rdf.org/drugbank:DB01076'
p3344
sg5
S'http://bio2rdf.org/drugbank:DB00932'
p3345
sg7
Nsg8
Nsg9
Nsg10
Nsg11
Nsg12
Nsg13
Nsg14
Nsg15
Nsg16
g17
sg18
Nsg19
Nsg20
Nsg21
Nsg22
S'true'
p3346
sg24
Nsg25
Nsg26
S'tipranavir plus ritonavir'
p3347
sg28
Nsg29
S'Caution_Interaction'
p3348
sg31
Nsg32
Nsg33
Nsg34
Nsg35
Nsg36
Nsg37
S'atorvastatin'
p3349
sa(dp3350
g2
Nsg3
S'http://bio2rdf.org/drugbank:DB00035'
p3351
sg5
S'http://bio2rdf.org/drugbank:DB06212'
p3352
sg7
Nsg8
Nsg9
Nsg10
Nsg11
Nsg12
Nsg13
Nsg14
Nsg15
Nsg16
g17
sg18
Nsg19
Nsg20
Nsg21
Nsg22
S'true'
p3353
sg24
Nsg25
Nsg26
S'tolvaptan'
p3354
sg28
Nsg29
S'Specific_Interaction'
p3355
sg31
Nsg32
Nsg33
Nsg34
Nsg35
Nsg36
Nsg37
S'desmopressin'
p3356
sa(dp3357
g2
Nsg3
S'http://bio2rdf.org/drugbank:DB01345'
p3358
sg5
S'http://bio2rdf.org/drugbank:DB06212'
p3359
sg7
Nsg8
Nsg9
Nsg10
Nsg11
Nsg12
Nsg13
Nsg14
Nsg15
Nsg16
g17
sg18
Nsg19
Nsg20
Nsg21
Nsg22
S'true'
p3360
sg24
Nsg25
Nsg26
S'tolvaptan'
p3361
sg28
Nsg29
S'Specific_Interaction'
p3362
sg31
Nsg32
Nsg33
Nsg34
Nsg35
Nsg36
Nsg37
S'potassium sparing diuretics'
p3363
sa(dp3364
g2
Nsg3
S'http://bio2rdf.org/drugbank:DB00727'
p3365
sg5
S'http://bio2rdf.org/drugbank:DB00009'
p3366
sg7
Nsg8
Nsg9
Nsg10
Nsg11
Nsg12
Nsg13
Nsg14
Nsg15
Nsg16
g17
sg18
Nsg19
Nsg20
Nsg21
Nsg22
S'true'
p3367
sg24
Nsg25
Nsg26
S't-PA'
p3368
sg28
Nsg29
S'Decrease_Interaction'
p3369
sg31
Nsg32
Nsg33
Nsg34
Nsg35
Nsg36
Nsg37
S'nitroglycerin'
p3370
sa(dp3371
g2
Nsg3
S'http://bio2rdf.org/drugbank:DB00091'
p3372
sg5
S'http://bio2rdf.org/drugbank:DB00559'
p3373
sg7
Nsg8
Nsg9
Nsg10
Nsg11
Nsg12
Nsg13
Nsg14
Nsg15
Nsg16
g17
sg18
Nsg19
Nsg20
Nsg21
Nsg22
S'true'
p3374
sg24
Nsg25
Nsg26
S'Tracleer'
p3375
sg28
Nsg29
S'Caution_Interaction'
p3376
sg31
Nsg32
Nsg33
Nsg34
Nsg35
Nsg36
Nsg37
S'cyclosporine A i'
p3377
sa(dp3378
g2
Nsg3
S'http://bio2rdf.org/drugbank:DB00091'
p3379
sg5
S'http://bio2rdf.org/drugbank:DB00559'
p3380
sg7
Nsg8
Nsg9
Nsg10
Nsg11
Nsg12
Nsg13
Nsg14
Nsg15
Nsg16
g17
sg18
Nsg19
Nsg20
Nsg21
Nsg22
S'true'
p3381
sg24
Nsg25
Nsg26
S'Tracleer'
p3382
sg28
Nsg29
S'Caution_Interaction'
p3383
sg31
Nsg32
Nsg33
Nsg34
Nsg35
Nsg36
Nsg37
S'cyclosporine A'
p3384
sa(dp3385
g2
Nsg3
S'http://bio2rdf.org/drugbank:DB01016'
p3386
sg5
S'http://bio2rdf.org/drugbank:DB00559'
p3387
sg7
Nsg8
Nsg9
Nsg10
Nsg11
Nsg12
Nsg13
Nsg14
Nsg15
Nsg16
g17
sg18
Nsg19
Nsg20
Nsg21
Nsg22
S'true'
p3388
sg24
Nsg25
Nsg26
S'Tracleer'
p3389
sg28
Nsg29
S'Caution_Interaction'
p3390
sg31
Nsg32
Nsg33
Nsg34
Nsg35
Nsg36
Nsg37
S'glyburide'
p3391
sa(dp3392
g2
Nsg3
S'http://bio2rdf.org/drugbank:DB00661'
p3393
sg5
S'http://bio2rdf.org/drugbank:DB00519'
p3394
sg7
Nsg8
Nsg9
Nsg10
Nsg11
Nsg12
Nsg13
Nsg14
Nsg15
Nsg16
g17
sg18
Nsg19
Nsg20
Nsg21
Nsg22
S'true'
p3395
sg24
Nsg25
Nsg26
S'trandolapril'
p3396
sg28
Nsg29
S'Specific_Interaction'
p3397
sg31
Nsg32
Nsg33
Nsg34
Nsg35
Nsg36
Nsg37
S'verapamil SR'
p3398
sa(dp3399
g2
Nsg3
S'http://bio2rdf.org/drugbank:DB01118'
p3400
sg5
S'http://bio2rdf.org/drugbank:DB00656'
p3401
sg7
Nsg8
Nsg9
Nsg10
Nsg11
Nsg12
Nsg13
Nsg14
Nsg15
Nsg16
g17
sg18
Nsg19
Nsg20
Nsg21
Nsg22
S'true'
p3402
sg24
Nsg25
Nsg26
S'trazodone'
p3403
sg28
Nsg29
S'Specific_Interaction'
p3404
sg31
Nsg32
Nsg33
Nsg34
Nsg35
Nsg36
Nsg37
S'amiodarone'
p3405
sa(dp3406
g2
Nsg3
S'http://bio2rdf.org/drugbank:DB01197'
p3407
sg5
S'http://bio2rdf.org/drugbank:DB00806'
p3408
sg7
Nsg8
Nsg9
Nsg10
Nsg11
Nsg12
Nsg13
Nsg14
Nsg15
Nsg16
g17
sg18
Nsg19
Nsg20
Nsg21
Nsg22
S'true'
p3409
sg24
Nsg25
Nsg26
S'TRENTAL'
p3410
sg28
Nsg29
S'Specific_Interaction'
p3411
sg31
Nsg32
Nsg33
Nsg34
Nsg35
Nsg36
Nsg37
S'captopril'
p3412
sa(dp3413
g2
Nsg3
S'http://bio2rdf.org/drugbank:DB01115'
p3414
sg5
S'http://bio2rdf.org/drugbank:DB00806'
p3415
sg7
Nsg8
Nsg9
Nsg10
Nsg11
Nsg12
Nsg13
Nsg14
Nsg15
Nsg16
g17
sg18
Nsg19
Nsg20
Nsg21
Nsg22
S'true'
p3416
sg24
Nsg25
Nsg26
S'TRENTAL'
p3417
sg28
Nsg29
S'Specific_Interaction'
p3418
sg31
Nsg32
Nsg33
Nsg34
Nsg35
Nsg36
Nsg37
S'nifedipine'
p3419
sa(dp3420
g2
Nsg3
S'http://bio2rdf.org/drugbank:DB00277'
p3421
sg5
S'http://bio2rdf.org/drugbank:DB00806'
p3422
sg7
Nsg8
Nsg9
Nsg10
Nsg11
Nsg12
Nsg13
Nsg14
Nsg15
Nsg16
g17
sg18
Nsg19
Nsg20
Nsg21
Nsg22
S'true'
p3423
sg24
Nsg25
Nsg26
S'TRENTAL'
p3424
sg28
Nsg29
S'Increase_Interaction'
p3425
sg31
Nsg32
Nsg33
Nsg34
Nsg35
Nsg36
Nsg37
S'theophylline'
p3426
sa(dp3427
g2
Nsg3
S'http://bio2rdf.org/drugbank:DB01345'
p3428
sg5
S'http://bio2rdf.org/drugbank:DB00384'
p3429
sg7
Nsg8
Nsg9
Nsg10
Nsg11
Nsg12
Nsg13
Nsg14
Nsg15
Nsg16
g17
sg18
Nsg19
Nsg20
Nsg21
Nsg22
S'true'
p3430
sg24
Nsg25
Nsg26
S'Triamterene and hydrochlorothiazide'
p3431
sg28
Nsg29
S'Caution_Interaction'
p3432
sg31
Nsg32
Nsg33
Nsg34
Nsg35
Nsg36
Nsg37
S'potassium-conserving agents'
p3433
sa(dp3434
g2
Nsg3
S'http://bio2rdf.org/drugbank:DB00908'
p3435
sg5
S'http://bio2rdf.org/drugbank:DB00384'
p3436
sg7
Nsg8
Nsg9
Nsg10
Nsg11
Nsg12
Nsg13
Nsg14
Nsg15
Nsg16
g17
sg18
Nsg19
Nsg20
Nsg21
Nsg22
S'true'
p3437
sg24
Nsg25
Nsg26
S'triamterene and hydrochlorothiazide'
p3438
sg28
Nsg29
S'Specific_Interaction'
p3439
sg31
Nsg32
Nsg33
Nsg34
Nsg35
Nsg36
Nsg37
S'quinidine'
p3440
sa(dp3441
g2
Nsg3
S'http://bio2rdf.org/drugbank:DB00672'
p3442
sg5
S'http://bio2rdf.org/drugbank:DB00384'
p3443
sg7
Nsg8
Nsg9
Nsg10
Nsg11
Nsg12
Nsg13
Nsg14
Nsg15
Nsg16
g17
sg18
Nsg19
Nsg20
Nsg21
Nsg22
S'true'
p3444
sg24
Nsg25
Nsg26
S'triamterene'
p3445
sg28
Nsg29
S'Specific_Interaction'
p3446
sg31
Nsg32
Nsg33
Nsg34
Nsg35
Nsg36
Nsg37
S'chlorpropamide'
p3447
sa(dp3448
g2
Nsg3
S'http://bio2rdf.org/drugbank:DB01345'
p3449
sg5
S'http://bio2rdf.org/drugbank:DB00384'
p3450
sg7
Nsg8
Nsg9
Nsg10
Nsg11
Nsg12
Nsg13
Nsg14
Nsg15
Nsg16
g17
sg18
Nsg19
Nsg20
Nsg21
Nsg22
S'true'
p3451
sg24
Nsg25
Nsg26
S'triamterene'
p3452
sg28
Nsg29
S'Specific_Interaction'
p3453
sg31
Nsg32
Nsg33
Nsg34
Nsg35
Nsg36
Nsg37
S'potassium-containing medications'
p3454
sa(dp3455
g2
Nsg3
S'http://bio2rdf.org/drugbank:DB00343'
p3456
sg5
S'http://bio2rdf.org/drugbank:DB00897'
p3457
sg7
Nsg8
Nsg9
Nsg10
Nsg11
Nsg12
Nsg13
Nsg14
Nsg15
Nsg16
g17
sg18
Nsg19
Nsg20
Nsg21
Nsg22
S'true'
p3458
sg24
Nsg25
Nsg26
S'triazolam'
p3459
sg28
Nsg29
S'Increase_Interaction'
p3460
sg31
Nsg32
Nsg33
Nsg34
Nsg35
Nsg36
Nsg37
S'diltiazem'
p3461
sa(dp3462
g2
Nsg3
S'http://bio2rdf.org/drugbank:DB00204'
p3463
sg5
S'http://bio2rdf.org/drugbank:DB00440'
p3464
sg7
Nsg8
Nsg9
Nsg10
Nsg11
Nsg12
Nsg13
Nsg14
Nsg15
Nsg16
g17
sg18
Nsg19
Nsg20
Nsg21
Nsg22
S'true'
p3465
sg24
Nsg25
Nsg26
S'trimethoprim'
p3466
sg28
Nsg29
S'Caution_Interaction'
p3467
sg31
Nsg32
Nsg33
Nsg34
Nsg35
Nsg36
Nsg37
S'dofetilide'
p3468
sa(dp3469
g2
Nsg3
S'http://bio2rdf.org/drugbank:DB00204'
p3470
sg5
S'http://bio2rdf.org/drugbank:DB00440'
p3471
sg7
Nsg8
Nsg9
Nsg10
Nsg11
Nsg12
Nsg13
Nsg14
Nsg15
Nsg16
g17
sg18
Nsg19
Nsg20
Nsg21
Nsg22
S'true'
p3472
sg24
Nsg25
Nsg26
S'trimethoprim'
p3473
sg28
Nsg29
S'Specific_Interaction'
p3474
sg31
Nsg32
Nsg33
Nsg34
Nsg35
Nsg36
Nsg37
S'dofetilide'
p3475
sa(dp3476
g2
Nsg3
S'http://bio2rdf.org/drugbank:DB00335'
p3477
sg5
S'http://bio2rdf.org/drugbank:DB00177'
p3478
sg7
Nsg8
Nsg9
Nsg10
Nsg11
Nsg12
Nsg13
Nsg14
Nsg15
Nsg16
g17
sg18
Nsg19
Nsg20
Nsg21
Nsg22
S'true'
p3479
sg24
Nsg25
Nsg26
S'valsartan'
p3480
sg28
Nsg29
S'Specific_Interaction'
p3481
sg31
Nsg32
Nsg33
Nsg34
Nsg35
Nsg36
Nsg37
S'atenolol'
p3482
sa(dp3483
g2
Nsg3
S'http://bio2rdf.org/drugbank:DB01345'
p3484
sg5
S'http://bio2rdf.org/drugbank:DB00177'
p3485
sg7
Nsg8
Nsg9
Nsg10
Nsg11
Nsg12
Nsg13
Nsg14
Nsg15
Nsg16
g17
sg18
Nsg19
Nsg20
Nsg21
Nsg22
S'true'
p3486
sg24
Nsg25
Nsg26
S'valsartan'
p3487
sg28
Nsg29
S'Specific_Interaction'
p3488
sg31
Nsg32
Nsg33
Nsg34
Nsg35
Nsg36
Nsg37
S'potassium sparing diuretics'
p3489
sa(dp3490
g2
Nsg3
S'http://bio2rdf.org/drugbank:DB01345'
p3491
sg5
S'http://bio2rdf.org/drugbank:DB00177'
p3492
sg7
Nsg8
Nsg9
Nsg10
Nsg11
Nsg12
Nsg13
Nsg14
Nsg15
Nsg16
g17
sg18
Nsg19
Nsg20
Nsg21
Nsg22
S'true'
p3493
sg24
Nsg25
Nsg26
S'valsartan'
p3494
sg28
Nsg29
S'Specific_Interaction'
p3495
sg31
Nsg32
Nsg33
Nsg34
Nsg35
Nsg36
Nsg37
S'potassium supplements'
p3496
sa(dp3497
g2
Nsg3
S'http://bio2rdf.org/drugbank:DB00641'
p3498
sg5
S'http://bio2rdf.org/drugbank:DB00872'
p3499
sg7
Nsg8
Nsg9
Nsg10
Nsg11
Nsg12
Nsg13
Nsg14
Nsg15
Nsg16
g17
sg18
Nsg19
Nsg20
Nsg21
Nsg22
S'true'
p3500
sg24
Nsg25
Nsg26
S'VAPRISOL'
p3501
sg28
Nsg29
S'Increase_Interaction'
p3502
sg31
Nsg32
Nsg33
Nsg34
Nsg35
Nsg36
Nsg37
S'simvastatin'
p3503
sa(dp3504
g2
Nsg3
S'http://bio2rdf.org/drugbank:DB00682'
p3505
sg5
S'http://bio2rdf.org/drugbank:DB00872'
p3506
sg7
Nsg8
Nsg9
Nsg10
Nsg11
Nsg12
Nsg13
Nsg14
Nsg15
Nsg16
g17
sg18
Nsg19
Nsg20
Nsg21
Nsg22
S'true'
p3507
sg24
Nsg25
Nsg26
S'VAPRISOL'
p3508
sg28
Nsg29
S'Increase_Interaction'
p3509
sg31
Nsg32
Nsg33
Nsg34
Nsg35
Nsg36
Nsg37
S'S-warfarin'
p3510
sa(dp3511
g2
Nsg3
S'http://bio2rdf.org/drugbank:DB00640'
p3512
sg5
S'http://bio2rdf.org/drugbank:DB00661'
p3513
sg7
Nsg8
Nsg9
Nsg10
Nsg11
Nsg12
Nsg13
Nsg14
Nsg15
Nsg16
g17
sg18
Nsg19
Nsg20
Nsg21
Nsg22
S'true'
p3514
sg24
Nsg25
Nsg26
S'verapamil'
p3515
sg28
Nsg29
S'Specific_Interaction'
p3516
sg31
Nsg32
Nsg33
Nsg34
Nsg35
Nsg36
Nsg37
S'Adenocard'
p3517
sa(dp3518
g2
Nsg3
S'http://bio2rdf.org/drugbank:DB00898'
p3519
sg5
S'http://bio2rdf.org/drugbank:DB00661'
p3520
sg7
Nsg8
Nsg9
Nsg10
Nsg11
Nsg12
Nsg13
Nsg14
Nsg15
Nsg16
g17
sg18
Nsg19
Nsg20
Nsg21
Nsg22
S'true'
p3521
sg24
Nsg25
Nsg26
S'Verapamil'
p3522
sg28
Nsg29
S'Increase_Interaction'
p3523
sg31
Nsg32
Nsg33
Nsg34
Nsg35
Nsg36
Nsg37
S'alcohol'
p3524
sa(dp3525
g2
Nsg3
S'http://bio2rdf.org/drugbank:DB00898'
p3526
sg5
S'http://bio2rdf.org/drugbank:DB00661'
p3527
sg7
Nsg8
Nsg9
Nsg10
Nsg11
Nsg12
Nsg13
Nsg14
Nsg15
Nsg16
g17
sg18
Nsg19
Nsg20
Nsg21
Nsg22
S'true'
p3528
sg24
Nsg25
Nsg26
S'Verapamil'
p3529
sg28
Nsg29
S'Specific_Interaction'
p3530
sg31
Nsg32
Nsg33
Nsg34
Nsg35
Nsg36
Nsg37
S'alcohol'
p3531
sa(dp3532
g2
Nsg3
S'http://bio2rdf.org/drugbank:DB00918'
p3533
sg5
S'http://bio2rdf.org/drugbank:DB00661'
p3534
sg7
Nsg8
Nsg9
Nsg10
Nsg11
Nsg12
Nsg13
Nsg14
Nsg15
Nsg16
g17
sg18
Nsg19
Nsg20
Nsg21
Nsg22
S'true'
p3535
sg24
Nsg25
Nsg26
S'verapamil'
p3536
sg28
Nsg29
S'Increase_Interaction'
p3537
sg31
Nsg32
Nsg33
Nsg34
Nsg35
Nsg36
Nsg37
S'almotriptan'
p3538
sa(dp3539
g2
Nsg3
S'http://bio2rdf.org/drugbank:DB00945'
p3540
sg5
S'http://bio2rdf.org/drugbank:DB00661'
p3541
sg7
Nsg8
Nsg9
Nsg10
Nsg11
Nsg12
Nsg13
Nsg14
Nsg15
Nsg16
g17
sg18
Nsg19
Nsg20
Nsg21
Nsg22
S'true'
p3542
sg24
Nsg25
Nsg26
S'verapamil'
p3543
sg28
Nsg29
S'Specific_Interaction'
p3544
sg31
Nsg32
Nsg33
Nsg34
Nsg35
Nsg36
Nsg37
S'aspirin'
p3545
sa(dp3546
g2
Nsg3
S'http://bio2rdf.org/drugbank:DB00490'
p3547
sg5
S'http://bio2rdf.org/drugbank:DB00661'
p3548
sg7
Nsg8
Nsg9
Nsg10
Nsg11
Nsg12
Nsg13
Nsg14
Nsg15
Nsg16
g17
sg18
Nsg19
Nsg20
Nsg21
Nsg22
S'true'
p3549
sg24
Nsg25
Nsg26
S'verapamil'
p3550
sg28
Nsg29
S'Increase_Interaction'
p3551
sg31
Nsg32
Nsg33
Nsg34
Nsg35
Nsg36
Nsg37
S'buspirone'
p3552
sa(dp3553
g2
Nsg3
S'http://bio2rdf.org/drugbank:DB00564'
p3554
sg5
S'http://bio2rdf.org/drugbank:DB00661'
p3555
sg7
Nsg8
Nsg9
Nsg10
Nsg11
Nsg12
Nsg13
Nsg14
Nsg15
Nsg16
g17
sg18
Nsg19
Nsg20
Nsg21
Nsg22
S'true'
p3556
sg24
Nsg25
Nsg26
S'Verapamil'
p3557
sg28
Nsg29
S'Increase_Interaction'
p3558
sg31
Nsg32
Nsg33
Nsg34
Nsg35
Nsg36
Nsg37
S'carbamazepine'
p3559
sa(dp3560
g2
Nsg3
S'http://bio2rdf.org/drugbank:DB00575'
p3561
sg5
S'http://bio2rdf.org/drugbank:DB00661'
p3562
sg7
Nsg8
Nsg9
Nsg10
Nsg11
Nsg12
Nsg13
Nsg14
Nsg15
Nsg16
g17
sg18
Nsg19
Nsg20
Nsg21
Nsg22
S'true'
p3563
sg24
Nsg25
Nsg26
S'verapamil'
p3564
sg28
Nsg29
S'Caution_Interaction'
p3565
sg31
Nsg32
Nsg33
Nsg34
Nsg35
Nsg36
Nsg37
S'clonidine'
p3566
sa(dp3567
g2
Nsg3
S'http://bio2rdf.org/drugbank:DB01394'
p3568
sg5
S'http://bio2rdf.org/drugbank:DB00661'
p3569
sg7
Nsg8
Nsg9
Nsg10
Nsg11
Nsg12
Nsg13
Nsg14
Nsg15
Nsg16
g17
sg18
Nsg19
Nsg20
Nsg21
Nsg22
S'true'
p3570
sg24
Nsg25
Nsg26
S'verapamil'
p3571
sg28
Nsg29
S'Increase_Interaction'
p3572
sg31
Nsg32
Nsg33
Nsg34
Nsg35
Nsg36
Nsg37
S'colchicine'
p3573
sa(dp3574
g2
Nsg3
S'http://bio2rdf.org/drugbank:DB00531'
p3575
sg5
S'http://bio2rdf.org/drugbank:DB00661'
p3576
sg7
Nsg8
Nsg9
Nsg10
Nsg11
Nsg12
Nsg13
Nsg14
Nsg15
Nsg16
g17
sg18
Nsg19
Nsg20
Nsg21
Nsg22
S'true'
p3577
sg24
Nsg25
Nsg26
S'verapamil'
p3578
sg28
Nsg29
S'Decrease_Interaction'
p3579
sg31
Nsg32
Nsg33
Nsg34
Nsg35
Nsg36
Nsg37
S'cyclophosphamide, oncovin, procarbazine, prednisone (COPP) cytotoxic drug regimens'
p3580
sa(dp3581
g2
Nsg3
S'http://bio2rdf.org/drugbank:DB00091'
p3582
sg5
S'http://bio2rdf.org/drugbank:DB00661'
p3583
sg7
Nsg8
Nsg9
Nsg10
Nsg11
Nsg12
Nsg13
Nsg14
Nsg15
Nsg16
g17
sg18
Nsg19
Nsg20
Nsg21
Nsg22
S'true'
p3584
sg24
Nsg25
Nsg26
S'Verapamil'
p3585
sg28
Nsg29
S'Increase_Interaction'
p3586
sg31
Nsg32
Nsg33
Nsg34
Nsg35
Nsg36
Nsg37
S'cyclosporin'
p3587
sa(dp3588
g2
Nsg3
S'http://bio2rdf.org/drugbank:DB00091'
p3589
sg5
S'http://bio2rdf.org/drugbank:DB00661'
p3590
sg7
Nsg8
Nsg9
Nsg10
Nsg11
Nsg12
Nsg13
Nsg14
Nsg15
Nsg16
g17
sg18
Nsg19
Nsg20
Nsg21
Nsg22
S'true'
p3591
sg24
Nsg25
Nsg26
S'Verapamil'
p3592
sg28
Nsg29
S'Increase_Interaction'
p3593
sg31
Nsg32
Nsg33
Nsg34
Nsg35
Nsg36
Nsg37
S'cyclosporine'
p3594
sa(dp3595
g2
Nsg3
S'http://bio2rdf.org/drugbank:DB06695'
p3596
sg5
S'http://bio2rdf.org/drugbank:DB00661'
p3597
sg7
Nsg8
Nsg9
Nsg10
Nsg11
Nsg12
Nsg13
Nsg14
Nsg15
Nsg16
g17
sg18
Nsg19
Nsg20
Nsg21
Nsg22
S'true'
p3598
sg24
Nsg25
Nsg26
S'verapamil'
p3599
sg28
Nsg29
S'Increase_Interaction'
p3600
sg31
Nsg32
Nsg33
Nsg34
Nsg35
Nsg36
Nsg37
S'dabigatran'
p3601
sa(dp3602
g2
Nsg3
S'http://bio2rdf.org/drugbank:DB01396'
p3603
sg5
S'http://bio2rdf.org/drugbank:DB00661'
p3604
sg7
Nsg8
Nsg9
Nsg10
Nsg11
Nsg12
Nsg13
Nsg14
Nsg15
Nsg16
g17
sg18
Nsg19
Nsg20
Nsg21
Nsg22
S'true'
p3605
sg24
Nsg25
Nsg26
S'Verapamil'
p3606
sg28
Nsg29
S'Increase_Interaction'
p3607
sg31
Nsg32
Nsg33
Nsg34
Nsg35
Nsg36
Nsg37
S'digitoxin'
p3608
sa(dp3609
g2
Nsg3
S'http://bio2rdf.org/drugbank:DB00390'
p3610
sg5
S'http://bio2rdf.org/drugbank:DB00661'
p3611
sg7
Nsg8
Nsg9
Nsg10
Nsg11
Nsg12
Nsg13
Nsg14
Nsg15
Nsg16
g17
sg18
Nsg19
Nsg20
Nsg21
Nsg22
S'true'
p3612
sg24
Nsg25
Nsg26
S'verapamil'
p3613
sg28
Nsg29
S'Increase_Interaction'
p3614
sg31
Nsg32
Nsg33
Nsg34
Nsg35
Nsg36
Nsg37
S'digoxin'
p3615
sa(dp3616
g2
Nsg3
S'http://bio2rdf.org/drugbank:DB00390'
p3617
sg5
S'http://bio2rdf.org/drugbank:DB00661'
p3618
sg7
Nsg8
Nsg9
Nsg10
Nsg11
Nsg12
Nsg13
Nsg14
Nsg15
Nsg16
g17
sg18
Nsg19
Nsg20
Nsg21
Nsg22
S'true'
p3619
sg24
Nsg25
Nsg26
S'verapamil'
p3620
sg28
Nsg29
S'Specific_Interaction'
p3621
sg31
Nsg32
Nsg33
Nsg34
Nsg35
Nsg36
Nsg37
S'digoxin'
p3622
sa(dp3623
g2
Nsg3
S'http://bio2rdf.org/drugbank:DB00204'
p3624
sg5
S'http://bio2rdf.org/drugbank:DB00661'
p3625
sg7
Nsg8
Nsg9
Nsg10
Nsg11
Nsg12
Nsg13
Nsg14
Nsg15
Nsg16
g17
sg18
Nsg19
Nsg20
Nsg21
Nsg22
S'true'
p3626
sg24
Nsg25
Nsg26
S'verapamil'
p3627
sg28
Nsg29
S'Increase_Interaction'
p3628
sg31
Nsg32
Nsg33
Nsg34
Nsg35
Nsg36
Nsg37
S'dofetilide'
p3629
sa(dp3630
g2
Nsg3
S'http://bio2rdf.org/drugbank:DB00204'
p3631
sg5
S'http://bio2rdf.org/drugbank:DB00661'
p3632
sg7
Nsg8
Nsg9
Nsg10
Nsg11
Nsg12
Nsg13
Nsg14
Nsg15
Nsg16
g17
sg18
Nsg19
Nsg20
Nsg21
Nsg22
S'true'
p3633
sg24
Nsg25
Nsg26
S'verapamil'
p3634
sg28
Nsg29
S'Specific_Interaction'
p3635
sg31
Nsg32
Nsg33
Nsg34
Nsg35
Nsg36
Nsg37
S'dofetilide'
p3636
sa(dp3637
g2
Nsg3
S'http://bio2rdf.org/drugbank:DB00997'
p3638
sg5
S'http://bio2rdf.org/drugbank:DB00661'
p3639
sg7
Nsg8
Nsg9
Nsg10
Nsg11
Nsg12
Nsg13
Nsg14
Nsg15
Nsg16
g17
sg18
Nsg19
Nsg20
Nsg21
Nsg22
S'true'
p3640
sg24
Nsg25
Nsg26
S'Verapamil'
p3641
sg28
Nsg29
S'Increase_Interaction'
p3642
sg31
Nsg32
Nsg33
Nsg34
Nsg35
Nsg36
Nsg37
S'doxorubicin'
p3643
sa(dp3644
g2
Nsg3
S'http://bio2rdf.org/drugbank:DB04855'
p3645
sg5
S'http://bio2rdf.org/drugbank:DB00661'
p3646
sg7
Nsg8
Nsg9
Nsg10
Nsg11
Nsg12
Nsg13
Nsg14
Nsg15
Nsg16
g17
sg18
Nsg19
Nsg20
Nsg21
Nsg22
S'true'
p3647
sg24
Nsg25
Nsg26
S'Verapamil'
p3648
sg28
Nsg29
S'Increase_Interaction'
p3649
sg31
Nsg32
Nsg33
Nsg34
Nsg35
Nsg36
Nsg37
S'dronedarone'
p3650
sa(dp3651
g2
Nsg3
S'http://bio2rdf.org/drugbank:DB00898'
p3652
sg5
S'http://bio2rdf.org/drugbank:DB00661'
p3653
sg7
Nsg8
Nsg9
Nsg10
Nsg11
Nsg12
Nsg13
Nsg14
Nsg15
Nsg16
g17
sg18
Nsg19
Nsg20
Nsg21
Nsg22
S'true'
p3654
sg24
Nsg25
Nsg26
S'Verapamil'
p3655
sg28
Nsg29
S'Increase_Interaction'
p3656
sg31
Nsg32
Nsg33
Nsg34
Nsg35
Nsg36
Nsg37
S'ethanol'
p3657
sa(dp3658
g2
Nsg3
S'http://bio2rdf.org/drugbank:DB00458'
p3659
sg5
S'http://bio2rdf.org/drugbank:DB00661'
p3660
sg7
Nsg8
Nsg9
Nsg10
Nsg11
Nsg12
Nsg13
Nsg14
Nsg15
Nsg16
g17
sg18
Nsg19
Nsg20
Nsg21
Nsg22
S'true'
p3661
sg24
Nsg25
Nsg26
S'verapamil'
p3662
sg28
Nsg29
S'Increase_Interaction'
p3663
sg31
Nsg32
Nsg33
Nsg34
Nsg35
Nsg36
Nsg37
S'imipramine'
p3664
sa(dp3665
g2
Nsg3
S'http://bio2rdf.org/drugbank:DB01356'
p3666
sg5
S'http://bio2rdf.org/drugbank:DB00661'
p3667
sg7
Nsg8
Nsg9
Nsg10
Nsg11
Nsg12
Nsg13
Nsg14
Nsg15
Nsg16
g17
sg18
Nsg19
Nsg20
Nsg21
Nsg22
S'true'
p3668
sg24
Nsg25
Nsg26
S'verapamil'
p3669
sg28
Nsg29
S'Increase_Interaction'
p3670
sg31
Nsg32
Nsg33
Nsg34
Nsg35
Nsg36
Nsg37
S'lithium'
p3671
sa(dp3672
g2
Nsg3
S'http://bio2rdf.org/drugbank:DB01356'
p3673
sg5
S'http://bio2rdf.org/drugbank:DB00661'
p3674
sg7
Nsg8
Nsg9
Nsg10
Nsg11
Nsg12
Nsg13
Nsg14
Nsg15
Nsg16
g17
sg18
Nsg19
Nsg20
Nsg21
Nsg22
S'true'
p3675
sg24
Nsg25
Nsg26
S'verapamil'
p3676
sg28
Nsg29
S'Specific_Interaction'
p3677
sg31
Nsg32
Nsg33
Nsg34
Nsg35
Nsg36
Nsg37
S'lithium'
p3678
sa(dp3679
g2
Nsg3
S'http://bio2rdf.org/drugbank:DB00683'
p3680
sg5
S'http://bio2rdf.org/drugbank:DB00661'
p3681
sg7
Nsg8
Nsg9
Nsg10
Nsg11
Nsg12
Nsg13
Nsg14
Nsg15
Nsg16
g17
sg18
Nsg19
Nsg20
Nsg21
Nsg22
S'true'
p3682
sg24
Nsg25
Nsg26
S'verapamil'
p3683
sg28
Nsg29
S'Increase_Interaction'
p3684
sg31
Nsg32
Nsg33
Nsg34
Nsg35
Nsg36
Nsg37
S'midazolam'
p3685
sa(dp3686
g2
Nsg3
S'http://bio2rdf.org/drugbank:DB01229'
p3687
sg5
S'http://bio2rdf.org/drugbank:DB00661'
p3688
sg7
Nsg8
Nsg9
Nsg10
Nsg11
Nsg12
Nsg13
Nsg14
Nsg15
Nsg16
g17
sg18
Nsg19
Nsg20
Nsg21
Nsg22
S'true'
p3689
sg24
Nsg25
Nsg26
S'verapamil'
p3690
sg28
Nsg29
S'Increase_Interaction'
p3691
sg31
Nsg32
Nsg33
Nsg34
Nsg35
Nsg36
Nsg37
S'paclitaxel'
p3692
sa(dp3693
g2
Nsg3
S'http://bio2rdf.org/drugbank:DB00457'
p3694
sg5
S'http://bio2rdf.org/drugbank:DB00661'
p3695
sg7
Nsg8
Nsg9
Nsg10
Nsg11
Nsg12
Nsg13
Nsg14
Nsg15
Nsg16
g17
sg18
Nsg19
Nsg20
Nsg21
Nsg22
S'true'
p3696
sg24
Nsg25
Nsg26
S'verapamil'
p3697
sg28
Nsg29
S'Increase_Interaction'
p3698
sg31
Nsg32
Nsg33
Nsg34
Nsg35
Nsg36
Nsg37
S'prazosin'
p3699
sa(dp3700
g2
Nsg3
S'http://bio2rdf.org/drugbank:DB00457'
p3701
sg5
S'http://bio2rdf.org/drugbank:DB00661'
p3702
sg7
Nsg8
Nsg9
Nsg10
Nsg11
Nsg12
Nsg13
Nsg14
Nsg15
Nsg16
g17
sg18
Nsg19
Nsg20
Nsg21
Nsg22
S'true'
p3703
sg24
Nsg25
Nsg26
S'verapamil'
p3704
sg28
Nsg29
S'Specific_Interaction'
p3705
sg31
Nsg32
Nsg33
Nsg34
Nsg35
Nsg36
Nsg37
S'prazosin'
p3706
sa(dp3707
g2
Nsg3
S'http://bio2rdf.org/drugbank:DB00908'
p3708
sg5
S'http://bio2rdf.org/drugbank:DB00661'
p3709
sg7
Nsg8
Nsg9
Nsg10
Nsg11
Nsg12
Nsg13
Nsg14
Nsg15
Nsg16
g17
sg18
Nsg19
Nsg20
Nsg21
Nsg22
S'true'
p3710
sg24
Nsg25
Nsg26
S'verapamil'
p3711
sg28
Nsg29
S'Caution_Interaction'
p3712
sg31
Nsg32
Nsg33
Nsg34
Nsg35
Nsg36
Nsg37
S'quinidine'
p3713
sa(dp3714
g2
Nsg3
S'http://bio2rdf.org/drugbank:DB00908'
p3715
sg5
S'http://bio2rdf.org/drugbank:DB00661'
p3716
sg7
Nsg8
Nsg9
Nsg10
Nsg11
Nsg12
Nsg13
Nsg14
Nsg15
Nsg16
g17
sg18
Nsg19
Nsg20
Nsg21
Nsg22
S'true'
p3717
sg24
Nsg25
Nsg26
S'Verapamil'
p3718
sg28
Nsg29
S'Specific_Interaction'
p3719
sg31
Nsg32
Nsg33
Nsg34
Nsg35
Nsg36
Nsg37
S'quinidine'
p3720
sa(dp3721
g2
Nsg3
S'http://bio2rdf.org/drugbank:DB00641'
p3722
sg5
S'http://bio2rdf.org/drugbank:DB00661'
p3723
sg7
Nsg8
Nsg9
Nsg10
Nsg11
Nsg12
Nsg13
Nsg14
Nsg15
Nsg16
g17
sg18
Nsg19
Nsg20
Nsg21
Nsg22
S'true'
p3724
sg24
Nsg25
Nsg26
S'verapamil'
p3725
sg28
Nsg29
S'Caution_Interaction'
p3726
sg31
Nsg32
Nsg33
Nsg34
Nsg35
Nsg36
Nsg37
S'simvastatin'
p3727
sa(dp3728
g2
Nsg3
S'http://bio2rdf.org/drugbank:DB00641'
p3729
sg5
S'http://bio2rdf.org/drugbank:DB00661'
p3730
sg7
Nsg8
Nsg9
Nsg10
Nsg11
Nsg12
Nsg13
Nsg14
Nsg15
Nsg16
g17
sg18
Nsg19
Nsg20
Nsg21
Nsg22
S'true'
p3731
sg24
Nsg25
Nsg26
S'verapamil'
p3732
sg28
Nsg29
S'Increase_Interaction'
p3733
sg31
Nsg32
Nsg33
Nsg34
Nsg35
Nsg36
Nsg37
S'simvastatin'
p3734
sa(dp3735
g2
Nsg3
S'http://bio2rdf.org/drugbank:DB00877'
p3736
sg5
S'http://bio2rdf.org/drugbank:DB00661'
p3737
sg7
Nsg8
Nsg9
Nsg10
Nsg11
Nsg12
Nsg13
Nsg14
Nsg15
Nsg16
g17
sg18
Nsg19
Nsg20
Nsg21
Nsg22
S'true'
p3738
sg24
Nsg25
Nsg26
S'Verapamil'
p3739
sg28
Nsg29
S'Increase_Interaction'
p3740
sg31
Nsg32
Nsg33
Nsg34
Nsg35
Nsg36
Nsg37
S'sirolimus'
p3741
sa(dp3742
g2
Nsg3
S'http://bio2rdf.org/drugbank:DB01138'
p3743
sg5
S'http://bio2rdf.org/drugbank:DB00661'
p3744
sg7
Nsg8
Nsg9
Nsg10
Nsg11
Nsg12
Nsg13
Nsg14
Nsg15
Nsg16
g17
sg18
Nsg19
Nsg20
Nsg21
Nsg22
S'true'
p3745
sg24
Nsg25
Nsg26
S'verapamil'
p3746
sg28
Nsg29
S'Decrease_Interaction'
p3747
sg31
Nsg32
Nsg33
Nsg34
Nsg35
Nsg36
Nsg37
S'sulfinpyrazone'
p3748
sa(dp3749
g2
Nsg3
S'http://bio2rdf.org/drugbank:DB00864'
p3750
sg5
S'http://bio2rdf.org/drugbank:DB00661'
p3751
sg7
Nsg8
Nsg9
Nsg10
Nsg11
Nsg12
Nsg13
Nsg14
Nsg15
Nsg16
g17
sg18
Nsg19
Nsg20
Nsg21
Nsg22
S'true'
p3752
sg24
Nsg25
Nsg26
S'Verapamil'
p3753
sg28
Nsg29
S'Increase_Interaction'
p3754
sg31
Nsg32
Nsg33
Nsg34
Nsg35
Nsg36
Nsg37
S'tacrolimus'
p3755
sa(dp3756
g2
Nsg3
S'http://bio2rdf.org/drugbank:DB01195'
p3757
sg5
S'http://bio2rdf.org/drugbank:DB00661'
p3758
sg7
Nsg8
Nsg9
Nsg10
Nsg11
Nsg12
Nsg13
Nsg14
Nsg15
Nsg16
g17
sg18
Nsg19
Nsg20
Nsg21
Nsg22
S'true'
p3759
sg24
Nsg25
Nsg26
S'verapamil'
p3760
sg28
Nsg29
S'Caution_Interaction'
p3761
sg31
Nsg32
Nsg33
Nsg34
Nsg35
Nsg36
Nsg37
S'TAMBOCOR'
p3762
sa(dp3763
g2
Nsg3
S'http://bio2rdf.org/drugbank:DB01162'
p3764
sg5
S'http://bio2rdf.org/drugbank:DB00661'
p3765
sg7
Nsg8
Nsg9
Nsg10
Nsg11
Nsg12
Nsg13
Nsg14
Nsg15
Nsg16
g17
sg18
Nsg19
Nsg20
Nsg21
Nsg22
S'true'
p3766
sg24
Nsg25
Nsg26
S'verapamil'
p3767
sg28
Nsg29
S'Increase_Interaction'
p3768
sg31
Nsg32
Nsg33
Nsg34
Nsg35
Nsg36
Nsg37
S'terazosin'
p3769
sa(dp3770
g2
Nsg3
S'http://bio2rdf.org/drugbank:DB00277'
p3771
sg5
S'http://bio2rdf.org/drugbank:DB00661'
p3772
sg7
Nsg8
Nsg9
Nsg10
Nsg11
Nsg12
Nsg13
Nsg14
Nsg15
Nsg16
g17
sg18
Nsg19
Nsg20
Nsg21
Nsg22
S'true'
p3773
sg24
Nsg25
Nsg26
S'Verapamil'
p3774
sg28
Nsg29
S'Increase_Interaction'
p3775
sg31
Nsg32
Nsg33
Nsg34
Nsg35
Nsg36
Nsg37
S'theophylline'
p3776
sa(dp3777
g2
Nsg3
S'http://bio2rdf.org/drugbank:DB01339'
p3778
sg5
S'http://bio2rdf.org/drugbank:DB00661'
p3779
sg7
Nsg8
Nsg9
Nsg10
Nsg11
Nsg12
Nsg13
Nsg14
Nsg15
Nsg16
g17
sg18
Nsg19
Nsg20
Nsg21
Nsg22
S'true'
p3780
sg24
Nsg25
Nsg26
S'verapamil'
p3781
sg28
Nsg29
S'Increase_Interaction'
p3782
sg31
Nsg32
Nsg33
Nsg34
Nsg35
Nsg36
Nsg37
S'vecuronium'
p3783
sa(dp3784
g2
Nsg3
S'http://bio2rdf.org/drugbank:DB01118'
p3785
sg5
S'http://bio2rdf.org/drugbank:DB00682'
p3786
sg7
Nsg8
Nsg9
Nsg10
Nsg11
Nsg12
Nsg13
Nsg14
Nsg15
Nsg16
g17
sg18
Nsg19
Nsg20
Nsg21
Nsg22
S'true'
p3787
sg24
Nsg25
Nsg26
S'warfarin'
p3788
sg28
Nsg29
S'Specific_Interaction'
p3789
sg31
Nsg32
Nsg33
Nsg34
Nsg35
Nsg36
Nsg37
S'amiodarone'
p3790
sa(dp3791
g2
Nsg3
S'http://bio2rdf.org/drugbank:DB04855'
p3792
sg5
S'http://bio2rdf.org/drugbank:DB00682'
p3793
sg7
Nsg8
Nsg9
Nsg10
Nsg11
Nsg12
Nsg13
Nsg14
Nsg15
Nsg16
g17
sg18
Nsg19
Nsg20
Nsg21
Nsg22
S'true'
p3794
sg24
Nsg25
Nsg26
S'warfarin'
p3795
sg28
Nsg29
S'Specific_Interaction'
p3796
sg31
Nsg32
Nsg33
Nsg34
Nsg35
Nsg36
Nsg37
S'dronedarone'
p3797
sa(dp3798
g2
Nsg3
S'http://bio2rdf.org/drugbank:DB06228'
p3799
sg5
S'http://bio2rdf.org/drugbank:DB00682'
p3800
sg7
Nsg8
Nsg9
Nsg10
Nsg11
Nsg12
Nsg13
Nsg14
Nsg15
Nsg16
g17
sg18
Nsg19
Nsg20
Nsg21
Nsg22
S'true'
p3801
sg24
Nsg25
Nsg26
S'warfarin'
p3802
sg28
Nsg29
S'Specific_Interaction'
p3803
sg31
Nsg32
Nsg33
Nsg34
Nsg35
Nsg36
Nsg37
S'XARELTO'
p3804
sa(dp3805
g2
Nsg3
S'http://bio2rdf.org/drugbank:DB00695'
p3806
sg5
S'http://bio2rdf.org/drugbank:DB00524'
p3807
sg7
Nsg8
Nsg9
Nsg10
Nsg11
Nsg12
Nsg13
Nsg14
Nsg15
Nsg16
g17
sg18
Nsg19
Nsg20
Nsg21
Nsg22
S'true'
p3808
sg24
Nsg25
Nsg26
S'ZAROXOLYN'
p3809
sg28
Nsg29
S'Specific_Interaction'
p3810
sg31
Nsg32
Nsg33
Nsg34
Nsg35
Nsg36
Nsg37
S'furosemide'
p3811
sa(dp3812
g2
Nsg3
S'http://bio2rdf.org/drugbank:DB01356'
p3813
sg5
S'http://bio2rdf.org/drugbank:DB00722'
p3814
sg7
Nsg8
Nsg9
Nsg10
Nsg11
Nsg12
Nsg13
Nsg14
Nsg15
Nsg16
g17
sg18
Nsg19
Nsg20
Nsg21
Nsg22
S'true'
p3815
sg24
Nsg25
Nsg26
S'ZESTRIL'
p3816
sg28
Nsg29
S'Caution_Interaction'
p3817
sg31
Nsg32
Nsg33
Nsg34
Nsg35
Nsg36
Nsg37
S'lithium'
p3818
sa(dp3819
g2
Nsg3
S'http://bio2rdf.org/drugbank:DB01345'
p3820
sg5
S'http://bio2rdf.org/drugbank:DB00722'
p3821
sg7
Nsg8
Nsg9
Nsg10
Nsg11
Nsg12
Nsg13
Nsg14
Nsg15
Nsg16
g17
sg18
Nsg19
Nsg20
Nsg21
Nsg22
S'true'
p3822
sg24
Nsg25
Nsg26
S'ZESTRIL'
p3823
sg28
Nsg29
S'Specific_Interaction'
p3824
sg31
Nsg32
Nsg33
Nsg34
Nsg35
Nsg36
Nsg37
S'potassium salt substitutes'
p3825
sa(dp3826
g2
Nsg3
S'http://bio2rdf.org/drugbank:DB01345'
p3827
sg5
S'http://bio2rdf.org/drugbank:DB00722'
p3828
sg7
Nsg8
Nsg9
Nsg10
Nsg11
Nsg12
Nsg13
Nsg14
Nsg15
Nsg16
g17
sg18
Nsg19
Nsg20
Nsg21
Nsg22
S'true'
p3829
sg24
Nsg25
Nsg26
S'ZESTRIL'
p3830
sg28
Nsg29
S'Specific_Interaction'
p3831
sg31
Nsg32
Nsg33
Nsg34
Nsg35
Nsg36
Nsg37
S'potassium supplements'
p3832
sa(dp3833
g2
Nsg3
S'http://bio2rdf.org/drugbank:DB01345'
p3834
sg5
S'http://bio2rdf.org/drugbank:DB00722'
p3835
sg7
Nsg8
Nsg9
Nsg10
Nsg11
Nsg12
Nsg13
Nsg14
Nsg15
Nsg16
g17
sg18
Nsg19
Nsg20
Nsg21
Nsg22
S'true'
p3836
sg24
Nsg25
Nsg26
S'ZESTRIL'
p3837
sg28
Nsg29
S'Specific_Interaction'
p3838
sg31
Nsg32
Nsg33
Nsg34
Nsg35
Nsg36
Nsg37
S'potassium-containing salt substitutes'
p3839
sa.