(lp0
(dp1
S'contVal'
p2
NsS'drug2'
p3
S'http://bio2rdf.org/drugbank:DB00819'
p4
sS'drug1'
p5
S'http://bio2rdf.org/drugbank:DB00945'
p6
sS'objectUri'
p7
NsS'evidence'
p8
NsS'ddiPkMechanism'
p9
NsS'whoAnnotated'
p10
NsS'contraindication'
p11
NsS'researchStatementLabel'
p12
NsS'severity'
p13
NsS'label'
p14
NsS'effectConcept'
p15
NsS'source'
p16
S'NLM-Corpus'
p17
sS'ddiPkEffect'
p18
NsS'evidenceType'
p19
NsS'homepage'
p20
NsS'pathway'
p21
NsS'ddiType'
p22
S'true'
p23
sS'researchStatement'
p24
NsS'dateAnnotated'
p25
NsS'object'
p26
S'\xef\xbb\xbfAcetylsalicylic acid'
p27
sS'evidenceSource'
p28
NsS'evidenceStatement'
p29
S'Increase_Interaction'
p30
sS'precipUri'
p31
NsS'certainty'
p32
NsS'uri'
p33
NsS'precip'
p34
NsS'numericVal'
p35
NsS'precaution'
p36
NsS'precipitant'
p37
S'ACETAZOLAMIDE'
p38
sa(dp39
g2
Nsg3
S'http://bio2rdf.org/drugbank:DB06605'
p40
sg5
S'http://bio2rdf.org/drugbank:DB00945'
p41
sg7
Nsg8
Nsg9
Nsg10
Nsg11
Nsg12
Nsg13
Nsg14
Nsg15
Nsg16
g17
sg18
Nsg19
Nsg20
Nsg21
Nsg22
S'true'
p42
sg24
Nsg25
Nsg26
S'Acetylsalicylic acid'
p43
sg28
Nsg29
S'Specific_Interaction'
p44
sg31
Nsg32
Nsg33
Nsg34
Nsg35
Nsg36
Nsg37
S'Apixaban'
p45
sa(dp46
g2
Nsg3
S'http://bio2rdf.org/drugbank:DB00758'
p47
sg5
S'http://bio2rdf.org/drugbank:DB00945'
p48
sg7
Nsg8
Nsg9
Nsg10
Nsg11
Nsg12
Nsg13
Nsg14
Nsg15
Nsg16
g17
sg18
Nsg19
Nsg20
Nsg21
Nsg22
S'true'
p49
sg24
Nsg25
Nsg26
S'Acetylsalicylic acid'
p50
sg28
Nsg29
S'Specific_Interaction'
p51
sg31
Nsg32
Nsg33
Nsg34
Nsg35
Nsg36
Nsg37
S'Clopidogrel'
p52
sa(dp53
g2
Nsg3
S'http://bio2rdf.org/drugbank:DB00727'
p54
sg5
S'http://bio2rdf.org/drugbank:DB00945'
p55
sg7
Nsg8
Nsg9
Nsg10
Nsg11
Nsg12
Nsg13
Nsg14
Nsg15
Nsg16
g17
sg18
Nsg19
Nsg20
Nsg21
Nsg22
S'true'
p56
sg24
Nsg25
Nsg26
S'Acetylsalicylic acid'
p57
sg28
Nsg29
S'Increase_Interaction'
p58
sg31
Nsg32
Nsg33
Nsg34
Nsg35
Nsg36
Nsg37
S'Nitroglycerin'
p59
sa(dp60
g2
Nsg3
S'http://bio2rdf.org/drugbank:DB00564'
p61
sg5
S'http://bio2rdf.org/drugbank:DB00640'
p62
sg7
Nsg8
Nsg9
Nsg10
Nsg11
Nsg12
Nsg13
Nsg14
Nsg15
Nsg16
g17
sg18
Nsg19
Nsg20
Nsg21
Nsg22
S'true'
p63
sg24
Nsg25
Nsg26
S'Adenosine'
p64
sg28
Nsg29
S'Specific_Interaction'
p65
sg31
Nsg32
Nsg33
Nsg34
Nsg35
Nsg36
Nsg37
S'CARBAMAZEPINE'
p66
sa(dp67
g2
Nsg3
S'http://bio2rdf.org/drugbank:DB00390'
p68
sg5
S'http://bio2rdf.org/drugbank:DB00640'
p69
sg7
Nsg8
Nsg9
Nsg10
Nsg11
Nsg12
Nsg13
Nsg14
Nsg15
Nsg16
g17
sg18
Nsg19
Nsg20
Nsg21
Nsg22
S'true'
p70
sg24
Nsg25
Nsg26
S'Adenosine'
p71
sg28
Nsg29
S'Caution_Interaction'
p72
sg31
Nsg32
Nsg33
Nsg34
Nsg35
Nsg36
Nsg37
S'Digoxin'
p73
sa(dp74
g2
Nsg3
S'http://bio2rdf.org/drugbank:DB00975'
p75
sg5
S'http://bio2rdf.org/drugbank:DB00640'
p76
sg7
Nsg8
Nsg9
Nsg10
Nsg11
Nsg12
Nsg13
Nsg14
Nsg15
Nsg16
g17
sg18
Nsg19
Nsg20
Nsg21
Nsg22
S'true'
p77
sg24
Nsg25
Nsg26
S'Adenosine'
p78
sg28
Nsg29
S'Increase_Interaction'
p79
sg31
Nsg32
Nsg33
Nsg34
Nsg35
Nsg36
Nsg37
S'Dipyridamole'
p80
sa(dp81
g2
Nsg3
S'http://bio2rdf.org/drugbank:DB00381'
p82
sg5
S'http://bio2rdf.org/drugbank:DB01258'
p83
sg7
Nsg8
Nsg9
Nsg10
Nsg11
Nsg12
Nsg13
Nsg14
Nsg15
Nsg16
g17
sg18
Nsg19
Nsg20
Nsg21
Nsg22
S'true'
p84
sg24
Nsg25
Nsg26
S'Aliskiren'
p85
sg28
Nsg29
S'Caution_Interaction'
p86
sg31
Nsg32
Nsg33
Nsg34
Nsg35
Nsg36
Nsg37
S'Amlodipine'
p87
sa(dp88
g2
Nsg3
S'http://bio2rdf.org/drugbank:DB08822'
p89
sg5
S'http://bio2rdf.org/drugbank:DB01258'
p90
sg7
Nsg8
Nsg9
Nsg10
Nsg11
Nsg12
Nsg13
Nsg14
Nsg15
Nsg16
g17
sg18
Nsg19
Nsg20
Nsg21
Nsg22
S'true'
p91
sg24
Nsg25
Nsg26
S'Aliskiren'
p92
sg28
Nsg29
S'Caution_Interaction'
p93
sg31
Nsg32
Nsg33
Nsg34
Nsg35
Nsg36
Nsg37
S'Azilsartan medoxomil'
p94
sa(dp95
g2
Nsg3
S'http://bio2rdf.org/drugbank:DB00542'
p96
sg5
S'http://bio2rdf.org/drugbank:DB01258'
p97
sg7
Nsg8
Nsg9
Nsg10
Nsg11
Nsg12
Nsg13
Nsg14
Nsg15
Nsg16
g17
sg18
Nsg19
Nsg20
Nsg21
Nsg22
S'true'
p98
sg24
Nsg25
Nsg26
S'Aliskiren'
p99
sg28
Nsg29
S'Caution_Interaction'
p100
sg31
Nsg32
Nsg33
Nsg34
Nsg35
Nsg36
Nsg37
S'Benazepril'
p101
sa(dp102
g2
Nsg3
S'http://bio2rdf.org/drugbank:DB00796'
p103
sg5
S'http://bio2rdf.org/drugbank:DB01258'
p104
sg7
Nsg8
Nsg9
Nsg10
Nsg11
Nsg12
Nsg13
Nsg14
Nsg15
Nsg16
g17
sg18
Nsg19
Nsg20
Nsg21
Nsg22
S'true'
p105
sg24
Nsg25
Nsg26
S'Aliskiren'
p106
sg28
Nsg29
S'Caution_Interaction'
p107
sg31
Nsg32
Nsg33
Nsg34
Nsg35
Nsg36
Nsg37
S'Candesartan'
p108
sa(dp109
g2
Nsg3
S'http://bio2rdf.org/drugbank:DB00091'
p110
sg5
S'http://bio2rdf.org/drugbank:DB01258'
p111
sg7
Nsg8
Nsg9
Nsg10
Nsg11
Nsg12
Nsg13
Nsg14
Nsg15
Nsg16
g17
sg18
Nsg19
Nsg20
Nsg21
Nsg22
S'true'
p112
sg24
Nsg25
Nsg26
S'Aliskiren'
p113
sg28
Nsg29
S'Caution_Interaction'
p114
sg31
Nsg32
Nsg33
Nsg34
Nsg35
Nsg36
Nsg37
S'CYCLOSPORINE'
p115
sa(dp116
g2
Nsg3
S'http://bio2rdf.org/drugbank:DB00584'
p117
sg5
S'http://bio2rdf.org/drugbank:DB01258'
p118
sg7
Nsg8
Nsg9
Nsg10
Nsg11
Nsg12
Nsg13
Nsg14
Nsg15
Nsg16
g17
sg18
Nsg19
Nsg20
Nsg21
Nsg22
S'true'
p119
sg24
Nsg25
Nsg26
S'Aliskiren'
p120
sg28
Nsg29
S'Caution_Interaction'
p121
sg31
Nsg32
Nsg33
Nsg34
Nsg35
Nsg36
Nsg37
S'Enalapril'
p122
sa(dp123
g2
Nsg3
S'http://bio2rdf.org/drugbank:DB00876'
p124
sg5
S'http://bio2rdf.org/drugbank:DB01258'
p125
sg7
Nsg8
Nsg9
Nsg10
Nsg11
Nsg12
Nsg13
Nsg14
Nsg15
Nsg16
g17
sg18
Nsg19
Nsg20
Nsg21
Nsg22
S'true'
p126
sg24
Nsg25
Nsg26
S'Aliskiren'
p127
sg28
Nsg29
S'Caution_Interaction'
p128
sg31
Nsg32
Nsg33
Nsg34
Nsg35
Nsg36
Nsg37
S'Eprosartan'
p129
sa(dp130
g2
Nsg3
S'http://bio2rdf.org/drugbank:DB01029'
p131
sg5
S'http://bio2rdf.org/drugbank:DB01258'
p132
sg7
Nsg8
Nsg9
Nsg10
Nsg11
Nsg12
Nsg13
Nsg14
Nsg15
Nsg16
g17
sg18
Nsg19
Nsg20
Nsg21
Nsg22
S'true'
p133
sg24
Nsg25
Nsg26
S'Aliskiren'
p134
sg28
Nsg29
S'Caution_Interaction'
p135
sg31
Nsg32
Nsg33
Nsg34
Nsg35
Nsg36
Nsg37
S'Irbesartan'
p136
sa(dp137
g2
Nsg3
S'http://bio2rdf.org/drugbank:DB00722'
p138
sg5
S'http://bio2rdf.org/drugbank:DB01258'
p139
sg7
Nsg8
Nsg9
Nsg10
Nsg11
Nsg12
Nsg13
Nsg14
Nsg15
Nsg16
g17
sg18
Nsg19
Nsg20
Nsg21
Nsg22
S'true'
p140
sg24
Nsg25
Nsg26
S'Aliskiren'
p141
sg28
Nsg29
S'Caution_Interaction'
p142
sg31
Nsg32
Nsg33
Nsg34
Nsg35
Nsg36
Nsg37
S'Lisinopril'
p143
sa(dp144
g2
Nsg3
S'http://bio2rdf.org/drugbank:DB00678'
p145
sg5
S'http://bio2rdf.org/drugbank:DB01258'
p146
sg7
Nsg8
Nsg9
Nsg10
Nsg11
Nsg12
Nsg13
Nsg14
Nsg15
Nsg16
g17
sg18
Nsg19
Nsg20
Nsg21
Nsg22
S'true'
p147
sg24
Nsg25
Nsg26
S'Aliskiren'
p148
sg28
Nsg29
S'Caution_Interaction'
p149
sg31
Nsg32
Nsg33
Nsg34
Nsg35
Nsg36
Nsg37
S'Losartan'
p150
sa(dp151
g2
Nsg3
S'http://bio2rdf.org/drugbank:DB00275'
p152
sg5
S'http://bio2rdf.org/drugbank:DB01258'
p153
sg7
Nsg8
Nsg9
Nsg10
Nsg11
Nsg12
Nsg13
Nsg14
Nsg15
Nsg16
g17
sg18
Nsg19
Nsg20
Nsg21
Nsg22
S'true'
p154
sg24
Nsg25
Nsg26
S'Aliskiren'
p155
sg28
Nsg29
S'Caution_Interaction'
p156
sg31
Nsg32
Nsg33
Nsg34
Nsg35
Nsg36
Nsg37
S'Olmesartan'
p157
sa(dp158
g2
Nsg3
S'http://bio2rdf.org/drugbank:DB00790'
p159
sg5
S'http://bio2rdf.org/drugbank:DB01258'
p160
sg7
Nsg8
Nsg9
Nsg10
Nsg11
Nsg12
Nsg13
Nsg14
Nsg15
Nsg16
g17
sg18
Nsg19
Nsg20
Nsg21
Nsg22
S'true'
p161
sg24
Nsg25
Nsg26
S'Aliskiren'
p162
sg28
Nsg29
S'Caution_Interaction'
p163
sg31
Nsg32
Nsg33
Nsg34
Nsg35
Nsg36
Nsg37
S'Perindopril'
p164
sa(dp165
g2
Nsg3
S'http://bio2rdf.org/drugbank:DB00881'
p166
sg5
S'http://bio2rdf.org/drugbank:DB01258'
p167
sg7
Nsg8
Nsg9
Nsg10
Nsg11
Nsg12
Nsg13
Nsg14
Nsg15
Nsg16
g17
sg18
Nsg19
Nsg20
Nsg21
Nsg22
S'true'
p168
sg24
Nsg25
Nsg26
S'Aliskiren'
p169
sg28
Nsg29
S'Caution_Interaction'
p170
sg31
Nsg32
Nsg33
Nsg34
Nsg35
Nsg36
Nsg37
S'Quinapril'
p171
sa(dp172
g2
Nsg3
S'http://bio2rdf.org/drugbank:DB00966'
p173
sg5
S'http://bio2rdf.org/drugbank:DB01258'
p174
sg7
Nsg8
Nsg9
Nsg10
Nsg11
Nsg12
Nsg13
Nsg14
Nsg15
Nsg16
g17
sg18
Nsg19
Nsg20
Nsg21
Nsg22
S'true'
p175
sg24
Nsg25
Nsg26
S'Aliskiren'
p176
sg28
Nsg29
S'Caution_Interaction'
p177
sg31
Nsg32
Nsg33
Nsg34
Nsg35
Nsg36
Nsg37
S'Telmisartan'
p178
sa(dp179
g2
Nsg3
S'http://bio2rdf.org/drugbank:DB00519'
p180
sg5
S'http://bio2rdf.org/drugbank:DB01258'
p181
sg7
Nsg8
Nsg9
Nsg10
Nsg11
Nsg12
Nsg13
Nsg14
Nsg15
Nsg16
g17
sg18
Nsg19
Nsg20
Nsg21
Nsg22
S'true'
p182
sg24
Nsg25
Nsg26
S'Aliskiren'
p183
sg28
Nsg29
S'Caution_Interaction'
p184
sg31
Nsg32
Nsg33
Nsg34
Nsg35
Nsg36
Nsg37
S'Trandolapril'
p185
sa(dp186
g2
Nsg3
S'http://bio2rdf.org/drugbank:DB00177'
p187
sg5
S'http://bio2rdf.org/drugbank:DB01258'
p188
sg7
Nsg8
Nsg9
Nsg10
Nsg11
Nsg12
Nsg13
Nsg14
Nsg15
Nsg16
g17
sg18
Nsg19
Nsg20
Nsg21
Nsg22
S'true'
p189
sg24
Nsg25
Nsg26
S'Aliskiren'
p190
sg28
Nsg29
S'Caution_Interaction'
p191
sg31
Nsg32
Nsg33
Nsg34
Nsg35
Nsg36
Nsg37
S'Valsartan'
p192
sa(dp193
g2
Nsg3
S'http://bio2rdf.org/drugbank:DB00390'
p194
sg5
S'http://bio2rdf.org/drugbank:DB00404'
p195
sg7
Nsg8
Nsg9
Nsg10
Nsg11
Nsg12
Nsg13
Nsg14
Nsg15
Nsg16
g17
sg18
Nsg19
Nsg20
Nsg21
Nsg22
S'true'
p196
sg24
Nsg25
Nsg26
S'Alprazolam'
p197
sg28
Nsg29
S'Increase_Interaction'
p198
sg31
Nsg32
Nsg33
Nsg34
Nsg35
Nsg36
Nsg37
S'Digoxin'
p199
sa(dp200
g2
Nsg3
S'http://bio2rdf.org/drugbank:DB00727'
p201
sg5
S'http://bio2rdf.org/drugbank:DB00009'
p202
sg7
Nsg8
Nsg9
Nsg10
Nsg11
Nsg12
Nsg13
Nsg14
Nsg15
Nsg16
g17
sg18
Nsg19
Nsg20
Nsg21
Nsg22
S'true'
p203
sg24
Nsg25
Nsg26
S'Alteplase'
p204
sg28
Nsg29
S'Decrease_Interaction'
p205
sg31
Nsg32
Nsg33
Nsg34
Nsg35
Nsg36
Nsg37
S'Nitroglycerin'
p206
sa(dp207
g2
Nsg3
S'http://bio2rdf.org/drugbank:DB01344'
p208
sg5
S'http://bio2rdf.org/drugbank:DB01370'
p209
sg7
Nsg8
Nsg9
Nsg10
Nsg11
Nsg12
Nsg13
Nsg14
Nsg15
Nsg16
g17
sg18
Nsg19
Nsg20
Nsg21
Nsg22
S'true'
p210
sg24
Nsg25
Nsg26
S'Aluminium'
p211
sg28
Nsg29
S'Specific_Interaction'
p212
sg31
Nsg32
Nsg33
Nsg34
Nsg35
Nsg36
Nsg37
S'Polystyrene sulfonate'
p213
sa(dp214
g2
Nsg3
S'http://bio2rdf.org/drugbank:DB00390'
p215
sg5
S'http://bio2rdf.org/drugbank:DB01118'
p216
sg7
Nsg8
Nsg9
Nsg10
Nsg11
Nsg12
Nsg13
Nsg14
Nsg15
Nsg16
g17
sg18
Nsg19
Nsg20
Nsg21
Nsg22
S'true'
p217
sg24
Nsg25
Nsg26
S'AMIODARONE'
p218
sg28
Nsg29
S'Increase_Interaction'
p219
sg31
Nsg32
Nsg33
Nsg34
Nsg35
Nsg36
Nsg37
S'Digoxin'
p220
sa(dp221
g2
Nsg3
S'http://bio2rdf.org/drugbank:DB00227'
p222
sg5
S'http://bio2rdf.org/drugbank:DB01118'
p223
sg7
Nsg8
Nsg9
Nsg10
Nsg11
Nsg12
Nsg13
Nsg14
Nsg15
Nsg16
g17
sg18
Nsg19
Nsg20
Nsg21
Nsg22
S'true'
p224
sg24
Nsg25
Nsg26
S'AMIODARONE'
p225
sg28
Nsg29
S'Caution_Interaction'
p226
sg31
Nsg32
Nsg33
Nsg34
Nsg35
Nsg36
Nsg37
S'LOVASTATIN'
p227
sa(dp228
g2
Nsg3
S'http://bio2rdf.org/drugbank:DB01035'
p229
sg5
S'http://bio2rdf.org/drugbank:DB01118'
p230
sg7
Nsg8
Nsg9
Nsg10
Nsg11
Nsg12
Nsg13
Nsg14
Nsg15
Nsg16
g17
sg18
Nsg19
Nsg20
Nsg21
Nsg22
S'true'
p231
sg24
Nsg25
Nsg26
S'AMIODARONE'
p232
sg28
Nsg29
S'Increase_Interaction'
p233
sg31
Nsg32
Nsg33
Nsg34
Nsg35
Nsg36
Nsg37
S'PROCAINAMIDE'
p234
sa(dp235
g2
Nsg3
S'http://bio2rdf.org/drugbank:DB00908'
p236
sg5
S'http://bio2rdf.org/drugbank:DB01118'
p237
sg7
Nsg8
Nsg9
Nsg10
Nsg11
Nsg12
Nsg13
Nsg14
Nsg15
Nsg16
g17
sg18
Nsg19
Nsg20
Nsg21
Nsg22
S'true'
p238
sg24
Nsg25
Nsg26
S'AMIODARONE'
p239
sg28
Nsg29
S'Increase_Interaction'
p240
sg31
Nsg32
Nsg33
Nsg34
Nsg35
Nsg36
Nsg37
S'QUINIDINE'
p241
sa(dp242
g2
Nsg3
S'http://bio2rdf.org/drugbank:DB00641'
p243
sg5
S'http://bio2rdf.org/drugbank:DB01118'
p244
sg7
Nsg8
Nsg9
Nsg10
Nsg11
Nsg12
Nsg13
Nsg14
Nsg15
Nsg16
g17
sg18
Nsg19
Nsg20
Nsg21
Nsg22
S'true'
p245
sg24
Nsg25
Nsg26
S'AMIODARONE'
p246
sg28
Nsg29
S'Caution_Interaction'
p247
sg31
Nsg32
Nsg33
Nsg34
Nsg35
Nsg36
Nsg37
S'Simvastatin'
p248
sa(dp249
g2
Nsg3
S'http://bio2rdf.org/drugbank:DB00575'
p250
sg5
S'http://bio2rdf.org/drugbank:DB00321'
p251
sg7
Nsg8
Nsg9
Nsg10
Nsg11
Nsg12
Nsg13
Nsg14
Nsg15
Nsg16
g17
sg18
Nsg19
Nsg20
Nsg21
Nsg22
S'true'
p252
sg24
Nsg25
Nsg26
S'Amitriptyline'
p253
sg28
Nsg29
S'Specific_Interaction'
p254
sg31
Nsg32
Nsg33
Nsg34
Nsg35
Nsg36
Nsg37
S'Clonidine'
p255
sa(dp256
g2
Nsg3
S'http://bio2rdf.org/drugbank:DB01356'
p257
sg5
S'http://bio2rdf.org/drugbank:DB00381'
p258
sg7
Nsg8
Nsg9
Nsg10
Nsg11
Nsg12
Nsg13
Nsg14
Nsg15
Nsg16
g17
sg18
Nsg19
Nsg20
Nsg21
Nsg22
S'true'
p259
sg24
Nsg25
Nsg26
S'Amlodipine'
p260
sg28
Nsg29
S'Caution_Interaction'
p261
sg31
Nsg32
Nsg33
Nsg34
Nsg35
Nsg36
Nsg37
S'LITHIUM'
p262
sa(dp263
g2
Nsg3
S'http://bio2rdf.org/drugbank:DB01394'
p264
sg5
S'http://bio2rdf.org/drugbank:DB01076'
p265
sg7
Nsg8
Nsg9
Nsg10
Nsg11
Nsg12
Nsg13
Nsg14
Nsg15
Nsg16
g17
sg18
Nsg19
Nsg20
Nsg21
Nsg22
S'true'
p266
sg24
Nsg25
Nsg26
S'ATORVASTATIN'
p267
sg28
Nsg29
S'Specific_Interaction'
p268
sg31
Nsg32
Nsg33
Nsg34
Nsg35
Nsg36
Nsg37
S'COLCHICINE'
p269
sa(dp270
g2
Nsg3
S'http://bio2rdf.org/drugbank:DB00091'
p271
sg5
S'http://bio2rdf.org/drugbank:DB01076'
p272
sg7
Nsg8
Nsg9
Nsg10
Nsg11
Nsg12
Nsg13
Nsg14
Nsg15
Nsg16
g17
sg18
Nsg19
Nsg20
Nsg21
Nsg22
S'true'
p273
sg24
Nsg25
Nsg26
S'ATORVASTATIN'
p274
sg28
Nsg29
S'Specific_Interaction'
p275
sg31
Nsg32
Nsg33
Nsg34
Nsg35
Nsg36
Nsg37
S'CYCLOSPORINE'
p276
sa(dp277
g2
Nsg3
S'http://bio2rdf.org/drugbank:DB00977'
p278
sg5
S'http://bio2rdf.org/drugbank:DB00559'
p279
sg7
Nsg8
Nsg9
Nsg10
Nsg11
Nsg12
Nsg13
Nsg14
Nsg15
Nsg16
g17
sg18
Nsg19
Nsg20
Nsg21
Nsg22
S'true'
p280
sg24
Nsg25
Nsg26
S'BOSENTAN'
p281
sg28
Nsg29
S'Decrease_Interaction'
p282
sg31
Nsg32
Nsg33
Nsg34
Nsg35
Nsg36
Nsg37
S'ETHINYL ESTRADIOL'
p283
sa(dp284
g2
Nsg3
S'http://bio2rdf.org/drugbank:DB01016'
p285
sg5
S'http://bio2rdf.org/drugbank:DB00559'
p286
sg7
Nsg8
Nsg9
Nsg10
Nsg11
Nsg12
Nsg13
Nsg14
Nsg15
Nsg16
g17
sg18
Nsg19
Nsg20
Nsg21
Nsg22
S'true'
p287
sg24
Nsg25
Nsg26
S'Bosentan'
p288
sg28
Nsg29
S'Caution_Interaction'
p289
sg31
Nsg32
Nsg33
Nsg34
Nsg35
Nsg36
Nsg37
S'GLYBURIDE'
p290
sa(dp291
g2
Nsg3
S'http://bio2rdf.org/drugbank:DB01016'
p292
sg5
S'http://bio2rdf.org/drugbank:DB00559'
p293
sg7
Nsg8
Nsg9
Nsg10
Nsg11
Nsg12
Nsg13
Nsg14
Nsg15
Nsg16
g17
sg18
Nsg19
Nsg20
Nsg21
Nsg22
S'true'
p294
sg24
Nsg25
Nsg26
S'BOSENTAN'
p295
sg28
Nsg29
S'Decrease_Interaction'
p296
sg31
Nsg32
Nsg33
Nsg34
Nsg35
Nsg36
Nsg37
S'GLYBURIDE'
p297
sa(dp298
g2
Nsg3
S'http://bio2rdf.org/drugbank:DB00717'
p299
sg5
S'http://bio2rdf.org/drugbank:DB00559'
p300
sg7
Nsg8
Nsg9
Nsg10
Nsg11
Nsg12
Nsg13
Nsg14
Nsg15
Nsg16
g17
sg18
Nsg19
Nsg20
Nsg21
Nsg22
S'true'
p301
sg24
Nsg25
Nsg26
S'BOSENTAN'
p302
sg28
Nsg29
S'Decrease_Interaction'
p303
sg31
Nsg32
Nsg33
Nsg34
Nsg35
Nsg36
Nsg37
S'NORETHINDRONE'
p304
sa(dp305
g2
Nsg3
S'http://bio2rdf.org/drugbank:DB00203'
p306
sg5
S'http://bio2rdf.org/drugbank:DB00559'
p307
sg7
Nsg8
Nsg9
Nsg10
Nsg11
Nsg12
Nsg13
Nsg14
Nsg15
Nsg16
g17
sg18
Nsg19
Nsg20
Nsg21
Nsg22
S'true'
p308
sg24
Nsg25
Nsg26
S'BOSENTAN'
p309
sg28
Nsg29
S'Decrease_Interaction'
p310
sg31
Nsg32
Nsg33
Nsg34
Nsg35
Nsg36
Nsg37
S'Sildenafil'
p311
sa(dp312
g2
Nsg3
S'http://bio2rdf.org/drugbank:DB00343'
p313
sg5
S'http://bio2rdf.org/drugbank:DB00490'
p314
sg7
Nsg8
Nsg9
Nsg10
Nsg11
Nsg12
Nsg13
Nsg14
Nsg15
Nsg16
g17
sg18
Nsg19
Nsg20
Nsg21
Nsg22
S'true'
p315
sg24
Nsg25
Nsg26
S'Buspirone'
p316
sg28
Nsg29
S'Increase_Interaction'
p317
sg31
Nsg32
Nsg33
Nsg34
Nsg35
Nsg36
Nsg37
S'DILTIAZEM'
p318
sa(dp319
g2
Nsg3
S'http://bio2rdf.org/drugbank:DB00999'
p320
sg5
S'http://bio2rdf.org/drugbank:DB00564'
p321
sg7
Nsg8
Nsg9
Nsg10
Nsg11
Nsg12
Nsg13
Nsg14
Nsg15
Nsg16
g17
sg18
Nsg19
Nsg20
Nsg21
Nsg22
S'true'
p322
sg24
Nsg25
Nsg26
S'Carbamazepine'
p323
sg28
Nsg29
S'Specific_Interaction'
p324
sg31
Nsg32
Nsg33
Nsg34
Nsg35
Nsg36
Nsg37
S'Hydrochlorothiazide'
p325
sa(dp326
g2
Nsg3
S'http://bio2rdf.org/drugbank:DB00343'
p327
sg5
S'http://bio2rdf.org/drugbank:DB01136'
p328
sg7
Nsg8
Nsg9
Nsg10
Nsg11
Nsg12
Nsg13
Nsg14
Nsg15
Nsg16
g17
sg18
Nsg19
Nsg20
Nsg21
Nsg22
S'true'
p329
sg24
Nsg25
Nsg26
S'Carvedilol'
p330
sg28
Nsg29
S'Specific_Interaction'
p331
sg31
Nsg32
Nsg33
Nsg34
Nsg35
Nsg36
Nsg37
S'DILTIAZEM'
p332
sa(dp333
g2
Nsg3
S'http://bio2rdf.org/drugbank:DB00758'
p334
sg5
S'http://bio2rdf.org/drugbank:DB01166'
p335
sg7
Nsg8
Nsg9
Nsg10
Nsg11
Nsg12
Nsg13
Nsg14
Nsg15
Nsg16
g17
sg18
Nsg19
Nsg20
Nsg21
Nsg22
S'true'
p336
sg24
Nsg25
Nsg26
S'Cilostazol'
p337
sg28
Nsg29
S'Caution_Interaction'
p338
sg31
Nsg32
Nsg33
Nsg34
Nsg35
Nsg36
Nsg37
S'CLOPIDOGREL'
p339
sa(dp340
g2
Nsg3
S'http://bio2rdf.org/drugbank:DB00343'
p341
sg5
S'http://bio2rdf.org/drugbank:DB01166'
p342
sg7
Nsg8
Nsg9
Nsg10
Nsg11
Nsg12
Nsg13
Nsg14
Nsg15
Nsg16
g17
sg18
Nsg19
Nsg20
Nsg21
Nsg22
S'true'
p343
sg24
Nsg25
Nsg26
S'Cilostazol'
p344
sg28
Nsg29
S'Increase_Interaction'
p345
sg31
Nsg32
Nsg33
Nsg34
Nsg35
Nsg36
Nsg37
S'DILTIAZEM'
p346
sa(dp347
g2
Nsg3
S'http://bio2rdf.org/drugbank:DB01118'
p348
sg5
S'http://bio2rdf.org/drugbank:DB00501'
p349
sg7
Nsg8
Nsg9
Nsg10
Nsg11
Nsg12
Nsg13
Nsg14
Nsg15
Nsg16
g17
sg18
Nsg19
Nsg20
Nsg21
Nsg22
S'true'
p350
sg24
Nsg25
Nsg26
S'Cimetidine'
p351
sg28
Nsg29
S'Increase_Interaction'
p352
sg31
Nsg32
Nsg33
Nsg34
Nsg35
Nsg36
Nsg37
S'AMIODARONE'
p353
sa(dp354
g2
Nsg3
S'http://bio2rdf.org/drugbank:DB00204'
p355
sg5
S'http://bio2rdf.org/drugbank:DB00501'
p356
sg7
Nsg8
Nsg9
Nsg10
Nsg11
Nsg12
Nsg13
Nsg14
Nsg15
Nsg16
g17
sg18
Nsg19
Nsg20
Nsg21
Nsg22
S'true'
p357
sg24
Nsg25
Nsg26
S'Cimetidine'
p358
sg28
Nsg29
S'Caution_Interaction'
p359
sg31
Nsg32
Nsg33
Nsg34
Nsg35
Nsg36
Nsg37
S'Dofetilide'
p360
sa(dp361
g2
Nsg3
S'http://bio2rdf.org/drugbank:DB00204'
p362
sg5
S'http://bio2rdf.org/drugbank:DB00501'
p363
sg7
Nsg8
Nsg9
Nsg10
Nsg11
Nsg12
Nsg13
Nsg14
Nsg15
Nsg16
g17
sg18
Nsg19
Nsg20
Nsg21
Nsg22
S'true'
p364
sg24
Nsg25
Nsg26
S'Cimetidine'
p365
sg28
Nsg29
S'Increase_Interaction'
p366
sg31
Nsg32
Nsg33
Nsg34
Nsg35
Nsg36
Nsg37
S'Dofetilide'
p367
sa(dp368
g2
Nsg3
S'http://bio2rdf.org/drugbank:DB00204'
p369
sg5
S'http://bio2rdf.org/drugbank:DB00501'
p370
sg7
Nsg8
Nsg9
Nsg10
Nsg11
Nsg12
Nsg13
Nsg14
Nsg15
Nsg16
g17
sg18
Nsg19
Nsg20
Nsg21
Nsg22
S'true'
p371
sg24
Nsg25
Nsg26
S'Cimetidine'
p372
sg28
Nsg29
S'Specific_Interaction'
p373
sg31
Nsg32
Nsg33
Nsg34
Nsg35
Nsg36
Nsg37
S'Dofetilide'
p374
sa(dp375
g2
Nsg3
S'http://bio2rdf.org/drugbank:DB01023'
p376
sg5
S'http://bio2rdf.org/drugbank:DB00501'
p377
sg7
Nsg8
Nsg9
Nsg10
Nsg11
Nsg12
Nsg13
Nsg14
Nsg15
Nsg16
g17
sg18
Nsg19
Nsg20
Nsg21
Nsg22
S'true'
p378
sg24
Nsg25
Nsg26
S'Cimetidine'
p379
sg28
Nsg29
S'Increase_Interaction'
p380
sg31
Nsg32
Nsg33
Nsg34
Nsg35
Nsg36
Nsg37
S'Felodipine'
p381
sa(dp382
g2
Nsg3
S'http://bio2rdf.org/drugbank:DB05291'
p383
sg5
S'http://bio2rdf.org/drugbank:DB00501'
p384
sg7
Nsg8
Nsg9
Nsg10
Nsg11
Nsg12
Nsg13
Nsg14
Nsg15
Nsg16
g17
sg18
Nsg19
Nsg20
Nsg21
Nsg22
S'true'
p385
sg24
Nsg25
Nsg26
S'Cimetidine'
p386
sg28
Nsg29
S'Increase_Interaction'
p387
sg31
Nsg32
Nsg33
Nsg34
Nsg35
Nsg36
Nsg37
S'LIDOCAINE PATCH'
p388
sa(dp389
g2
Nsg3
S'http://bio2rdf.org/drugbank:DB05291'
p390
sg5
S'http://bio2rdf.org/drugbank:DB00501'
p391
sg7
Nsg8
Nsg9
Nsg10
Nsg11
Nsg12
Nsg13
Nsg14
Nsg15
Nsg16
g17
sg18
Nsg19
Nsg20
Nsg21
Nsg22
S'true'
p392
sg24
Nsg25
Nsg26
S'Cimetidine'
p393
sg28
Nsg29
S'Specific_Interaction'
p394
sg31
Nsg32
Nsg33
Nsg34
Nsg35
Nsg36
Nsg37
S'LIDOCAINE PATCH'
p395
sa(dp396
g2
Nsg3
S'http://bio2rdf.org/drugbank:DB00678'
p397
sg5
S'http://bio2rdf.org/drugbank:DB00501'
p398
sg7
Nsg8
Nsg9
Nsg10
Nsg11
Nsg12
Nsg13
Nsg14
Nsg15
Nsg16
g17
sg18
Nsg19
Nsg20
Nsg21
Nsg22
S'true'
p399
sg24
Nsg25
Nsg26
S'Cimetidine'
p400
sg28
Nsg29
S'Increase_Interaction'
p401
sg31
Nsg32
Nsg33
Nsg34
Nsg35
Nsg36
Nsg37
S'Losartan'
p402
sa(dp403
g2
Nsg3
S'http://bio2rdf.org/drugbank:DB00622'
p404
sg5
S'http://bio2rdf.org/drugbank:DB00501'
p405
sg7
Nsg8
Nsg9
Nsg10
Nsg11
Nsg12
Nsg13
Nsg14
Nsg15
Nsg16
g17
sg18
Nsg19
Nsg20
Nsg21
Nsg22
S'true'
p406
sg24
Nsg25
Nsg26
S'Cimetidine'
p407
sg28
Nsg29
S'Increase_Interaction'
p408
sg31
Nsg32
Nsg33
Nsg34
Nsg35
Nsg36
Nsg37
S'Nicardipine'
p409
sa(dp410
g2
Nsg3
S'http://bio2rdf.org/drugbank:DB00695'
p411
sg5
S'http://bio2rdf.org/drugbank:DB00515'
p412
sg7
Nsg8
Nsg9
Nsg10
Nsg11
Nsg12
Nsg13
Nsg14
Nsg15
Nsg16
g17
sg18
Nsg19
Nsg20
Nsg21
Nsg22
S'true'
p413
sg24
Nsg25
Nsg26
S'CISPLATIN'
p414
sg28
Nsg29
S'Specific_Interaction'
p415
sg31
Nsg32
Nsg33
Nsg34
Nsg35
Nsg36
Nsg37
S'Furosemide'
p416
sa(dp417
g2
Nsg3
S'http://bio2rdf.org/drugbank:DB01076'
p418
sg5
S'http://bio2rdf.org/drugbank:DB01211'
p419
sg7
Nsg8
Nsg9
Nsg10
Nsg11
Nsg12
Nsg13
Nsg14
Nsg15
Nsg16
g17
sg18
Nsg19
Nsg20
Nsg21
Nsg22
S'true'
p420
sg24
Nsg25
Nsg26
S'CLARITHROMYCIN'
p421
sg28
Nsg29
S'Caution_Interaction'
p422
sg31
Nsg32
Nsg33
Nsg34
Nsg35
Nsg36
Nsg37
S'ATORVASTATIN'
p423
sa(dp424
g2
Nsg3
S'http://bio2rdf.org/drugbank:DB00390'
p425
sg5
S'http://bio2rdf.org/drugbank:DB01211'
p426
sg7
Nsg8
Nsg9
Nsg10
Nsg11
Nsg12
Nsg13
Nsg14
Nsg15
Nsg16
g17
sg18
Nsg19
Nsg20
Nsg21
Nsg22
S'true'
p427
sg24
Nsg25
Nsg26
S'CLARITHROMYCIN'
p428
sg28
Nsg29
S'Increase_Interaction'
p429
sg31
Nsg32
Nsg33
Nsg34
Nsg35
Nsg36
Nsg37
S'Digoxin'
p430
sa(dp431
g2
Nsg3
S'http://bio2rdf.org/drugbank:DB06228'
p432
sg5
S'http://bio2rdf.org/drugbank:DB01211'
p433
sg7
Nsg8
Nsg9
Nsg10
Nsg11
Nsg12
Nsg13
Nsg14
Nsg15
Nsg16
g17
sg18
Nsg19
Nsg20
Nsg21
Nsg22
S'true'
p434
sg24
Nsg25
Nsg26
S'CLARITHROMYCIN'
p435
sg28
Nsg29
S'Increase_Interaction'
p436
sg31
Nsg32
Nsg33
Nsg34
Nsg35
Nsg36
Nsg37
S'RIVAROXABAN'
p437
sa(dp438
g2
Nsg3
S'http://bio2rdf.org/drugbank:DB06228'
p439
sg5
S'http://bio2rdf.org/drugbank:DB01211'
p440
sg7
Nsg8
Nsg9
Nsg10
Nsg11
Nsg12
Nsg13
Nsg14
Nsg15
Nsg16
g17
sg18
Nsg19
Nsg20
Nsg21
Nsg22
S'true'
p441
sg24
Nsg25
Nsg26
S'CLARITHROMYCIN'
p442
sg28
Nsg29
S'Specific_Interaction'
p443
sg31
Nsg32
Nsg33
Nsg34
Nsg35
Nsg36
Nsg37
S'RIVAROXABAN'
p444
sa(dp445
g2
Nsg3
S'http://bio2rdf.org/drugbank:DB00343'
p446
sg5
S'http://bio2rdf.org/drugbank:DB00575'
p447
sg7
Nsg8
Nsg9
Nsg10
Nsg11
Nsg12
Nsg13
Nsg14
Nsg15
Nsg16
g17
sg18
Nsg19
Nsg20
Nsg21
Nsg22
S'true'
p448
sg24
Nsg25
Nsg26
S'Clonidine'
p449
sg28
Nsg29
S'Specific_Interaction'
p450
sg31
Nsg32
Nsg33
Nsg34
Nsg35
Nsg36
Nsg37
S'DILTIAZEM'
p451
sa(dp452
g2
Nsg3
S'http://bio2rdf.org/drugbank:DB00898'
p453
sg5
S'http://bio2rdf.org/drugbank:DB00575'
p454
sg7
Nsg8
Nsg9
Nsg10
Nsg11
Nsg12
Nsg13
Nsg14
Nsg15
Nsg16
g17
sg18
Nsg19
Nsg20
Nsg21
Nsg22
S'true'
p455
sg24
Nsg25
Nsg26
S'Clonidine'
p456
sg28
Nsg29
S'Specific_Interaction'
p457
sg31
Nsg32
Nsg33
Nsg34
Nsg35
Nsg36
Nsg37
S'ETHANOL'
p458
sa(dp459
g2
Nsg3
S'http://bio2rdf.org/drugbank:DB00661'
p460
sg5
S'http://bio2rdf.org/drugbank:DB00575'
p461
sg7
Nsg8
Nsg9
Nsg10
Nsg11
Nsg12
Nsg13
Nsg14
Nsg15
Nsg16
g17
sg18
Nsg19
Nsg20
Nsg21
Nsg22
S'true'
p462
sg24
Nsg25
Nsg26
S'Clonidine'
p463
sg28
Nsg29
S'Specific_Interaction'
p464
sg31
Nsg32
Nsg33
Nsg34
Nsg35
Nsg36
Nsg37
S'Verapamil'
p465
sa(dp466
g2
Nsg3
S'http://bio2rdf.org/drugbank:DB01118'
p467
sg5
S'http://bio2rdf.org/drugbank:DB00758'
p468
sg7
Nsg8
Nsg9
Nsg10
Nsg11
Nsg12
Nsg13
Nsg14
Nsg15
Nsg16
g17
sg18
Nsg19
Nsg20
Nsg21
Nsg22
S'true'
p469
sg24
Nsg25
Nsg26
S'CLOPIDOGREL'
p470
sg28
Nsg29
S'Specific_Interaction'
p471
sg31
Nsg32
Nsg33
Nsg34
Nsg35
Nsg36
Nsg37
S'AMIODARONE'
p472
sa(dp473
g2
Nsg3
S'http://bio2rdf.org/drugbank:DB06695'
p474
sg5
S'http://bio2rdf.org/drugbank:DB00758'
p475
sg7
Nsg8
Nsg9
Nsg10
Nsg11
Nsg12
Nsg13
Nsg14
Nsg15
Nsg16
g17
sg18
Nsg19
Nsg20
Nsg21
Nsg22
S'true'
p476
sg24
Nsg25
Nsg26
S'CLOPIDOGREL'
p477
sg28
Nsg29
S'Increase_Interaction'
p478
sg31
Nsg32
Nsg33
Nsg34
Nsg35
Nsg36
Nsg37
S'Dabigatran etexilate'
p479
sa(dp480
g2
Nsg3
S'http://bio2rdf.org/drugbank:DB00736'
p481
sg5
S'http://bio2rdf.org/drugbank:DB00758'
p482
sg7
Nsg8
Nsg9
Nsg10
Nsg11
Nsg12
Nsg13
Nsg14
Nsg15
Nsg16
g17
sg18
Nsg19
Nsg20
Nsg21
Nsg22
S'true'
p483
sg24
Nsg25
Nsg26
S'Clopidogrel'
p484
sg28
Nsg29
S'Caution_Interaction'
p485
sg31
Nsg32
Nsg33
Nsg34
Nsg35
Nsg36
Nsg37
S'ESOMEPRAZOLE'
p486
sa(dp487
g2
Nsg3
S'http://bio2rdf.org/drugbank:DB00736'
p488
sg5
S'http://bio2rdf.org/drugbank:DB00758'
p489
sg7
Nsg8
Nsg9
Nsg10
Nsg11
Nsg12
Nsg13
Nsg14
Nsg15
Nsg16
g17
sg18
Nsg19
Nsg20
Nsg21
Nsg22
S'true'
p490
sg24
Nsg25
Nsg26
S'Clopidogrel'
p491
sg28
Nsg29
S'Specific_Interaction'
p492
sg31
Nsg32
Nsg33
Nsg34
Nsg35
Nsg36
Nsg37
S'ESOMEPRAZOLE'
p493
sa(dp494
g2
Nsg3
S'http://bio2rdf.org/drugbank:DB06228'
p495
sg5
S'http://bio2rdf.org/drugbank:DB00758'
p496
sg7
Nsg8
Nsg9
Nsg10
Nsg11
Nsg12
Nsg13
Nsg14
Nsg15
Nsg16
g17
sg18
Nsg19
Nsg20
Nsg21
Nsg22
S'true'
p497
sg24
Nsg25
Nsg26
S'CLOPIDOGREL'
p498
sg28
Nsg29
S'Specific_Interaction'
p499
sg31
Nsg32
Nsg33
Nsg34
Nsg35
Nsg36
Nsg37
S'Rivaroxaban'
p500
sa(dp501
g2
Nsg3
S'http://bio2rdf.org/drugbank:DB00641'
p502
sg5
S'http://bio2rdf.org/drugbank:DB00872'
p503
sg7
Nsg8
Nsg9
Nsg10
Nsg11
Nsg12
Nsg13
Nsg14
Nsg15
Nsg16
g17
sg18
Nsg19
Nsg20
Nsg21
Nsg22
S'true'
p504
sg24
Nsg25
Nsg26
S'Conivaptan'
p505
sg28
Nsg29
S'Increase_Interaction'
p506
sg31
Nsg32
Nsg33
Nsg34
Nsg35
Nsg36
Nsg37
S'Simvastatin'
p507
sa(dp508
g2
Nsg3
S'http://bio2rdf.org/drugbank:DB01258'
p509
sg5
S'http://bio2rdf.org/drugbank:DB00091'
p510
sg7
Nsg8
Nsg9
Nsg10
Nsg11
Nsg12
Nsg13
Nsg14
Nsg15
Nsg16
g17
sg18
Nsg19
Nsg20
Nsg21
Nsg22
S'true'
p511
sg24
Nsg25
Nsg26
S'CYCLOSPORINE'
p512
sg28
Nsg29
S'Caution_Interaction'
p513
sg31
Nsg32
Nsg33
Nsg34
Nsg35
Nsg36
Nsg37
S'Aliskiren'
p514
sa(dp515
g2
Nsg3
S'http://bio2rdf.org/drugbank:DB01258'
p516
sg5
S'http://bio2rdf.org/drugbank:DB00091'
p517
sg7
Nsg8
Nsg9
Nsg10
Nsg11
Nsg12
Nsg13
Nsg14
Nsg15
Nsg16
g17
sg18
Nsg19
Nsg20
Nsg21
Nsg22
S'true'
p518
sg24
Nsg25
Nsg26
S'CYCLOSPORINE'
p519
sg28
Nsg29
S'Increase_Interaction'
p520
sg31
Nsg32
Nsg33
Nsg34
Nsg35
Nsg36
Nsg37
S'Aliskiren'
p521
sa(dp522
g2
Nsg3
S'http://bio2rdf.org/drugbank:DB01076'
p523
sg5
S'http://bio2rdf.org/drugbank:DB00091'
p524
sg7
Nsg8
Nsg9
Nsg10
Nsg11
Nsg12
Nsg13
Nsg14
Nsg15
Nsg16
g17
sg18
Nsg19
Nsg20
Nsg21
Nsg22
S'true'
p525
sg24
Nsg25
Nsg26
S'CYCLOSPORINE'
p526
sg28
Nsg29
S'Caution_Interaction'
p527
sg31
Nsg32
Nsg33
Nsg34
Nsg35
Nsg36
Nsg37
S'ATORVASTATIN'
p528
sa(dp529
g2
Nsg3
S'http://bio2rdf.org/drugbank:DB00343'
p530
sg5
S'http://bio2rdf.org/drugbank:DB00091'
p531
sg7
Nsg8
Nsg9
Nsg10
Nsg11
Nsg12
Nsg13
Nsg14
Nsg15
Nsg16
g17
sg18
Nsg19
Nsg20
Nsg21
Nsg22
S'true'
p532
sg24
Nsg25
Nsg26
S'CYCLOSPORINE'
p533
sg28
Nsg29
S'Caution_Interaction'
p534
sg31
Nsg32
Nsg33
Nsg34
Nsg35
Nsg36
Nsg37
S'DILTIAZEM'
p535
sa(dp536
g2
Nsg3
S'http://bio2rdf.org/drugbank:DB00343'
p537
sg5
S'http://bio2rdf.org/drugbank:DB00091'
p538
sg7
Nsg8
Nsg9
Nsg10
Nsg11
Nsg12
Nsg13
Nsg14
Nsg15
Nsg16
g17
sg18
Nsg19
Nsg20
Nsg21
Nsg22
S'true'
p539
sg24
Nsg25
Nsg26
S'CYCLOSPORINE'
p540
sg28
Nsg29
S'Increase_Interaction'
p541
sg31
Nsg32
Nsg33
Nsg34
Nsg35
Nsg36
Nsg37
S'DILTIAZEM'
p542
sa(dp543
g2
Nsg3
S'http://bio2rdf.org/drugbank:DB00695'
p544
sg5
S'http://bio2rdf.org/drugbank:DB00091'
p545
sg7
Nsg8
Nsg9
Nsg10
Nsg11
Nsg12
Nsg13
Nsg14
Nsg15
Nsg16
g17
sg18
Nsg19
Nsg20
Nsg21
Nsg22
S'true'
p546
sg24
Nsg25
Nsg26
S'CYCLOSPORINE'
p547
sg28
Nsg29
S'Specific_Interaction'
p548
sg31
Nsg32
Nsg33
Nsg34
Nsg35
Nsg36
Nsg37
S'Furosemide'
p549
sa(dp550
g2
Nsg3
S'http://bio2rdf.org/drugbank:DB01118'
p551
sg5
S'http://bio2rdf.org/drugbank:DB06695'
p552
sg7
Nsg8
Nsg9
Nsg10
Nsg11
Nsg12
Nsg13
Nsg14
Nsg15
Nsg16
g17
sg18
Nsg19
Nsg20
Nsg21
Nsg22
S'true'
p553
sg24
Nsg25
Nsg26
S'Dabigatran etexilate'
p554
sg28
Nsg29
S'Decrease_Interaction'
p555
sg31
Nsg32
Nsg33
Nsg34
Nsg35
Nsg36
Nsg37
S'AMIODARONE'
p556
sa(dp557
g2
Nsg3
S'http://bio2rdf.org/drugbank:DB04855'
p558
sg5
S'http://bio2rdf.org/drugbank:DB06695'
p559
sg7
Nsg8
Nsg9
Nsg10
Nsg11
Nsg12
Nsg13
Nsg14
Nsg15
Nsg16
g17
sg18
Nsg19
Nsg20
Nsg21
Nsg22
S'true'
p560
sg24
Nsg25
Nsg26
S'Dabigatran etexilate'
p561
sg28
Nsg29
S'Caution_Interaction'
p562
sg31
Nsg32
Nsg33
Nsg34
Nsg35
Nsg36
Nsg37
S'Dronedarone'
p563
sa(dp564
g2
Nsg3
S'http://bio2rdf.org/drugbank:DB04855'
p565
sg5
S'http://bio2rdf.org/drugbank:DB06695'
p566
sg7
Nsg8
Nsg9
Nsg10
Nsg11
Nsg12
Nsg13
Nsg14
Nsg15
Nsg16
g17
sg18
Nsg19
Nsg20
Nsg21
Nsg22
S'true'
p567
sg24
Nsg25
Nsg26
S'Dabigatran etexilate'
p568
sg28
Nsg29
S'Increase_Interaction'
p569
sg31
Nsg32
Nsg33
Nsg34
Nsg35
Nsg36
Nsg37
S'Dronedarone'
p570
sa(dp571
g2
Nsg3
S'http://bio2rdf.org/drugbank:DB01076'
p572
sg5
S'http://bio2rdf.org/drugbank:DB01264'
p573
sg7
Nsg8
Nsg9
Nsg10
Nsg11
Nsg12
Nsg13
Nsg14
Nsg15
Nsg16
g17
sg18
Nsg19
Nsg20
Nsg21
Nsg22
S'true'
p574
sg24
Nsg25
Nsg26
S'Darunavir'
p575
sg28
Nsg29
S'Caution_Interaction'
p576
sg31
Nsg32
Nsg33
Nsg34
Nsg35
Nsg36
Nsg37
S'ATORVASTATIN'
p577
sa(dp578
g2
Nsg3
S'http://bio2rdf.org/drugbank:DB00908'
p579
sg5
S'http://bio2rdf.org/drugbank:DB01396'
p580
sg7
Nsg8
Nsg9
Nsg10
Nsg11
Nsg12
Nsg13
Nsg14
Nsg15
Nsg16
g17
sg18
Nsg19
Nsg20
Nsg21
Nsg22
S'true'
p581
sg24
Nsg25
Nsg26
S'Digitoxin'
p582
sg28
Nsg29
S'Increase_Interaction'
p583
sg31
Nsg32
Nsg33
Nsg34
Nsg35
Nsg36
Nsg37
S'QUINIDINE'
p584
sa(dp585
g2
Nsg3
S'http://bio2rdf.org/drugbank:DB00640'
p586
sg5
S'http://bio2rdf.org/drugbank:DB00390'
p587
sg7
Nsg8
Nsg9
Nsg10
Nsg11
Nsg12
Nsg13
Nsg14
Nsg15
Nsg16
g17
sg18
Nsg19
Nsg20
Nsg21
Nsg22
S'true'
p588
sg24
Nsg25
Nsg26
S'Digoxin'
p589
sg28
Nsg29
S'Specific_Interaction'
p590
sg31
Nsg32
Nsg33
Nsg34
Nsg35
Nsg36
Nsg37
S'Adenosine'
p591
sa(dp592
g2
Nsg3
S'http://bio2rdf.org/drugbank:DB01136'
p593
sg5
S'http://bio2rdf.org/drugbank:DB00390'
p594
sg7
Nsg8
Nsg9
Nsg10
Nsg11
Nsg12
Nsg13
Nsg14
Nsg15
Nsg16
g17
sg18
Nsg19
Nsg20
Nsg21
Nsg22
S'true'
p595
sg24
Nsg25
Nsg26
S'Digoxin'
p596
sg28
Nsg29
S'Caution_Interaction'
p597
sg31
Nsg32
Nsg33
Nsg34
Nsg35
Nsg36
Nsg37
S'Carvedilol'
p598
sa(dp599
g2
Nsg3
S'http://bio2rdf.org/drugbank:DB00343'
p600
sg5
S'http://bio2rdf.org/drugbank:DB00390'
p601
sg7
Nsg8
Nsg9
Nsg10
Nsg11
Nsg12
Nsg13
Nsg14
Nsg15
Nsg16
g17
sg18
Nsg19
Nsg20
Nsg21
Nsg22
S'true'
p602
sg24
Nsg25
Nsg26
S'Digoxin'
p603
sg28
Nsg29
S'Caution_Interaction'
p604
sg31
Nsg32
Nsg33
Nsg34
Nsg35
Nsg36
Nsg37
S'Diltiazem'
p605
sa(dp606
g2
Nsg3
S'http://bio2rdf.org/drugbank:DB00204'
p607
sg5
S'http://bio2rdf.org/drugbank:DB00390'
p608
sg7
Nsg8
Nsg9
Nsg10
Nsg11
Nsg12
Nsg13
Nsg14
Nsg15
Nsg16
g17
sg18
Nsg19
Nsg20
Nsg21
Nsg22
S'true'
p609
sg24
Nsg25
Nsg26
S'Digoxin'
p610
sg28
Nsg29
S'Specific_Interaction'
p611
sg31
Nsg32
Nsg33
Nsg34
Nsg35
Nsg36
Nsg37
S'Dofetilide'
p612
sa(dp613
g2
Nsg3
S'http://bio2rdf.org/drugbank:DB04855'
p614
sg5
S'http://bio2rdf.org/drugbank:DB00390'
p615
sg7
Nsg8
Nsg9
Nsg10
Nsg11
Nsg12
Nsg13
Nsg14
Nsg15
Nsg16
g17
sg18
Nsg19
Nsg20
Nsg21
Nsg22
S'true'
p616
sg24
Nsg25
Nsg26
S'Digoxin'
p617
sg28
Nsg29
S'Specific_Interaction'
p618
sg31
Nsg32
Nsg33
Nsg34
Nsg35
Nsg36
Nsg37
S'Dronedarone'
p619
sa(dp620
g2
Nsg3
S'http://bio2rdf.org/drugbank:DB01240'
p621
sg5
S'http://bio2rdf.org/drugbank:DB00390'
p622
sg7
Nsg8
Nsg9
Nsg10
Nsg11
Nsg12
Nsg13
Nsg14
Nsg15
Nsg16
g17
sg18
Nsg19
Nsg20
Nsg21
Nsg22
S'true'
p623
sg24
Nsg25
Nsg26
S'Digoxin'
p624
sg28
Nsg29
S'Increase_Interaction'
p625
sg31
Nsg32
Nsg33
Nsg34
Nsg35
Nsg36
Nsg37
S'Epoprostenol'
p626
sa(dp627
g2
Nsg3
S'http://bio2rdf.org/drugbank:DB00622'
p628
sg5
S'http://bio2rdf.org/drugbank:DB00390'
p629
sg7
Nsg8
Nsg9
Nsg10
Nsg11
Nsg12
Nsg13
Nsg14
Nsg15
Nsg16
g17
sg18
Nsg19
Nsg20
Nsg21
Nsg22
S'true'
p630
sg24
Nsg25
Nsg26
S'Digoxin'
p631
sg28
Nsg29
S'Caution_Interaction'
p632
sg31
Nsg32
Nsg33
Nsg34
Nsg35
Nsg36
Nsg37
S'Nicardipine'
p633
sa(dp634
g2
Nsg3
S'http://bio2rdf.org/drugbank:DB01115'
p635
sg5
S'http://bio2rdf.org/drugbank:DB00390'
p636
sg7
Nsg8
Nsg9
Nsg10
Nsg11
Nsg12
Nsg13
Nsg14
Nsg15
Nsg16
g17
sg18
Nsg19
Nsg20
Nsg21
Nsg22
S'true'
p637
sg24
Nsg25
Nsg26
S'Digoxin'
p638
sg28
Nsg29
S'Caution_Interaction'
p639
sg31
Nsg32
Nsg33
Nsg34
Nsg35
Nsg36
Nsg37
S'NIFEDIPINE'
p640
sa(dp641
g2
Nsg3
S'http://bio2rdf.org/drugbank:DB01115'
p642
sg5
S'http://bio2rdf.org/drugbank:DB00390'
p643
sg7
Nsg8
Nsg9
Nsg10
Nsg11
Nsg12
Nsg13
Nsg14
Nsg15
Nsg16
g17
sg18
Nsg19
Nsg20
Nsg21
Nsg22
S'true'
p644
sg24
Nsg25
Nsg26
S'Digoxin'
p645
sg28
Nsg29
S'Increase_Interaction'
p646
sg31
Nsg32
Nsg33
Nsg34
Nsg35
Nsg36
Nsg37
S'NIFEDIPINE'
p647
sa(dp648
g2
Nsg3
S'http://bio2rdf.org/drugbank:DB00966'
p649
sg5
S'http://bio2rdf.org/drugbank:DB00390'
p650
sg7
Nsg8
Nsg9
Nsg10
Nsg11
Nsg12
Nsg13
Nsg14
Nsg15
Nsg16
g17
sg18
Nsg19
Nsg20
Nsg21
Nsg22
S'true'
p651
sg24
Nsg25
Nsg26
S'Digoxin'
p652
sg28
Nsg29
S'Caution_Interaction'
p653
sg31
Nsg32
Nsg33
Nsg34
Nsg35
Nsg36
Nsg37
S'TELMISARTAN'
p654
sa(dp655
g2
Nsg3
S'http://bio2rdf.org/drugbank:DB00214'
p656
sg5
S'http://bio2rdf.org/drugbank:DB00390'
p657
sg7
Nsg8
Nsg9
Nsg10
Nsg11
Nsg12
Nsg13
Nsg14
Nsg15
Nsg16
g17
sg18
Nsg19
Nsg20
Nsg21
Nsg22
S'true'
p658
sg24
Nsg25
Nsg26
S'Digoxin'
p659
sg28
Nsg29
S'Increase_Interaction'
p660
sg31
Nsg32
Nsg33
Nsg34
Nsg35
Nsg36
Nsg37
S'Torasemide'
p661
sa(dp662
g2
Nsg3
S'http://bio2rdf.org/drugbank:DB00661'
p663
sg5
S'http://bio2rdf.org/drugbank:DB00390'
p664
sg7
Nsg8
Nsg9
Nsg10
Nsg11
Nsg12
Nsg13
Nsg14
Nsg15
Nsg16
g17
sg18
Nsg19
Nsg20
Nsg21
Nsg22
S'true'
p665
sg24
Nsg25
Nsg26
S'Digoxin'
p666
sg28
Nsg29
S'Caution_Interaction'
p667
sg31
Nsg32
Nsg33
Nsg34
Nsg35
Nsg36
Nsg37
S'Verapamil'
p668
sa(dp669
g2
Nsg3
S'http://bio2rdf.org/drugbank:DB00490'
p670
sg5
S'http://bio2rdf.org/drugbank:DB00343'
p671
sg7
Nsg8
Nsg9
Nsg10
Nsg11
Nsg12
Nsg13
Nsg14
Nsg15
Nsg16
g17
sg18
Nsg19
Nsg20
Nsg21
Nsg22
S'true'
p672
sg24
Nsg25
Nsg26
S'DILTIAZEM'
p673
sg28
Nsg29
S'Increase_Interaction'
p674
sg31
Nsg32
Nsg33
Nsg34
Nsg35
Nsg36
Nsg37
S'Buspirone'
p675
sa(dp676
g2
Nsg3
S'http://bio2rdf.org/drugbank:DB00564'
p677
sg5
S'http://bio2rdf.org/drugbank:DB00343'
p678
sg7
Nsg8
Nsg9
Nsg10
Nsg11
Nsg12
Nsg13
Nsg14
Nsg15
Nsg16
g17
sg18
Nsg19
Nsg20
Nsg21
Nsg22
S'true'
p679
sg24
Nsg25
Nsg26
S'DILTIAZEM'
p680
sg28
Nsg29
S'Increase_Interaction'
p681
sg31
Nsg32
Nsg33
Nsg34
Nsg35
Nsg36
Nsg37
S'CARBAMAZEPINE'
p682
sa(dp683
g2
Nsg3
S'http://bio2rdf.org/drugbank:DB00501'
p684
sg5
S'http://bio2rdf.org/drugbank:DB00343'
p685
sg7
Nsg8
Nsg9
Nsg10
Nsg11
Nsg12
Nsg13
Nsg14
Nsg15
Nsg16
g17
sg18
Nsg19
Nsg20
Nsg21
Nsg22
S'true'
p686
sg24
Nsg25
Nsg26
S'DILTIAZEM'
p687
sg28
Nsg29
S'Caution_Interaction'
p688
sg31
Nsg32
Nsg33
Nsg34
Nsg35
Nsg36
Nsg37
S'Cimetidine'
p689
sa(dp690
g2
Nsg3
S'http://bio2rdf.org/drugbank:DB00501'
p691
sg5
S'http://bio2rdf.org/drugbank:DB00343'
p692
sg7
Nsg8
Nsg9
Nsg10
Nsg11
Nsg12
Nsg13
Nsg14
Nsg15
Nsg16
g17
sg18
Nsg19
Nsg20
Nsg21
Nsg22
S'true'
p693
sg24
Nsg25
Nsg26
S'DILTIAZEM'
p694
sg28
Nsg29
S'Increase_Interaction'
p695
sg31
Nsg32
Nsg33
Nsg34
Nsg35
Nsg36
Nsg37
S'Cimetidine'
p696
sa(dp697
g2
Nsg3
S'http://bio2rdf.org/drugbank:DB00575'
p698
sg5
S'http://bio2rdf.org/drugbank:DB00343'
p699
sg7
Nsg8
Nsg9
Nsg10
Nsg11
Nsg12
Nsg13
Nsg14
Nsg15
Nsg16
g17
sg18
Nsg19
Nsg20
Nsg21
Nsg22
S'true'
p700
sg24
Nsg25
Nsg26
S'DILTIAZEM'
p701
sg28
Nsg29
S'Caution_Interaction'
p702
sg31
Nsg32
Nsg33
Nsg34
Nsg35
Nsg36
Nsg37
S'Clonidine'
p703
sa(dp704
g2
Nsg3
S'http://bio2rdf.org/drugbank:DB00091'
p705
sg5
S'http://bio2rdf.org/drugbank:DB00343'
p706
sg7
Nsg8
Nsg9
Nsg10
Nsg11
Nsg12
Nsg13
Nsg14
Nsg15
Nsg16
g17
sg18
Nsg19
Nsg20
Nsg21
Nsg22
S'true'
p707
sg24
Nsg25
Nsg26
S'DILTIAZEM'
p708
sg28
Nsg29
S'Specific_Interaction'
p709
sg31
Nsg32
Nsg33
Nsg34
Nsg35
Nsg36
Nsg37
S'CYCLOSPORINE'
p710
sa(dp711
g2
Nsg3
S'http://bio2rdf.org/drugbank:DB00390'
p712
sg5
S'http://bio2rdf.org/drugbank:DB00343'
p713
sg7
Nsg8
Nsg9
Nsg10
Nsg11
Nsg12
Nsg13
Nsg14
Nsg15
Nsg16
g17
sg18
Nsg19
Nsg20
Nsg21
Nsg22
S'true'
p714
sg24
Nsg25
Nsg26
S'Diltiazem'
p715
sg28
Nsg29
S'Increase_Interaction'
p716
sg31
Nsg32
Nsg33
Nsg34
Nsg35
Nsg36
Nsg37
S'Digoxin'
p717
sa(dp718
g2
Nsg3
S'http://bio2rdf.org/drugbank:DB04855'
p719
sg5
S'http://bio2rdf.org/drugbank:DB00343'
p720
sg7
Nsg8
Nsg9
Nsg10
Nsg11
Nsg12
Nsg13
Nsg14
Nsg15
Nsg16
g17
sg18
Nsg19
Nsg20
Nsg21
Nsg22
S'true'
p721
sg24
Nsg25
Nsg26
S'DILTIAZEM'
p722
sg28
Nsg29
S'Increase_Interaction'
p723
sg31
Nsg32
Nsg33
Nsg34
Nsg35
Nsg36
Nsg37
S'Dronedarone'
p724
sa(dp725
g2
Nsg3
S'http://bio2rdf.org/drugbank:DB00683'
p726
sg5
S'http://bio2rdf.org/drugbank:DB00343'
p727
sg7
Nsg8
Nsg9
Nsg10
Nsg11
Nsg12
Nsg13
Nsg14
Nsg15
Nsg16
g17
sg18
Nsg19
Nsg20
Nsg21
Nsg22
S'true'
p728
sg24
Nsg25
Nsg26
S'DILTIAZEM'
p729
sg28
Nsg29
S'Increase_Interaction'
p730
sg31
Nsg32
Nsg33
Nsg34
Nsg35
Nsg36
Nsg37
S'MIDAZOLAM'
p731
sa(dp732
g2
Nsg3
S'http://bio2rdf.org/drugbank:DB00683'
p733
sg5
S'http://bio2rdf.org/drugbank:DB00343'
p734
sg7
Nsg8
Nsg9
Nsg10
Nsg11
Nsg12
Nsg13
Nsg14
Nsg15
Nsg16
g17
sg18
Nsg19
Nsg20
Nsg21
Nsg22
S'true'
p735
sg24
Nsg25
Nsg26
S'DILTIAZEM'
p736
sg28
Nsg29
S'Specific_Interaction'
p737
sg31
Nsg32
Nsg33
Nsg34
Nsg35
Nsg36
Nsg37
S'MIDAZOLAM'
p738
sa(dp739
g2
Nsg3
S'http://bio2rdf.org/drugbank:DB00908'
p740
sg5
S'http://bio2rdf.org/drugbank:DB00343'
p741
sg7
Nsg8
Nsg9
Nsg10
Nsg11
Nsg12
Nsg13
Nsg14
Nsg15
Nsg16
g17
sg18
Nsg19
Nsg20
Nsg21
Nsg22
S'true'
p742
sg24
Nsg25
Nsg26
S'DILTIAZEM'
p743
sg28
Nsg29
S'Increase_Interaction'
p744
sg31
Nsg32
Nsg33
Nsg34
Nsg35
Nsg36
Nsg37
S'QUINIDINE'
p745
sa(dp746
g2
Nsg3
S'http://bio2rdf.org/drugbank:DB01045'
p747
sg5
S'http://bio2rdf.org/drugbank:DB00343'
p748
sg7
Nsg8
Nsg9
Nsg10
Nsg11
Nsg12
Nsg13
Nsg14
Nsg15
Nsg16
g17
sg18
Nsg19
Nsg20
Nsg21
Nsg22
S'true'
p749
sg24
Nsg25
Nsg26
S'DILTIAZEM'
p750
sg28
Nsg29
S'Caution_Interaction'
p751
sg31
Nsg32
Nsg33
Nsg34
Nsg35
Nsg36
Nsg37
S'RIFAMPICIN'
p752
sa(dp753
g2
Nsg3
S'http://bio2rdf.org/drugbank:DB00641'
p754
sg5
S'http://bio2rdf.org/drugbank:DB00343'
p755
sg7
Nsg8
Nsg9
Nsg10
Nsg11
Nsg12
Nsg13
Nsg14
Nsg15
Nsg16
g17
sg18
Nsg19
Nsg20
Nsg21
Nsg22
S'true'
p756
sg24
Nsg25
Nsg26
S'DILTIAZEM'
p757
sg28
Nsg29
S'Increase_Interaction'
p758
sg31
Nsg32
Nsg33
Nsg34
Nsg35
Nsg36
Nsg37
S'SIMVASTATIN'
p759
sa(dp760
g2
Nsg3
S'http://bio2rdf.org/drugbank:DB00897'
p761
sg5
S'http://bio2rdf.org/drugbank:DB00343'
p762
sg7
Nsg8
Nsg9
Nsg10
Nsg11
Nsg12
Nsg13
Nsg14
Nsg15
Nsg16
g17
sg18
Nsg19
Nsg20
Nsg21
Nsg22
S'true'
p763
sg24
Nsg25
Nsg26
S'DILTIAZEM'
p764
sg28
Nsg29
S'Increase_Interaction'
p765
sg31
Nsg32
Nsg33
Nsg34
Nsg35
Nsg36
Nsg37
S'TRIAZOLAM'
p766
sa(dp767
g2
Nsg3
S'http://bio2rdf.org/drugbank:DB00897'
p768
sg5
S'http://bio2rdf.org/drugbank:DB00343'
p769
sg7
Nsg8
Nsg9
Nsg10
Nsg11
Nsg12
Nsg13
Nsg14
Nsg15
Nsg16
g17
sg18
Nsg19
Nsg20
Nsg21
Nsg22
S'true'
p770
sg24
Nsg25
Nsg26
S'DILTIAZEM'
p771
sg28
Nsg29
S'Specific_Interaction'
p772
sg31
Nsg32
Nsg33
Nsg34
Nsg35
Nsg36
Nsg37
S'TRIAZOLAM'
p773
sa(dp774
g2
Nsg3
S'http://bio2rdf.org/drugbank:DB00390'
p775
sg5
S'http://bio2rdf.org/drugbank:DB01081'
p776
sg7
Nsg8
Nsg9
Nsg10
Nsg11
Nsg12
Nsg13
Nsg14
Nsg15
Nsg16
g17
sg18
Nsg19
Nsg20
Nsg21
Nsg22
S'true'
p777
sg24
Nsg25
Nsg26
S'DIPHENOXYLATE'
p778
sg28
Nsg29
S'Increase_Interaction'
p779
sg31
Nsg32
Nsg33
Nsg34
Nsg35
Nsg36
Nsg37
S'Digoxin'
p780
sa(dp781
g2
Nsg3
S'http://bio2rdf.org/drugbank:DB00640'
p782
sg5
S'http://bio2rdf.org/drugbank:DB00975'
p783
sg7
Nsg8
Nsg9
Nsg10
Nsg11
Nsg12
Nsg13
Nsg14
Nsg15
Nsg16
g17
sg18
Nsg19
Nsg20
Nsg21
Nsg22
S'true'
p784
sg24
Nsg25
Nsg26
S'Dipyridamole'
p785
sg28
Nsg29
S'Increase_Interaction'
p786
sg31
Nsg32
Nsg33
Nsg34
Nsg35
Nsg36
Nsg37
S'Adenosine'
p787
sa(dp788
g2
Nsg3
S'http://bio2rdf.org/drugbank:DB00908'
p789
sg5
S'http://bio2rdf.org/drugbank:DB00280'
p790
sg7
Nsg8
Nsg9
Nsg10
Nsg11
Nsg12
Nsg13
Nsg14
Nsg15
Nsg16
g17
sg18
Nsg19
Nsg20
Nsg21
Nsg22
S'true'
p791
sg24
Nsg25
Nsg26
S'Disopyramide'
p792
sg28
Nsg29
S'Decrease_Interaction'
p793
sg31
Nsg32
Nsg33
Nsg34
Nsg35
Nsg36
Nsg37
S'QUINIDINE'
p794
sa(dp795
g2
Nsg3
S'http://bio2rdf.org/drugbank:DB00325'
p796
sg5
S'http://bio2rdf.org/drugbank:DB00841'
p797
sg7
Nsg8
Nsg9
Nsg10
Nsg11
Nsg12
Nsg13
Nsg14
Nsg15
Nsg16
g17
sg18
Nsg19
Nsg20
Nsg21
Nsg22
S'true'
p798
sg24
Nsg25
Nsg26
S'Dobutamine'
p799
sg28
Nsg29
S'Specific_Interaction'
p800
sg31
Nsg32
Nsg33
Nsg34
Nsg35
Nsg36
Nsg37
S'NITROPRUSSIDE'
p801
sa(dp802
g2
Nsg3
S'http://bio2rdf.org/drugbank:DB00661'
p803
sg5
S'http://bio2rdf.org/drugbank:DB00997'
p804
sg7
Nsg8
Nsg9
Nsg10
Nsg11
Nsg12
Nsg13
Nsg14
Nsg15
Nsg16
g17
sg18
Nsg19
Nsg20
Nsg21
Nsg22
S'true'
p805
sg24
Nsg25
Nsg26
S'DOXORUBICIN'
p806
sg28
Nsg29
S'Increase_Interaction'
p807
sg31
Nsg32
Nsg33
Nsg34
Nsg35
Nsg36
Nsg37
S'Verapamil'
p808
sa(dp809
g2
Nsg3
S'http://bio2rdf.org/drugbank:DB06695'
p810
sg5
S'http://bio2rdf.org/drugbank:DB04855'
p811
sg7
Nsg8
Nsg9
Nsg10
Nsg11
Nsg12
Nsg13
Nsg14
Nsg15
Nsg16
g17
sg18
Nsg19
Nsg20
Nsg21
Nsg22
S'true'
p812
sg24
Nsg25
Nsg26
S'Dronedarone'
p813
sg28
Nsg29
S'Caution_Interaction'
p814
sg31
Nsg32
Nsg33
Nsg34
Nsg35
Nsg36
Nsg37
S'Dabigatran etexilate'
p815
sa(dp816
g2
Nsg3
S'http://bio2rdf.org/drugbank:DB06695'
p817
sg5
S'http://bio2rdf.org/drugbank:DB04855'
p818
sg7
Nsg8
Nsg9
Nsg10
Nsg11
Nsg12
Nsg13
Nsg14
Nsg15
Nsg16
g17
sg18
Nsg19
Nsg20
Nsg21
Nsg22
S'true'
p819
sg24
Nsg25
Nsg26
S'Dronedarone'
p820
sg28
Nsg29
S'Increase_Interaction'
p821
sg31
Nsg32
Nsg33
Nsg34
Nsg35
Nsg36
Nsg37
S'Dabigatran etexilate'
p822
sa(dp823
g2
Nsg3
S'http://bio2rdf.org/drugbank:DB00390'
p824
sg5
S'http://bio2rdf.org/drugbank:DB04855'
p825
sg7
Nsg8
Nsg9
Nsg10
Nsg11
Nsg12
Nsg13
Nsg14
Nsg15
Nsg16
g17
sg18
Nsg19
Nsg20
Nsg21
Nsg22
S'true'
p826
sg24
Nsg25
Nsg26
S'Dronedarone'
p827
sg28
Nsg29
S'Increase_Interaction'
p828
sg31
Nsg32
Nsg33
Nsg34
Nsg35
Nsg36
Nsg37
S'Digoxin'
p829
sa(dp830
g2
Nsg3
S'http://bio2rdf.org/drugbank:DB00641'
p831
sg5
S'http://bio2rdf.org/drugbank:DB04855'
p832
sg7
Nsg8
Nsg9
Nsg10
Nsg11
Nsg12
Nsg13
Nsg14
Nsg15
Nsg16
g17
sg18
Nsg19
Nsg20
Nsg21
Nsg22
S'true'
p833
sg24
Nsg25
Nsg26
S'Dronedarone'
p834
sg28
Nsg29
S'Increase_Interaction'
p835
sg31
Nsg32
Nsg33
Nsg34
Nsg35
Nsg36
Nsg37
S'SIMVASTATIN'
p836
sa(dp837
g2
Nsg3
S'http://bio2rdf.org/drugbank:DB01344'
p838
sg5
S'http://bio2rdf.org/drugbank:DB01638'
p839
sg7
Nsg8
Nsg9
Nsg10
Nsg11
Nsg12
Nsg13
Nsg14
Nsg15
Nsg16
g17
sg18
Nsg19
Nsg20
Nsg21
Nsg22
S'true'
p840
sg24
Nsg25
Nsg26
S'D-SORBITOL'
p841
sg28
Nsg29
S'Specific_Interaction'
p842
sg31
Nsg32
Nsg33
Nsg34
Nsg35
Nsg36
Nsg37
S'Polystyrene sulfonate'
p843
sa(dp844
g2
Nsg3
S'http://bio2rdf.org/drugbank:DB01356'
p845
sg5
S'http://bio2rdf.org/drugbank:DB00584'
p846
sg7
Nsg8
Nsg9
Nsg10
Nsg11
Nsg12
Nsg13
Nsg14
Nsg15
Nsg16
g17
sg18
Nsg19
Nsg20
Nsg21
Nsg22
S'true'
p847
sg24
Nsg25
Nsg26
S'ENALAPRIL'
p848
sg28
Nsg29
S'Caution_Interaction'
p849
sg31
Nsg32
Nsg33
Nsg34
Nsg35
Nsg36
Nsg37
S'LITHIUM'
p850
sa(dp851
g2
Nsg3
S'http://bio2rdf.org/drugbank:DB00584'
p852
sg5
S'http://bio2rdf.org/drugbank:DB00700'
p853
sg7
Nsg8
Nsg9
Nsg10
Nsg11
Nsg12
Nsg13
Nsg14
Nsg15
Nsg16
g17
sg18
Nsg19
Nsg20
Nsg21
Nsg22
S'true'
p854
sg24
Nsg25
Nsg26
S'Eplerenone'
p855
sg28
Nsg29
S'Specific_Interaction'
p856
sg31
Nsg32
Nsg33
Nsg34
Nsg35
Nsg36
Nsg37
S'ENALAPRIL'
p857
sa(dp858
g2
Nsg3
S'http://bio2rdf.org/drugbank:DB01356'
p859
sg5
S'http://bio2rdf.org/drugbank:DB00700'
p860
sg7
Nsg8
Nsg9
Nsg10
Nsg11
Nsg12
Nsg13
Nsg14
Nsg15
Nsg16
g17
sg18
Nsg19
Nsg20
Nsg21
Nsg22
S'true'
p861
sg24
Nsg25
Nsg26
S'Eplerenone'
p862
sg28
Nsg29
S'Caution_Interaction'
p863
sg31
Nsg32
Nsg33
Nsg34
Nsg35
Nsg36
Nsg37
S'LITHIUM'
p864
sa(dp865
g2
Nsg3
S'http://bio2rdf.org/drugbank:DB00390'
p866
sg5
S'http://bio2rdf.org/drugbank:DB01240'
p867
sg7
Nsg8
Nsg9
Nsg10
Nsg11
Nsg12
Nsg13
Nsg14
Nsg15
Nsg16
g17
sg18
Nsg19
Nsg20
Nsg21
Nsg22
S'true'
p868
sg24
Nsg25
Nsg26
S'Epoprostenol'
p869
sg28
Nsg29
S'Increase_Interaction'
p870
sg31
Nsg32
Nsg33
Nsg34
Nsg35
Nsg36
Nsg37
S'Digoxin'
p871
sa(dp872
g2
Nsg3
S'http://bio2rdf.org/drugbank:DB00695'
p873
sg5
S'http://bio2rdf.org/drugbank:DB01240'
p874
sg7
Nsg8
Nsg9
Nsg10
Nsg11
Nsg12
Nsg13
Nsg14
Nsg15
Nsg16
g17
sg18
Nsg19
Nsg20
Nsg21
Nsg22
S'true'
p875
sg24
Nsg25
Nsg26
S'Epoprostenol'
p876
sg28
Nsg29
S'Increase_Interaction'
p877
sg31
Nsg32
Nsg33
Nsg34
Nsg35
Nsg36
Nsg37
S'Furosemide'
p878
sa(dp879
g2
Nsg3
S'http://bio2rdf.org/drugbank:DB01166'
p880
sg5
S'http://bio2rdf.org/drugbank:DB00199'
p881
sg7
Nsg8
Nsg9
Nsg10
Nsg11
Nsg12
Nsg13
Nsg14
Nsg15
Nsg16
g17
sg18
Nsg19
Nsg20
Nsg21
Nsg22
S'true'
p882
sg24
Nsg25
Nsg26
S'ERYTHROMYCIN'
p883
sg28
Nsg29
S'Increase_Interaction'
p884
sg31
Nsg32
Nsg33
Nsg34
Nsg35
Nsg36
Nsg37
S'Cilostazol'
p885
sa(dp886
g2
Nsg3
S'http://bio2rdf.org/drugbank:DB00390'
p887
sg5
S'http://bio2rdf.org/drugbank:DB00199'
p888
sg7
Nsg8
Nsg9
Nsg10
Nsg11
Nsg12
Nsg13
Nsg14
Nsg15
Nsg16
g17
sg18
Nsg19
Nsg20
Nsg21
Nsg22
S'true'
p889
sg24
Nsg25
Nsg26
S'ERYTHROMYCIN'
p890
sg28
Nsg29
S'Increase_Interaction'
p891
sg31
Nsg32
Nsg33
Nsg34
Nsg35
Nsg36
Nsg37
S'Digoxin'
p892
sa(dp893
g2
Nsg3
S'http://bio2rdf.org/drugbank:DB01023'
p894
sg5
S'http://bio2rdf.org/drugbank:DB00199'
p895
sg7
Nsg8
Nsg9
Nsg10
Nsg11
Nsg12
Nsg13
Nsg14
Nsg15
Nsg16
g17
sg18
Nsg19
Nsg20
Nsg21
Nsg22
S'true'
p896
sg24
Nsg25
Nsg26
S'ERYTHROMYCIN'
p897
sg28
Nsg29
S'Increase_Interaction'
p898
sg31
Nsg32
Nsg33
Nsg34
Nsg35
Nsg36
Nsg37
S'Felodipine'
p899
sa(dp900
g2
Nsg3
S'http://bio2rdf.org/drugbank:DB00678'
p901
sg5
S'http://bio2rdf.org/drugbank:DB00199'
p902
sg7
Nsg8
Nsg9
Nsg10
Nsg11
Nsg12
Nsg13
Nsg14
Nsg15
Nsg16
g17
sg18
Nsg19
Nsg20
Nsg21
Nsg22
S'true'
p903
sg24
Nsg25
Nsg26
S'ERYTHROMYCIN'
p904
sg28
Nsg29
S'Increase_Interaction'
p905
sg31
Nsg32
Nsg33
Nsg34
Nsg35
Nsg36
Nsg37
S'Losartan'
p906
sa(dp907
g2
Nsg3
S'http://bio2rdf.org/drugbank:DB06228'
p908
sg5
S'http://bio2rdf.org/drugbank:DB00199'
p909
sg7
Nsg8
Nsg9
Nsg10
Nsg11
Nsg12
Nsg13
Nsg14
Nsg15
Nsg16
g17
sg18
Nsg19
Nsg20
Nsg21
Nsg22
S'true'
p910
sg24
Nsg25
Nsg26
S'ERYTHROMYCIN'
p911
sg28
Nsg29
S'Increase_Interaction'
p912
sg31
Nsg32
Nsg33
Nsg34
Nsg35
Nsg36
Nsg37
S'RIVAROXABAN'
p913
sa(dp914
g2
Nsg3
S'http://bio2rdf.org/drugbank:DB06228'
p915
sg5
S'http://bio2rdf.org/drugbank:DB00199'
p916
sg7
Nsg8
Nsg9
Nsg10
Nsg11
Nsg12
Nsg13
Nsg14
Nsg15
Nsg16
g17
sg18
Nsg19
Nsg20
Nsg21
Nsg22
S'true'
p917
sg24
Nsg25
Nsg26
S'ERYTHROMYCIN'
p918
sg28
Nsg29
S'Specific_Interaction'
p919
sg31
Nsg32
Nsg33
Nsg34
Nsg35
Nsg36
Nsg37
S'RIVAROXABAN'
p920
sa(dp921
g2
Nsg3
S'http://bio2rdf.org/drugbank:DB00661'
p922
sg5
S'http://bio2rdf.org/drugbank:DB00199'
p923
sg7
Nsg8
Nsg9
Nsg10
Nsg11
Nsg12
Nsg13
Nsg14
Nsg15
Nsg16
g17
sg18
Nsg19
Nsg20
Nsg21
Nsg22
S'true'
p924
sg24
Nsg25
Nsg26
S'Erythromycin'
p925
sg28
Nsg29
S'Increase_Interaction'
p926
sg31
Nsg32
Nsg33
Nsg34
Nsg35
Nsg36
Nsg37
S'Verapamil'
p927
sa(dp928
g2
Nsg3
S'http://bio2rdf.org/drugbank:DB00390'
p929
sg5
S'http://bio2rdf.org/drugbank:DB00187'
p930
sg7
Nsg8
Nsg9
Nsg10
Nsg11
Nsg12
Nsg13
Nsg14
Nsg15
Nsg16
g17
sg18
Nsg19
Nsg20
Nsg21
Nsg22
S'true'
p931
sg24
Nsg25
Nsg26
S'Esmolol'
p932
sg28
Nsg29
S'Increase_Interaction'
p933
sg31
Nsg32
Nsg33
Nsg34
Nsg35
Nsg36
Nsg37
S'Digoxin'
p934
sa(dp935
g2
Nsg3
S'http://bio2rdf.org/drugbank:DB00695'
p936
sg5
S'http://bio2rdf.org/drugbank:DB00187'
p937
sg7
Nsg8
Nsg9
Nsg10
Nsg11
Nsg12
Nsg13
Nsg14
Nsg15
Nsg16
g17
sg18
Nsg19
Nsg20
Nsg21
Nsg22
S'true'
p938
sg24
Nsg25
Nsg26
S'Esmolol'
p939
sg28
Nsg29
S'Caution_Interaction'
p940
sg31
Nsg32
Nsg33
Nsg34
Nsg35
Nsg36
Nsg37
S'Furosemide'
p941
sa(dp942
g2
Nsg3
S'http://bio2rdf.org/drugbank:DB00202'
p943
sg5
S'http://bio2rdf.org/drugbank:DB00187'
p944
sg7
Nsg8
Nsg9
Nsg10
Nsg11
Nsg12
Nsg13
Nsg14
Nsg15
Nsg16
g17
sg18
Nsg19
Nsg20
Nsg21
Nsg22
S'true'
p945
sg24
Nsg25
Nsg26
S'Esmolol'
p946
sg28
Nsg29
S'Specific_Interaction'
p947
sg31
Nsg32
Nsg33
Nsg34
Nsg35
Nsg36
Nsg37
S'SUCCINYLCHOLINE'
p948
sa(dp949
g2
Nsg3
S'http://bio2rdf.org/drugbank:DB00758'
p950
sg5
S'http://bio2rdf.org/drugbank:DB00736'
p951
sg7
Nsg8
Nsg9
Nsg10
Nsg11
Nsg12
Nsg13
Nsg14
Nsg15
Nsg16
g17
sg18
Nsg19
Nsg20
Nsg21
Nsg22
S'true'
p952
sg24
Nsg25
Nsg26
S'ESOMEPRAZOLE'
p953
sg28
Nsg29
S'Specific_Interaction'
p954
sg31
Nsg32
Nsg33
Nsg34
Nsg35
Nsg36
Nsg37
S'Clopidogrel'
p955
sa(dp956
g2
Nsg3
S'http://bio2rdf.org/drugbank:DB00945'
p957
sg5
S'http://bio2rdf.org/drugbank:DB00898'
p958
sg7
Nsg8
Nsg9
Nsg10
Nsg11
Nsg12
Nsg13
Nsg14
Nsg15
Nsg16
g17
sg18
Nsg19
Nsg20
Nsg21
Nsg22
S'true'
p959
sg24
Nsg25
Nsg26
S'ETHANOL'
p960
sg28
Nsg29
S'Specific_Interaction'
p961
sg31
Nsg32
Nsg33
Nsg34
Nsg35
Nsg36
Nsg37
S'ACETYLSALICYLIC ACID'
p962
sa(dp963
g2
Nsg3
S'http://bio2rdf.org/drugbank:DB00864'
p964
sg5
S'http://bio2rdf.org/drugbank:DB01023'
p965
sg7
Nsg8
Nsg9
Nsg10
Nsg11
Nsg12
Nsg13
Nsg14
Nsg15
Nsg16
g17
sg18
Nsg19
Nsg20
Nsg21
Nsg22
S'true'
p966
sg24
Nsg25
Nsg26
S'Felodipine'
p967
sg28
Nsg29
S'Caution_Interaction'
p968
sg31
Nsg32
Nsg33
Nsg34
Nsg35
Nsg36
Nsg37
S'TACROLIMUS'
p969
sa(dp970
g2
Nsg3
S'http://bio2rdf.org/drugbank:DB00864'
p971
sg5
S'http://bio2rdf.org/drugbank:DB01023'
p972
sg7
Nsg8
Nsg9
Nsg10
Nsg11
Nsg12
Nsg13
Nsg14
Nsg15
Nsg16
g17
sg18
Nsg19
Nsg20
Nsg21
Nsg22
S'true'
p973
sg24
Nsg25
Nsg26
S'Felodipine'
p974
sg28
Nsg29
S'Increase_Interaction'
p975
sg31
Nsg32
Nsg33
Nsg34
Nsg35
Nsg36
Nsg37
S'TACROLIMUS'
p976
sa(dp977
g2
Nsg3
S'http://bio2rdf.org/drugbank:DB01118'
p978
sg5
S'http://bio2rdf.org/drugbank:DB00813'
p979
sg7
Nsg8
Nsg9
Nsg10
Nsg11
Nsg12
Nsg13
Nsg14
Nsg15
Nsg16
g17
sg18
Nsg19
Nsg20
Nsg21
Nsg22
S'true'
p980
sg24
Nsg25
Nsg26
S'FENTANYL'
p981
sg28
Nsg29
S'Specific_Interaction'
p982
sg31
Nsg32
Nsg33
Nsg34
Nsg35
Nsg36
Nsg37
S'AMIODARONE'
p983
sa(dp984
g2
Nsg3
S'http://bio2rdf.org/drugbank:DB00678'
p985
sg5
S'http://bio2rdf.org/drugbank:DB00196'
p986
sg7
Nsg8
Nsg9
Nsg10
Nsg11
Nsg12
Nsg13
Nsg14
Nsg15
Nsg16
g17
sg18
Nsg19
Nsg20
Nsg21
Nsg22
S'true'
p987
sg24
Nsg25
Nsg26
S'Fluconazole'
p988
sg28
Nsg29
S'Increase_Interaction'
p989
sg31
Nsg32
Nsg33
Nsg34
Nsg35
Nsg36
Nsg37
S'Losartan'
p990
sa(dp991
g2
Nsg3
S'http://bio2rdf.org/drugbank:DB06228'
p992
sg5
S'http://bio2rdf.org/drugbank:DB00196'
p993
sg7
Nsg8
Nsg9
Nsg10
Nsg11
Nsg12
Nsg13
Nsg14
Nsg15
Nsg16
g17
sg18
Nsg19
Nsg20
Nsg21
Nsg22
S'true'
p994
sg24
Nsg25
Nsg26
S'Fluconazole'
p995
sg28
Nsg29
S'Increase_Interaction'
p996
sg31
Nsg32
Nsg33
Nsg34
Nsg35
Nsg36
Nsg37
S'RIVAROXABAN'
p997
sa(dp998
g2
Nsg3
S'http://bio2rdf.org/drugbank:DB06228'
p999
sg5
S'http://bio2rdf.org/drugbank:DB00196'
p1000
sg7
Nsg8
Nsg9
Nsg10
Nsg11
Nsg12
Nsg13
Nsg14
Nsg15
Nsg16
g17
sg18
Nsg19
Nsg20
Nsg21
Nsg22
S'true'
p1001
sg24
Nsg25
Nsg26
S'Fluconazole'
p1002
sg28
Nsg29
S'Specific_Interaction'
p1003
sg31
Nsg32
Nsg33
Nsg34
Nsg35
Nsg36
Nsg37
S'RIVAROXABAN'
p1004
sa(dp1005
g2
Nsg3
S'http://bio2rdf.org/drugbank:DB00211'
p1006
sg5
S'http://bio2rdf.org/drugbank:DB00687'
p1007
sg7
Nsg8
Nsg9
Nsg10
Nsg11
Nsg12
Nsg13
Nsg14
Nsg15
Nsg16
g17
sg18
Nsg19
Nsg20
Nsg21
Nsg22
S'true'
p1008
sg24
Nsg25
Nsg26
S'Fludrocortisone'
p1009
sg28
Nsg29
S'Caution_Interaction'
p1010
sg31
Nsg32
Nsg33
Nsg34
Nsg35
Nsg36
Nsg37
S'Midodrine'
p1011
sa(dp1012
g2
Nsg3
S'http://bio2rdf.org/drugbank:DB01076'
p1013
sg5
S'http://bio2rdf.org/drugbank:DB01319'
p1014
sg7
Nsg8
Nsg9
Nsg10
Nsg11
Nsg12
Nsg13
Nsg14
Nsg15
Nsg16
g17
sg18
Nsg19
Nsg20
Nsg21
Nsg22
S'true'
p1015
sg24
Nsg25
Nsg26
S'Fosamprenavir'
p1016
sg28
Nsg29
S'Caution_Interaction'
p1017
sg31
Nsg32
Nsg33
Nsg34
Nsg35
Nsg36
Nsg37
S'ATORVASTATIN'
p1018
sa(dp1019
g2
Nsg3
S'http://bio2rdf.org/drugbank:DB00945'
p1020
sg5
S'http://bio2rdf.org/drugbank:DB00695'
p1021
sg7
Nsg8
Nsg9
Nsg10
Nsg11
Nsg12
Nsg13
Nsg14
Nsg15
Nsg16
g17
sg18
Nsg19
Nsg20
Nsg21
Nsg22
S'true'
p1022
sg24
Nsg25
Nsg26
S'Furosemide'
p1023
sg28
Nsg29
S'Specific_Interaction'
p1024
sg31
Nsg32
Nsg33
Nsg34
Nsg35
Nsg36
Nsg37
S'ACETYLSALICYLIC ACID'
p1025
sa(dp1026
g2
Nsg3
S'http://bio2rdf.org/drugbank:DB01563'
p1027
sg5
S'http://bio2rdf.org/drugbank:DB00695'
p1028
sg7
Nsg8
Nsg9
Nsg10
Nsg11
Nsg12
Nsg13
Nsg14
Nsg15
Nsg16
g17
sg18
Nsg19
Nsg20
Nsg21
Nsg22
S'true'
p1029
sg24
Nsg25
Nsg26
S'Furosemide'
p1030
sg28
Nsg29
S'Caution_Interaction'
p1031
sg31
Nsg32
Nsg33
Nsg34
Nsg35
Nsg36
Nsg37
S'CHLORAL HYDRATE'
p1032
sa(dp1033
g2
Nsg3
S'http://bio2rdf.org/drugbank:DB01285'
p1034
sg5
S'http://bio2rdf.org/drugbank:DB00695'
p1035
sg7
Nsg8
Nsg9
Nsg10
Nsg11
Nsg12
Nsg13
Nsg14
Nsg15
Nsg16
g17
sg18
Nsg19
Nsg20
Nsg21
Nsg22
S'true'
p1036
sg24
Nsg25
Nsg26
S'Furosemide'
p1037
sg28
Nsg29
S'Specific_Interaction'
p1038
sg31
Nsg32
Nsg33
Nsg34
Nsg35
Nsg36
Nsg37
S'Corticotropin'
p1039
sa(dp1040
g2
Nsg3
S'http://bio2rdf.org/drugbank:DB01240'
p1041
sg5
S'http://bio2rdf.org/drugbank:DB00695'
p1042
sg7
Nsg8
Nsg9
Nsg10
Nsg11
Nsg12
Nsg13
Nsg14
Nsg15
Nsg16
g17
sg18
Nsg19
Nsg20
Nsg21
Nsg22
S'true'
p1043
sg24
Nsg25
Nsg26
S'FUROSEMIDE'
p1044
sg28
Nsg29
S'Increase_Interaction'
p1045
sg31
Nsg32
Nsg33
Nsg34
Nsg35
Nsg36
Nsg37
S'Epoprostenol'
p1046
sa(dp1047
g2
Nsg3
S'http://bio2rdf.org/drugbank:DB00903'
p1048
sg5
S'http://bio2rdf.org/drugbank:DB00695'
p1049
sg7
Nsg8
Nsg9
Nsg10
Nsg11
Nsg12
Nsg13
Nsg14
Nsg15
Nsg16
g17
sg18
Nsg19
Nsg20
Nsg21
Nsg22
S'true'
p1050
sg24
Nsg25
Nsg26
S'Furosemide'
p1051
sg28
Nsg29
S'Specific_Interaction'
p1052
sg31
Nsg32
Nsg33
Nsg34
Nsg35
Nsg36
Nsg37
S'ETHACRYNIC ACID'
p1053
sa(dp1054
g2
Nsg3
S'http://bio2rdf.org/drugbank:DB00524'
p1055
sg5
S'http://bio2rdf.org/drugbank:DB00695'
p1056
sg7
Nsg8
Nsg9
Nsg10
Nsg11
Nsg12
Nsg13
Nsg14
Nsg15
Nsg16
g17
sg18
Nsg19
Nsg20
Nsg21
Nsg22
S'true'
p1057
sg24
Nsg25
Nsg26
S'Furosemide'
p1058
sg28
Nsg29
S'Specific_Interaction'
p1059
sg31
Nsg32
Nsg33
Nsg34
Nsg35
Nsg36
Nsg37
S'Metolazone'
p1060
sa(dp1061
g2
Nsg3
S'http://bio2rdf.org/drugbank:DB00368'
p1062
sg5
S'http://bio2rdf.org/drugbank:DB00695'
p1063
sg7
Nsg8
Nsg9
Nsg10
Nsg11
Nsg12
Nsg13
Nsg14
Nsg15
Nsg16
g17
sg18
Nsg19
Nsg20
Nsg21
Nsg22
S'true'
p1064
sg24
Nsg25
Nsg26
S'Furosemide'
p1065
sg28
Nsg29
S'Specific_Interaction'
p1066
sg31
Nsg32
Nsg33
Nsg34
Nsg35
Nsg36
Nsg37
S'NOREPINEPHRINE'
p1067
sa(dp1068
g2
Nsg3
S'http://bio2rdf.org/drugbank:DB00202'
p1069
sg5
S'http://bio2rdf.org/drugbank:DB00695'
p1070
sg7
Nsg8
Nsg9
Nsg10
Nsg11
Nsg12
Nsg13
Nsg14
Nsg15
Nsg16
g17
sg18
Nsg19
Nsg20
Nsg21
Nsg22
S'true'
p1071
sg24
Nsg25
Nsg26
S'Furosemide'
p1072
sg28
Nsg29
S'Increase_Interaction'
p1073
sg31
Nsg32
Nsg33
Nsg34
Nsg35
Nsg36
Nsg37
S'SUCCINYLCHOLINE'
p1074
sa(dp1075
g2
Nsg3
S'http://bio2rdf.org/drugbank:DB01199'
p1076
sg5
S'http://bio2rdf.org/drugbank:DB00695'
p1077
sg7
Nsg8
Nsg9
Nsg10
Nsg11
Nsg12
Nsg13
Nsg14
Nsg15
Nsg16
g17
sg18
Nsg19
Nsg20
Nsg21
Nsg22
S'true'
p1078
sg24
Nsg25
Nsg26
S'Furosemide'
p1079
sg28
Nsg29
S'Specific_Interaction'
p1080
sg31
Nsg32
Nsg33
Nsg34
Nsg35
Nsg36
Nsg37
S'TUBOCURARINE'
p1081
sa(dp1082
g2
Nsg3
S'http://bio2rdf.org/drugbank:DB00374'
p1083
sg5
S'http://bio2rdf.org/drugbank:DB01241'
p1084
sg7
Nsg8
Nsg9
Nsg10
Nsg11
Nsg12
Nsg13
Nsg14
Nsg15
Nsg16
g17
sg18
Nsg19
Nsg20
Nsg21
Nsg22
S'true'
p1085
sg24
Nsg25
Nsg26
S'GEMFIBROZIL'
p1086
sg28
Nsg29
S'Increase_Interaction'
p1087
sg31
Nsg32
Nsg33
Nsg34
Nsg35
Nsg36
Nsg37
S'Treprostinil'
p1088
sa(dp1089
g2
Nsg3
S'http://bio2rdf.org/drugbank:DB00559'
p1090
sg5
S'http://bio2rdf.org/drugbank:DB01016'
p1091
sg7
Nsg8
Nsg9
Nsg10
Nsg11
Nsg12
Nsg13
Nsg14
Nsg15
Nsg16
g17
sg18
Nsg19
Nsg20
Nsg21
Nsg22
S'true'
p1092
sg24
Nsg25
Nsg26
S'GLYBURIDE'
p1093
sg28
Nsg29
S'Caution_Interaction'
p1094
sg31
Nsg32
Nsg33
Nsg34
Nsg35
Nsg36
Nsg37
S'Bosentan'
p1095
sa(dp1096
g2
Nsg3
S'http://bio2rdf.org/drugbank:DB00559'
p1097
sg5
S'http://bio2rdf.org/drugbank:DB01016'
p1098
sg7
Nsg8
Nsg9
Nsg10
Nsg11
Nsg12
Nsg13
Nsg14
Nsg15
Nsg16
g17
sg18
Nsg19
Nsg20
Nsg21
Nsg22
S'true'
p1099
sg24
Nsg25
Nsg26
S'GLYBURIDE'
p1100
sg28
Nsg29
S'Specific_Interaction'
p1101
sg31
Nsg32
Nsg33
Nsg34
Nsg35
Nsg36
Nsg37
S'BOSENTAN'
p1102
sa(dp1103
g2
Nsg3
S'http://bio2rdf.org/drugbank:DB00999'
p1104
sg5
S'http://bio2rdf.org/drugbank:DB00629'
p1105
sg7
Nsg8
Nsg9
Nsg10
Nsg11
Nsg12
Nsg13
Nsg14
Nsg15
Nsg16
g17
sg18
Nsg19
Nsg20
Nsg21
Nsg22
S'true'
p1106
sg24
Nsg25
Nsg26
S'GUANABENZ'
p1107
sg28
Nsg29
S'Increase_Interaction'
p1108
sg31
Nsg32
Nsg33
Nsg34
Nsg35
Nsg36
Nsg37
S'HYDROCHLOROTHIAZIDE'
p1109
sa(dp1110
g2
Nsg3
S'http://bio2rdf.org/drugbank:DB00908'
p1111
sg5
S'http://bio2rdf.org/drugbank:DB00502'
p1112
sg7
Nsg8
Nsg9
Nsg10
Nsg11
Nsg12
Nsg13
Nsg14
Nsg15
Nsg16
g17
sg18
Nsg19
Nsg20
Nsg21
Nsg22
S'true'
p1113
sg24
Nsg25
Nsg26
S'HALOPERIDOL'
p1114
sg28
Nsg29
S'Increase_Interaction'
p1115
sg31
Nsg32
Nsg33
Nsg34
Nsg35
Nsg36
Nsg37
S'QUINIDINE'
p1116
sa(dp1117
g2
Nsg3
S'http://bio2rdf.org/drugbank:DB00681'
p1118
sg5
S'http://bio2rdf.org/drugbank:DB00999'
p1119
sg7
Nsg8
Nsg9
Nsg10
Nsg11
Nsg12
Nsg13
Nsg14
Nsg15
Nsg16
g17
sg18
Nsg19
Nsg20
Nsg21
Nsg22
S'true'
p1120
sg24
Nsg25
Nsg26
S'HYDROCHLOROTHIAZIDE'
p1121
sg28
Nsg29
S'Specific_Interaction'
p1122
sg31
Nsg32
Nsg33
Nsg34
Nsg35
Nsg36
Nsg37
S'Amphotericin B'
p1123
sa(dp1124
g2
Nsg3
S'http://bio2rdf.org/drugbank:DB00204'
p1125
sg5
S'http://bio2rdf.org/drugbank:DB00999'
p1126
sg7
Nsg8
Nsg9
Nsg10
Nsg11
Nsg12
Nsg13
Nsg14
Nsg15
Nsg16
g17
sg18
Nsg19
Nsg20
Nsg21
Nsg22
S'true'
p1127
sg24
Nsg25
Nsg26
S'Hydrochlorothiazide'
p1128
sg28
Nsg29
S'Increase_Interaction'
p1129
sg31
Nsg32
Nsg33
Nsg34
Nsg35
Nsg36
Nsg37
S'Dofetilide'
p1130
sa(dp1131
g2
Nsg3
S'http://bio2rdf.org/drugbank:DB00968'
p1132
sg5
S'http://bio2rdf.org/drugbank:DB00999'
p1133
sg7
Nsg8
Nsg9
Nsg10
Nsg11
Nsg12
Nsg13
Nsg14
Nsg15
Nsg16
g17
sg18
Nsg19
Nsg20
Nsg21
Nsg22
S'true'
p1134
sg24
Nsg25
Nsg26
S'HYDROCHLOROTHIAZIDE'
p1135
sg28
Nsg29
S'Specific_Interaction'
p1136
sg31
Nsg32
Nsg33
Nsg34
Nsg35
Nsg36
Nsg37
S'METHYLDOPA'
p1137
sa(dp1138
g2
Nsg3
S'http://bio2rdf.org/drugbank:DB00368'
p1139
sg5
S'http://bio2rdf.org/drugbank:DB00999'
p1140
sg7
Nsg8
Nsg9
Nsg10
Nsg11
Nsg12
Nsg13
Nsg14
Nsg15
Nsg16
g17
sg18
Nsg19
Nsg20
Nsg21
Nsg22
S'true'
p1141
sg24
Nsg25
Nsg26
S'HYDROCHLOROTHIAZIDE'
p1142
sg28
Nsg29
S'Specific_Interaction'
p1143
sg31
Nsg32
Nsg33
Nsg34
Nsg35
Nsg36
Nsg37
S'NOREPINEPHRINE'
p1144
sa(dp1145
g2
Nsg3
S'http://bio2rdf.org/drugbank:DB01118'
p1146
sg5
S'http://bio2rdf.org/drugbank:DB00224'
p1147
sg7
Nsg8
Nsg9
Nsg10
Nsg11
Nsg12
Nsg13
Nsg14
Nsg15
Nsg16
g17
sg18
Nsg19
Nsg20
Nsg21
Nsg22
S'true'
p1148
sg24
Nsg25
Nsg26
S'INDINAVIR'
p1149
sg28
Nsg29
S'Increase_Interaction'
p1150
sg31
Nsg32
Nsg33
Nsg34
Nsg35
Nsg36
Nsg37
S'AMIODARONE'
p1151
sa(dp1152
g2
Nsg3
S'http://bio2rdf.org/drugbank:DB00390'
p1153
sg5
S'http://bio2rdf.org/drugbank:DB00328'
p1154
sg7
Nsg8
Nsg9
Nsg10
Nsg11
Nsg12
Nsg13
Nsg14
Nsg15
Nsg16
g17
sg18
Nsg19
Nsg20
Nsg21
Nsg22
S'true'
p1155
sg24
Nsg25
Nsg26
S'INDOMETHACIN'
p1156
sg28
Nsg29
S'Increase_Interaction'
p1157
sg31
Nsg32
Nsg33
Nsg34
Nsg35
Nsg36
Nsg37
S'Digoxin'
p1158
sa(dp1159
g2
Nsg3
S'http://bio2rdf.org/drugbank:DB00695'
p1160
sg5
S'http://bio2rdf.org/drugbank:DB00328'
p1161
sg7
Nsg8
Nsg9
Nsg10
Nsg11
Nsg12
Nsg13
Nsg14
Nsg15
Nsg16
g17
sg18
Nsg19
Nsg20
Nsg21
Nsg22
S'true'
p1162
sg24
Nsg25
Nsg26
S'INDOMETHACIN'
p1163
sg28
Nsg29
S'Caution_Interaction'
p1164
sg31
Nsg32
Nsg33
Nsg34
Nsg35
Nsg36
Nsg37
S'Furosemide'
p1165
sa(dp1166
g2
Nsg3
S'http://bio2rdf.org/drugbank:DB00695'
p1167
sg5
S'http://bio2rdf.org/drugbank:DB00328'
p1168
sg7
Nsg8
Nsg9
Nsg10
Nsg11
Nsg12
Nsg13
Nsg14
Nsg15
Nsg16
g17
sg18
Nsg19
Nsg20
Nsg21
Nsg22
S'true'
p1169
sg24
Nsg25
Nsg26
S'INDOMETHACIN'
p1170
sg28
Nsg29
S'Specific_Interaction'
p1171
sg31
Nsg32
Nsg33
Nsg34
Nsg35
Nsg36
Nsg37
S'Furosemide'
p1172
sa(dp1173
g2
Nsg3
S'http://bio2rdf.org/drugbank:DB00384'
p1174
sg5
S'http://bio2rdf.org/drugbank:DB00328'
p1175
sg7
Nsg8
Nsg9
Nsg10
Nsg11
Nsg12
Nsg13
Nsg14
Nsg15
Nsg16
g17
sg18
Nsg19
Nsg20
Nsg21
Nsg22
S'true'
p1176
sg24
Nsg25
Nsg26
S'INDOMETHACIN'
p1177
sg28
Nsg29
S'Specific_Interaction'
p1178
sg31
Nsg32
Nsg33
Nsg34
Nsg35
Nsg36
Nsg37
S'Triamterene'
p1179
sa(dp1180
g2
Nsg3
S'http://bio2rdf.org/drugbank:DB00999'
p1181
sg5
S'http://bio2rdf.org/drugbank:DB01029'
p1182
sg7
Nsg8
Nsg9
Nsg10
Nsg11
Nsg12
Nsg13
Nsg14
Nsg15
Nsg16
g17
sg18
Nsg19
Nsg20
Nsg21
Nsg22
S'true'
p1183
sg24
Nsg25
Nsg26
S'Irbesartan'
p1184
sg28
Nsg29
S'Specific_Interaction'
p1185
sg31
Nsg32
Nsg33
Nsg34
Nsg35
Nsg36
Nsg37
S'HYDROCHLOROTHIAZIDE'
p1186
sa(dp1187
g2
Nsg3
S'http://bio2rdf.org/drugbank:DB01115'
p1188
sg5
S'http://bio2rdf.org/drugbank:DB01029'
p1189
sg7
Nsg8
Nsg9
Nsg10
Nsg11
Nsg12
Nsg13
Nsg14
Nsg15
Nsg16
g17
sg18
Nsg19
Nsg20
Nsg21
Nsg22
S'true'
p1190
sg24
Nsg25
Nsg26
S'Irbesartan'
p1191
sg28
Nsg29
S'Specific_Interaction'
p1192
sg31
Nsg32
Nsg33
Nsg34
Nsg35
Nsg36
Nsg37
S'NIFEDIPINE'
p1193
sa(dp1194
g2
Nsg3
S'http://bio2rdf.org/drugbank:DB01124'
p1195
sg5
S'http://bio2rdf.org/drugbank:DB01029'
p1196
sg7
Nsg8
Nsg9
Nsg10
Nsg11
Nsg12
Nsg13
Nsg14
Nsg15
Nsg16
g17
sg18
Nsg19
Nsg20
Nsg21
Nsg22
S'true'
p1197
sg24
Nsg25
Nsg26
S'Irbesartan'
p1198
sg28
Nsg29
S'Specific_Interaction'
p1199
sg31
Nsg32
Nsg33
Nsg34
Nsg35
Nsg36
Nsg37
S'TOLBUTAMIDE'
p1200
sa(dp1201
g2
Nsg3
S'http://bio2rdf.org/drugbank:DB00551'
p1202
sg5
S'http://bio2rdf.org/drugbank:DB01592'
p1203
sg7
Nsg8
Nsg9
Nsg10
Nsg11
Nsg12
Nsg13
Nsg14
Nsg15
Nsg16
g17
sg18
Nsg19
Nsg20
Nsg21
Nsg22
S'true'
p1204
sg24
Nsg25
Nsg26
S'Iron'
p1205
sg28
Nsg29
S'Specific_Interaction'
p1206
sg31
Nsg32
Nsg33
Nsg34
Nsg35
Nsg36
Nsg37
S'Acetohydroxamic Acid'
p1207
sa(dp1208
g2
Nsg3
S'http://bio2rdf.org/drugbank:DB00203'
p1209
sg5
S'http://bio2rdf.org/drugbank:DB01020'
p1210
sg7
Nsg8
Nsg9
Nsg10
Nsg11
Nsg12
Nsg13
Nsg14
Nsg15
Nsg16
g17
sg18
Nsg19
Nsg20
Nsg21
Nsg22
S'true'
p1211
sg24
Nsg25
Nsg26
S'Isosorbide Mononitrate'
p1212
sg28
Nsg29
S'Specific_Interaction'
p1213
sg31
Nsg32
Nsg33
Nsg34
Nsg35
Nsg36
Nsg37
S'Sildenafil'
p1214
sa(dp1215
g2
Nsg3
S'http://bio2rdf.org/drugbank:DB00559'
p1216
sg5
S'http://bio2rdf.org/drugbank:DB01026'
p1217
sg7
Nsg8
Nsg9
Nsg10
Nsg11
Nsg12
Nsg13
Nsg14
Nsg15
Nsg16
g17
sg18
Nsg19
Nsg20
Nsg21
Nsg22
S'true'
p1218
sg24
Nsg25
Nsg26
S'Ketoconazole'
p1219
sg28
Nsg29
S'Increase_Interaction'
p1220
sg31
Nsg32
Nsg33
Nsg34
Nsg35
Nsg36
Nsg37
S'BOSENTAN'
p1221
sa(dp1222
g2
Nsg3
S'http://bio2rdf.org/drugbank:DB00872'
p1223
sg5
S'http://bio2rdf.org/drugbank:DB01026'
p1224
sg7
Nsg8
Nsg9
Nsg10
Nsg11
Nsg12
Nsg13
Nsg14
Nsg15
Nsg16
g17
sg18
Nsg19
Nsg20
Nsg21
Nsg22
S'true'
p1225
sg24
Nsg25
Nsg26
S'Ketoconazole'
p1226
sg28
Nsg29
S'Increase_Interaction'
p1227
sg31
Nsg32
Nsg33
Nsg34
Nsg35
Nsg36
Nsg37
S'CONIVAPTAN'
p1228
sa(dp1229
g2
Nsg3
S'http://bio2rdf.org/drugbank:DB00204'
p1230
sg5
S'http://bio2rdf.org/drugbank:DB01026'
p1231
sg7
Nsg8
Nsg9
Nsg10
Nsg11
Nsg12
Nsg13
Nsg14
Nsg15
Nsg16
g17
sg18
Nsg19
Nsg20
Nsg21
Nsg22
S'true'
p1232
sg24
Nsg25
Nsg26
S'Ketoconazole'
p1233
sg28
Nsg29
S'Caution_Interaction'
p1234
sg31
Nsg32
Nsg33
Nsg34
Nsg35
Nsg36
Nsg37
S'Dofetilide'
p1235
sa(dp1236
g2
Nsg3
S'http://bio2rdf.org/drugbank:DB00204'
p1237
sg5
S'http://bio2rdf.org/drugbank:DB01026'
p1238
sg7
Nsg8
Nsg9
Nsg10
Nsg11
Nsg12
Nsg13
Nsg14
Nsg15
Nsg16
g17
sg18
Nsg19
Nsg20
Nsg21
Nsg22
S'true'
p1239
sg24
Nsg25
Nsg26
S'Ketoconazole'
p1240
sg28
Nsg29
S'Increase_Interaction'
p1241
sg31
Nsg32
Nsg33
Nsg34
Nsg35
Nsg36
Nsg37
S'Dofetilide'
p1242
sa(dp1243
g2
Nsg3
S'http://bio2rdf.org/drugbank:DB00204'
p1244
sg5
S'http://bio2rdf.org/drugbank:DB01026'
p1245
sg7
Nsg8
Nsg9
Nsg10
Nsg11
Nsg12
Nsg13
Nsg14
Nsg15
Nsg16
g17
sg18
Nsg19
Nsg20
Nsg21
Nsg22
S'true'
p1246
sg24
Nsg25
Nsg26
S'Ketoconazole'
p1247
sg28
Nsg29
S'Specific_Interaction'
p1248
sg31
Nsg32
Nsg33
Nsg34
Nsg35
Nsg36
Nsg37
S'Dofetilide'
p1249
sa(dp1250
g2
Nsg3
S'http://bio2rdf.org/drugbank:DB00700'
p1251
sg5
S'http://bio2rdf.org/drugbank:DB01026'
p1252
sg7
Nsg8
Nsg9
Nsg10
Nsg11
Nsg12
Nsg13
Nsg14
Nsg15
Nsg16
g17
sg18
Nsg19
Nsg20
Nsg21
Nsg22
S'true'
p1253
sg24
Nsg25
Nsg26
S'Ketoconazole'
p1254
sg28
Nsg29
S'Increase_Interaction'
p1255
sg31
Nsg32
Nsg33
Nsg34
Nsg35
Nsg36
Nsg37
S'Eplerenone'
p1256
sa(dp1257
g2
Nsg3
S'http://bio2rdf.org/drugbank:DB06228'
p1258
sg5
S'http://bio2rdf.org/drugbank:DB01026'
p1259
sg7
Nsg8
Nsg9
Nsg10
Nsg11
Nsg12
Nsg13
Nsg14
Nsg15
Nsg16
g17
sg18
Nsg19
Nsg20
Nsg21
Nsg22
S'true'
p1260
sg24
Nsg25
Nsg26
S'Ketoconazole'
p1261
sg28
Nsg29
S'Increase_Interaction'
p1262
sg31
Nsg32
Nsg33
Nsg34
Nsg35
Nsg36
Nsg37
S'RIVAROXABAN'
p1263
sa(dp1264
g2
Nsg3
S'http://bio2rdf.org/drugbank:DB06228'
p1265
sg5
S'http://bio2rdf.org/drugbank:DB01026'
p1266
sg7
Nsg8
Nsg9
Nsg10
Nsg11
Nsg12
Nsg13
Nsg14
Nsg15
Nsg16
g17
sg18
Nsg19
Nsg20
Nsg21
Nsg22
S'true'
p1267
sg24
Nsg25
Nsg26
S'Ketoconazole'
p1268
sg28
Nsg29
S'Specific_Interaction'
p1269
sg31
Nsg32
Nsg33
Nsg34
Nsg35
Nsg36
Nsg37
S'RIVAROXABAN'
p1270
sa(dp1271
g2
Nsg3
S'http://bio2rdf.org/drugbank:DB00727'
p1272
sg5
S'http://bio2rdf.org/drugbank:DB00598'
p1273
sg7
Nsg8
Nsg9
Nsg10
Nsg11
Nsg12
Nsg13
Nsg14
Nsg15
Nsg16
g17
sg18
Nsg19
Nsg20
Nsg21
Nsg22
S'true'
p1274
sg24
Nsg25
Nsg26
S'Labetalol'
p1275
sg28
Nsg29
S'Specific_Interaction'
p1276
sg31
Nsg32
Nsg33
Nsg34
Nsg35
Nsg36
Nsg37
S'Nitroglycerin'
p1277
sa(dp1278
g2
Nsg3
S'http://bio2rdf.org/drugbank:DB00758'
p1279
sg5
S'http://bio2rdf.org/drugbank:DB00448'
p1280
sg7
Nsg8
Nsg9
Nsg10
Nsg11
Nsg12
Nsg13
Nsg14
Nsg15
Nsg16
g17
sg18
Nsg19
Nsg20
Nsg21
Nsg22
S'true'
p1281
sg24
Nsg25
Nsg26
S'Lansoprazole'
p1282
sg28
Nsg29
S'Specific_Interaction'
p1283
sg31
Nsg32
Nsg33
Nsg34
Nsg35
Nsg36
Nsg37
S'Clopidogrel'
p1284
sa(dp1285
g2
Nsg3
S'http://bio2rdf.org/drugbank:DB00775'
p1286
sg5
S'http://bio2rdf.org/drugbank:DB00451'
p1287
sg7
Nsg8
Nsg9
Nsg10
Nsg11
Nsg12
Nsg13
Nsg14
Nsg15
Nsg16
g17
sg18
Nsg19
Nsg20
Nsg21
Nsg22
S'true'
p1288
sg24
Nsg25
Nsg26
S'Levothyroxine'
p1289
sg28
Nsg29
S'Decrease_Interaction'
p1290
sg31
Nsg32
Nsg33
Nsg34
Nsg35
Nsg36
Nsg37
S'Tirofiban'
p1291
sa(dp1292
g2
Nsg3
S'http://bio2rdf.org/drugbank:DB00328'
p1293
sg5
S'http://bio2rdf.org/drugbank:DB00722'
p1294
sg7
Nsg8
Nsg9
Nsg10
Nsg11
Nsg12
Nsg13
Nsg14
Nsg15
Nsg16
g17
sg18
Nsg19
Nsg20
Nsg21
Nsg22
S'true'
p1295
sg24
Nsg25
Nsg26
S'Lisinopril'
p1296
sg28
Nsg29
S'Decrease_Interaction'
p1297
sg31
Nsg32
Nsg33
Nsg34
Nsg35
Nsg36
Nsg37
S'INDOMETHACIN'
p1298
sa(dp1299
g2
Nsg3
S'http://bio2rdf.org/drugbank:DB01356'
p1300
sg5
S'http://bio2rdf.org/drugbank:DB00722'
p1301
sg7
Nsg8
Nsg9
Nsg10
Nsg11
Nsg12
Nsg13
Nsg14
Nsg15
Nsg16
g17
sg18
Nsg19
Nsg20
Nsg21
Nsg22
S'true'
p1302
sg24
Nsg25
Nsg26
S'Lisinopril'
p1303
sg28
Nsg29
S'Caution_Interaction'
p1304
sg31
Nsg32
Nsg33
Nsg34
Nsg35
Nsg36
Nsg37
S'LITHIUM'
p1305
sa(dp1306
g2
Nsg3
S'http://bio2rdf.org/drugbank:DB00542'
p1307
sg5
S'http://bio2rdf.org/drugbank:DB01356'
p1308
sg7
Nsg8
Nsg9
Nsg10
Nsg11
Nsg12
Nsg13
Nsg14
Nsg15
Nsg16
g17
sg18
Nsg19
Nsg20
Nsg21
Nsg22
S'true'
p1309
sg24
Nsg25
Nsg26
S'LITHIUM'
p1310
sg28
Nsg29
S'Caution_Interaction'
p1311
sg31
Nsg32
Nsg33
Nsg34
Nsg35
Nsg36
Nsg37
S'Benazepril'
p1312
sa(dp1313
g2
Nsg3
S'http://bio2rdf.org/drugbank:DB00796'
p1314
sg5
S'http://bio2rdf.org/drugbank:DB01356'
p1315
sg7
Nsg8
Nsg9
Nsg10
Nsg11
Nsg12
Nsg13
Nsg14
Nsg15
Nsg16
g17
sg18
Nsg19
Nsg20
Nsg21
Nsg22
S'true'
p1316
sg24
Nsg25
Nsg26
S'LITHIUM'
p1317
sg28
Nsg29
S'Increase_Interaction'
p1318
sg31
Nsg32
Nsg33
Nsg34
Nsg35
Nsg36
Nsg37
S'Candesartan'
p1319
sa(dp1320
g2
Nsg3
S'http://bio2rdf.org/drugbank:DB00584'
p1321
sg5
S'http://bio2rdf.org/drugbank:DB01356'
p1322
sg7
Nsg8
Nsg9
Nsg10
Nsg11
Nsg12
Nsg13
Nsg14
Nsg15
Nsg16
g17
sg18
Nsg19
Nsg20
Nsg21
Nsg22
S'true'
p1323
sg24
Nsg25
Nsg26
S'LITHIUM'
p1324
sg28
Nsg29
S'Increase_Interaction'
p1325
sg31
Nsg32
Nsg33
Nsg34
Nsg35
Nsg36
Nsg37
S'ENALAPRIL'
p1326
sa(dp1327
g2
Nsg3
S'http://bio2rdf.org/drugbank:DB00966'
p1328
sg5
S'http://bio2rdf.org/drugbank:DB01356'
p1329
sg7
Nsg8
Nsg9
Nsg10
Nsg11
Nsg12
Nsg13
Nsg14
Nsg15
Nsg16
g17
sg18
Nsg19
Nsg20
Nsg21
Nsg22
S'true'
p1330
sg24
Nsg25
Nsg26
S'LITHIUM'
p1331
sg28
Nsg29
S'Caution_Interaction'
p1332
sg31
Nsg32
Nsg33
Nsg34
Nsg35
Nsg36
Nsg37
S'Telmisartan'
p1333
sa(dp1334
g2
Nsg3
S'http://bio2rdf.org/drugbank:DB00661'
p1335
sg5
S'http://bio2rdf.org/drugbank:DB01356'
p1336
sg7
Nsg8
Nsg9
Nsg10
Nsg11
Nsg12
Nsg13
Nsg14
Nsg15
Nsg16
g17
sg18
Nsg19
Nsg20
Nsg21
Nsg22
S'true'
p1337
sg24
Nsg25
Nsg26
S'LITHIUM'
p1338
sg28
Nsg29
S'Specific_Interaction'
p1339
sg31
Nsg32
Nsg33
Nsg34
Nsg35
Nsg36
Nsg37
S'Verapamil'
p1340
sa(dp1341
g2
Nsg3
S'http://bio2rdf.org/drugbank:DB01076'
p1342
sg5
S'http://bio2rdf.org/drugbank:DB01601'
p1343
sg7
Nsg8
Nsg9
Nsg10
Nsg11
Nsg12
Nsg13
Nsg14
Nsg15
Nsg16
g17
sg18
Nsg19
Nsg20
Nsg21
Nsg22
S'true'
p1344
sg24
Nsg25
Nsg26
S'Lopinavir'
p1345
sg28
Nsg29
S'Caution_Interaction'
p1346
sg31
Nsg32
Nsg33
Nsg34
Nsg35
Nsg36
Nsg37
S'ATORVASTATIN'
p1347
sa(dp1348
g2
Nsg3
S'http://bio2rdf.org/drugbank:DB01118'
p1349
sg5
S'http://bio2rdf.org/drugbank:DB00455'
p1350
sg7
Nsg8
Nsg9
Nsg10
Nsg11
Nsg12
Nsg13
Nsg14
Nsg15
Nsg16
g17
sg18
Nsg19
Nsg20
Nsg21
Nsg22
S'true'
p1351
sg24
Nsg25
Nsg26
S'LORATADINE'
p1352
sg28
Nsg29
S'Specific_Interaction'
p1353
sg31
Nsg32
Nsg33
Nsg34
Nsg35
Nsg36
Nsg37
S'AMIODARONE'
p1354
sa(dp1355
g2
Nsg3
S'http://bio2rdf.org/drugbank:DB00999'
p1356
sg5
S'http://bio2rdf.org/drugbank:DB00678'
p1357
sg7
Nsg8
Nsg9
Nsg10
Nsg11
Nsg12
Nsg13
Nsg14
Nsg15
Nsg16
g17
sg18
Nsg19
Nsg20
Nsg21
Nsg22
S'true'
p1358
sg24
Nsg25
Nsg26
S'Losartan'
p1359
sg28
Nsg29
S'Specific_Interaction'
p1360
sg31
Nsg32
Nsg33
Nsg34
Nsg35
Nsg36
Nsg37
S'HYDROCHLOROTHIAZIDE'
p1361
sa(dp1362
g2
Nsg3
S'http://bio2rdf.org/drugbank:DB01045'
p1363
sg5
S'http://bio2rdf.org/drugbank:DB00678'
p1364
sg7
Nsg8
Nsg9
Nsg10
Nsg11
Nsg12
Nsg13
Nsg14
Nsg15
Nsg16
g17
sg18
Nsg19
Nsg20
Nsg21
Nsg22
S'true'
p1365
sg24
Nsg25
Nsg26
S'Losartan'
p1366
sg28
Nsg29
S'Decrease_Interaction'
p1367
sg31
Nsg32
Nsg33
Nsg34
Nsg35
Nsg36
Nsg37
S'RIFAMPICIN'
p1368
sa(dp1369
g2
Nsg3
S'http://bio2rdf.org/drugbank:DB00390'
p1370
sg5
S'http://bio2rdf.org/drugbank:DB01233'
p1371
sg7
Nsg8
Nsg9
Nsg10
Nsg11
Nsg12
Nsg13
Nsg14
Nsg15
Nsg16
g17
sg18
Nsg19
Nsg20
Nsg21
Nsg22
S'true'
p1372
sg24
Nsg25
Nsg26
S'Metoclopramide'
p1373
sg28
Nsg29
S'Decrease_Interaction'
p1374
sg31
Nsg32
Nsg33
Nsg34
Nsg35
Nsg36
Nsg37
S'Digoxin'
p1375
sa(dp1376
g2
Nsg3
S'http://bio2rdf.org/drugbank:DB00695'
p1377
sg5
S'http://bio2rdf.org/drugbank:DB00524'
p1378
sg7
Nsg8
Nsg9
Nsg10
Nsg11
Nsg12
Nsg13
Nsg14
Nsg15
Nsg16
g17
sg18
Nsg19
Nsg20
Nsg21
Nsg22
S'true'
p1379
sg24
Nsg25
Nsg26
S'Metolazone'
p1380
sg28
Nsg29
S'Specific_Interaction'
p1381
sg31
Nsg32
Nsg33
Nsg34
Nsg35
Nsg36
Nsg37
S'Furosemide'
p1382
sa(dp1383
g2
Nsg3
S'http://bio2rdf.org/drugbank:DB00368'
p1384
sg5
S'http://bio2rdf.org/drugbank:DB00524'
p1385
sg7
Nsg8
Nsg9
Nsg10
Nsg11
Nsg12
Nsg13
Nsg14
Nsg15
Nsg16
g17
sg18
Nsg19
Nsg20
Nsg21
Nsg22
S'true'
p1386
sg24
Nsg25
Nsg26
S'Metolazone'
p1387
sg28
Nsg29
S'Specific_Interaction'
p1388
sg31
Nsg32
Nsg33
Nsg34
Nsg35
Nsg36
Nsg37
S'NOREPINEPHRINE'
p1389
sa(dp1390
g2
Nsg3
S'http://bio2rdf.org/drugbank:DB00575'
p1391
sg5
S'http://bio2rdf.org/drugbank:DB00264'
p1392
sg7
Nsg8
Nsg9
Nsg10
Nsg11
Nsg12
Nsg13
Nsg14
Nsg15
Nsg16
g17
sg18
Nsg19
Nsg20
Nsg21
Nsg22
S'true'
p1393
sg24
Nsg25
Nsg26
S'Metoprolol'
p1394
sg28
Nsg29
S'Caution_Interaction'
p1395
sg31
Nsg32
Nsg33
Nsg34
Nsg35
Nsg36
Nsg37
S'Clonidine'
p1396
sa(dp1397
g2
Nsg3
S'http://bio2rdf.org/drugbank:DB00898'
p1398
sg5
S'http://bio2rdf.org/drugbank:DB00765'
p1399
sg7
Nsg8
Nsg9
Nsg10
Nsg11
Nsg12
Nsg13
Nsg14
Nsg15
Nsg16
g17
sg18
Nsg19
Nsg20
Nsg21
Nsg22
S'true'
p1400
sg24
Nsg25
Nsg26
S'Metyrosine'
p1401
sg28
Nsg29
S'Specific_Interaction'
p1402
sg31
Nsg32
Nsg33
Nsg34
Nsg35
Nsg36
Nsg37
S'Ethanol'
p1403
sa(dp1404
g2
Nsg3
S'http://bio2rdf.org/drugbank:DB00502'
p1405
sg5
S'http://bio2rdf.org/drugbank:DB00765'
p1406
sg7
Nsg8
Nsg9
Nsg10
Nsg11
Nsg12
Nsg13
Nsg14
Nsg15
Nsg16
g17
sg18
Nsg19
Nsg20
Nsg21
Nsg22
S'true'
p1407
sg24
Nsg25
Nsg26
S'Metyrosine'
p1408
sg28
Nsg29
S'Specific_Interaction'
p1409
sg31
Nsg32
Nsg33
Nsg34
Nsg35
Nsg36
Nsg37
S'HALOPERIDOL'
p1410
sa(dp1411
g2
Nsg3
S'http://bio2rdf.org/drugbank:DB00343'
p1412
sg5
S'http://bio2rdf.org/drugbank:DB00683'
p1413
sg7
Nsg8
Nsg9
Nsg10
Nsg11
Nsg12
Nsg13
Nsg14
Nsg15
Nsg16
g17
sg18
Nsg19
Nsg20
Nsg21
Nsg22
S'true'
p1414
sg24
Nsg25
Nsg26
S'MIDAZOLAM'
p1415
sg28
Nsg29
S'Increase_Interaction'
p1416
sg31
Nsg32
Nsg33
Nsg34
Nsg35
Nsg36
Nsg37
S'DILTIAZEM'
p1417
sa(dp1418
g2
Nsg3
S'http://bio2rdf.org/drugbank:DB00687'
p1419
sg5
S'http://bio2rdf.org/drugbank:DB00211'
p1420
sg7
Nsg8
Nsg9
Nsg10
Nsg11
Nsg12
Nsg13
Nsg14
Nsg15
Nsg16
g17
sg18
Nsg19
Nsg20
Nsg21
Nsg22
S'true'
p1421
sg24
Nsg25
Nsg26
S'Midodrine'
p1422
sg28
Nsg29
S'Caution_Interaction'
p1423
sg31
Nsg32
Nsg33
Nsg34
Nsg35
Nsg36
Nsg37
S'Fludrocortisone'
p1424
sa(dp1425
g2
Nsg3
S'http://bio2rdf.org/drugbank:DB00501'
p1426
sg5
S'http://bio2rdf.org/drugbank:DB01115'
p1427
sg7
Nsg8
Nsg9
Nsg10
Nsg11
Nsg12
Nsg13
Nsg14
Nsg15
Nsg16
g17
sg18
Nsg19
Nsg20
Nsg21
Nsg22
S'true'
p1428
sg24
Nsg25
Nsg26
S'NIFEDIPINE'
p1429
sg28
Nsg29
S'Caution_Interaction'
p1430
sg31
Nsg32
Nsg33
Nsg34
Nsg35
Nsg36
Nsg37
S'Cimetidine'
p1431
sa(dp1432
g2
Nsg3
S'http://bio2rdf.org/drugbank:DB00501'
p1433
sg5
S'http://bio2rdf.org/drugbank:DB01115'
p1434
sg7
Nsg8
Nsg9
Nsg10
Nsg11
Nsg12
Nsg13
Nsg14
Nsg15
Nsg16
g17
sg18
Nsg19
Nsg20
Nsg21
Nsg22
S'true'
p1435
sg24
Nsg25
Nsg26
S'NIFEDIPINE'
p1436
sg28
Nsg29
S'Increase_Interaction'
p1437
sg31
Nsg32
Nsg33
Nsg34
Nsg35
Nsg36
Nsg37
S'Cimetidine'
p1438
sa(dp1439
g2
Nsg3
S'http://bio2rdf.org/drugbank:DB00390'
p1440
sg5
S'http://bio2rdf.org/drugbank:DB01115'
p1441
sg7
Nsg8
Nsg9
Nsg10
Nsg11
Nsg12
Nsg13
Nsg14
Nsg15
Nsg16
g17
sg18
Nsg19
Nsg20
Nsg21
Nsg22
S'true'
p1442
sg24
Nsg25
Nsg26
S'NIFEDIPINE'
p1443
sg28
Nsg29
S'Increase_Interaction'
p1444
sg31
Nsg32
Nsg33
Nsg34
Nsg35
Nsg36
Nsg37
S'Digoxin'
p1445
sa(dp1446
g2
Nsg3
S'http://bio2rdf.org/drugbank:DB00908'
p1447
sg5
S'http://bio2rdf.org/drugbank:DB01115'
p1448
sg7
Nsg8
Nsg9
Nsg10
Nsg11
Nsg12
Nsg13
Nsg14
Nsg15
Nsg16
g17
sg18
Nsg19
Nsg20
Nsg21
Nsg22
S'true'
p1449
sg24
Nsg25
Nsg26
S'NIFEDIPINE'
p1450
sg28
Nsg29
S'Decrease_Interaction'
p1451
sg31
Nsg32
Nsg33
Nsg34
Nsg35
Nsg36
Nsg37
S'QUINIDINE'
p1452
sa(dp1453
g2
Nsg3
S'http://bio2rdf.org/drugbank:DB00252'
p1454
sg5
S'http://bio2rdf.org/drugbank:DB00401'
p1455
sg7
Nsg8
Nsg9
Nsg10
Nsg11
Nsg12
Nsg13
Nsg14
Nsg15
Nsg16
g17
sg18
Nsg19
Nsg20
Nsg21
Nsg22
S'true'
p1456
sg24
Nsg25
Nsg26
S'Nisoldipine'
p1457
sg28
Nsg29
S'Caution_Interaction'
p1458
sg31
Nsg32
Nsg33
Nsg34
Nsg35
Nsg36
Nsg37
S'PHENYTOIN'
p1459
sa(dp1460
g2
Nsg3
S'http://bio2rdf.org/drugbank:DB00945'
p1461
sg5
S'http://bio2rdf.org/drugbank:DB00727'
p1462
sg7
Nsg8
Nsg9
Nsg10
Nsg11
Nsg12
Nsg13
Nsg14
Nsg15
Nsg16
g17
sg18
Nsg19
Nsg20
Nsg21
Nsg22
S'true'
p1463
sg24
Nsg25
Nsg26
S'Nitroglycerin'
p1464
sg28
Nsg29
S'Specific_Interaction'
p1465
sg31
Nsg32
Nsg33
Nsg34
Nsg35
Nsg36
Nsg37
S'ACETYLSALICYLIC ACID'
p1466
sa(dp1467
g2
Nsg3
S'http://bio2rdf.org/drugbank:DB00009'
p1468
sg5
S'http://bio2rdf.org/drugbank:DB00727'
p1469
sg7
Nsg8
Nsg9
Nsg10
Nsg11
Nsg12
Nsg13
Nsg14
Nsg15
Nsg16
g17
sg18
Nsg19
Nsg20
Nsg21
Nsg22
S'true'
p1470
sg24
Nsg25
Nsg26
S'NITROGLYCERIN'
p1471
sg28
Nsg29
S'Caution_Interaction'
p1472
sg31
Nsg32
Nsg33
Nsg34
Nsg35
Nsg36
Nsg37
S'Alteplase'
p1473
sa(dp1474
g2
Nsg3
S'http://bio2rdf.org/drugbank:DB00203'
p1475
sg5
S'http://bio2rdf.org/drugbank:DB00727'
p1476
sg7
Nsg8
Nsg9
Nsg10
Nsg11
Nsg12
Nsg13
Nsg14
Nsg15
Nsg16
g17
sg18
Nsg19
Nsg20
Nsg21
Nsg22
S'true'
p1477
sg24
Nsg25
Nsg26
S'Nitroglycerin'
p1478
sg28
Nsg29
S'Specific_Interaction'
p1479
sg31
Nsg32
Nsg33
Nsg34
Nsg35
Nsg36
Nsg37
S'Sildenafil'
p1480
sa(dp1481
g2
Nsg3
S'http://bio2rdf.org/drugbank:DB00898'
p1482
sg5
S'http://bio2rdf.org/drugbank:DB01359'
p1483
sg7
Nsg8
Nsg9
Nsg10
Nsg11
Nsg12
Nsg13
Nsg14
Nsg15
Nsg16
g17
sg18
Nsg19
Nsg20
Nsg21
Nsg22
S'true'
p1484
sg24
Nsg25
Nsg26
S'Penbutolol'
p1485
sg28
Nsg29
S'Specific_Interaction'
p1486
sg31
Nsg32
Nsg33
Nsg34
Nsg35
Nsg36
Nsg37
S'ETHANOL'
p1487
sa(dp1488
g2
Nsg3
S'http://bio2rdf.org/drugbank:DB05291'
p1489
sg5
S'http://bio2rdf.org/drugbank:DB01359'
p1490
sg7
Nsg8
Nsg9
Nsg10
Nsg11
Nsg12
Nsg13
Nsg14
Nsg15
Nsg16
g17
sg18
Nsg19
Nsg20
Nsg21
Nsg22
S'true'
p1491
sg24
Nsg25
Nsg26
S'Penbutolol'
p1492
sg28
Nsg29
S'Decrease_Interaction'
p1493
sg31
Nsg32
Nsg33
Nsg34
Nsg35
Nsg36
Nsg37
S'LIDOCAINE PATCH'
p1494
sa(dp1495
g2
Nsg3
S'http://bio2rdf.org/drugbank:DB01197'
p1496
sg5
S'http://bio2rdf.org/drugbank:DB00806'
p1497
sg7
Nsg8
Nsg9
Nsg10
Nsg11
Nsg12
Nsg13
Nsg14
Nsg15
Nsg16
g17
sg18
Nsg19
Nsg20
Nsg21
Nsg22
S'true'
p1498
sg24
Nsg25
Nsg26
S'Pentoxifylline'
p1499
sg28
Nsg29
S'Specific_Interaction'
p1500
sg31
Nsg32
Nsg33
Nsg34
Nsg35
Nsg36
Nsg37
S'Captopril'
p1501
sa(dp1502
g2
Nsg3
S'http://bio2rdf.org/drugbank:DB01115'
p1503
sg5
S'http://bio2rdf.org/drugbank:DB00806'
p1504
sg7
Nsg8
Nsg9
Nsg10
Nsg11
Nsg12
Nsg13
Nsg14
Nsg15
Nsg16
g17
sg18
Nsg19
Nsg20
Nsg21
Nsg22
S'true'
p1505
sg24
Nsg25
Nsg26
S'Pentoxifylline'
p1506
sg28
Nsg29
S'Specific_Interaction'
p1507
sg31
Nsg32
Nsg33
Nsg34
Nsg35
Nsg36
Nsg37
S'NIFEDIPINE'
p1508
sa(dp1509
g2
Nsg3
S'http://bio2rdf.org/drugbank:DB00277'
p1510
sg5
S'http://bio2rdf.org/drugbank:DB00806'
p1511
sg7
Nsg8
Nsg9
Nsg10
Nsg11
Nsg12
Nsg13
Nsg14
Nsg15
Nsg16
g17
sg18
Nsg19
Nsg20
Nsg21
Nsg22
S'true'
p1512
sg24
Nsg25
Nsg26
S'Pentoxifylline'
p1513
sg28
Nsg29
S'Increase_Interaction'
p1514
sg31
Nsg32
Nsg33
Nsg34
Nsg35
Nsg36
Nsg37
S'THEOPHYLLINE'
p1515
sa(dp1516
g2
Nsg3
S'http://bio2rdf.org/drugbank:DB00678'
p1517
sg5
S'http://bio2rdf.org/drugbank:DB01174'
p1518
sg7
Nsg8
Nsg9
Nsg10
Nsg11
Nsg12
Nsg13
Nsg14
Nsg15
Nsg16
g17
sg18
Nsg19
Nsg20
Nsg21
Nsg22
S'true'
p1519
sg24
Nsg25
Nsg26
S'PHENOBARBITAL'
p1520
sg28
Nsg29
S'Decrease_Interaction'
p1521
sg31
Nsg32
Nsg33
Nsg34
Nsg35
Nsg36
Nsg37
S'Losartan'
p1522
sa(dp1523
g2
Nsg3
S'http://bio2rdf.org/drugbank:DB00661'
p1524
sg5
S'http://bio2rdf.org/drugbank:DB01174'
p1525
sg7
Nsg8
Nsg9
Nsg10
Nsg11
Nsg12
Nsg13
Nsg14
Nsg15
Nsg16
g17
sg18
Nsg19
Nsg20
Nsg21
Nsg22
S'true'
p1526
sg24
Nsg25
Nsg26
S'PHENOBARBITAL'
p1527
sg28
Nsg29
S'Decrease_Interaction'
p1528
sg31
Nsg32
Nsg33
Nsg34
Nsg35
Nsg36
Nsg37
S'Verapamil'
p1529
sa(dp1530
g2
Nsg3
S'http://bio2rdf.org/drugbank:DB00368'
p1531
sg5
S'http://bio2rdf.org/drugbank:DB00925'
p1532
sg7
Nsg8
Nsg9
Nsg10
Nsg11
Nsg12
Nsg13
Nsg14
Nsg15
Nsg16
g17
sg18
Nsg19
Nsg20
Nsg21
Nsg22
S'true'
p1533
sg24
Nsg25
Nsg26
S'Phenoxybenzamine'
p1534
sg28
Nsg29
S'Specific_Interaction'
p1535
sg31
Nsg32
Nsg33
Nsg34
Nsg35
Nsg36
Nsg37
S'Norepinephrine'
p1536
sa(dp1537
g2
Nsg3
S'http://bio2rdf.org/drugbank:DB00206'
p1538
sg5
S'http://bio2rdf.org/drugbank:DB00925'
p1539
sg7
Nsg8
Nsg9
Nsg10
Nsg11
Nsg12
Nsg13
Nsg14
Nsg15
Nsg16
g17
sg18
Nsg19
Nsg20
Nsg21
Nsg22
S'true'
p1540
sg24
Nsg25
Nsg26
S'Phenoxybenzamine'
p1541
sg28
Nsg29
S'Specific_Interaction'
p1542
sg31
Nsg32
Nsg33
Nsg34
Nsg35
Nsg36
Nsg37
S'Reserpine'
p1543
sa(dp1544
g2
Nsg3
S'http://bio2rdf.org/drugbank:DB01118'
p1545
sg5
S'http://bio2rdf.org/drugbank:DB00252'
p1546
sg7
Nsg8
Nsg9
Nsg10
Nsg11
Nsg12
Nsg13
Nsg14
Nsg15
Nsg16
g17
sg18
Nsg19
Nsg20
Nsg21
Nsg22
S'true'
p1547
sg24
Nsg25
Nsg26
S'Phenytoin'
p1548
sg28
Nsg29
S'Decrease_Interaction'
p1549
sg31
Nsg32
Nsg33
Nsg34
Nsg35
Nsg36
Nsg37
S'AMIODARONE'
p1550
sa(dp1551
g2
Nsg3
S'http://bio2rdf.org/drugbank:DB01118'
p1552
sg5
S'http://bio2rdf.org/drugbank:DB00252'
p1553
sg7
Nsg8
Nsg9
Nsg10
Nsg11
Nsg12
Nsg13
Nsg14
Nsg15
Nsg16
g17
sg18
Nsg19
Nsg20
Nsg21
Nsg22
S'true'
p1554
sg24
Nsg25
Nsg26
S'PHENYTOIN'
p1555
sg28
Nsg29
S'Increase_Interaction'
p1556
sg31
Nsg32
Nsg33
Nsg34
Nsg35
Nsg36
Nsg37
S'AMIODARONE'
p1557
sa(dp1558
g2
Nsg3
S'http://bio2rdf.org/drugbank:DB00695'
p1559
sg5
S'http://bio2rdf.org/drugbank:DB00252'
p1560
sg7
Nsg8
Nsg9
Nsg10
Nsg11
Nsg12
Nsg13
Nsg14
Nsg15
Nsg16
g17
sg18
Nsg19
Nsg20
Nsg21
Nsg22
S'true'
p1561
sg24
Nsg25
Nsg26
S'PHENYTOIN'
p1562
sg28
Nsg29
S'Decrease_Interaction'
p1563
sg31
Nsg32
Nsg33
Nsg34
Nsg35
Nsg36
Nsg37
S'Furosemide'
p1564
sa(dp1565
g2
Nsg3
S'http://bio2rdf.org/drugbank:DB00695'
p1566
sg5
S'http://bio2rdf.org/drugbank:DB00252'
p1567
sg7
Nsg8
Nsg9
Nsg10
Nsg11
Nsg12
Nsg13
Nsg14
Nsg15
Nsg16
g17
sg18
Nsg19
Nsg20
Nsg21
Nsg22
S'true'
p1568
sg24
Nsg25
Nsg26
S'PHENYTOIN'
p1569
sg28
Nsg29
S'Specific_Interaction'
p1570
sg31
Nsg32
Nsg33
Nsg34
Nsg35
Nsg36
Nsg37
S'Furosemide'
p1571
sa(dp1572
g2
Nsg3
S'http://bio2rdf.org/drugbank:DB05291'
p1573
sg5
S'http://bio2rdf.org/drugbank:DB00252'
p1574
sg7
Nsg8
Nsg9
Nsg10
Nsg11
Nsg12
Nsg13
Nsg14
Nsg15
Nsg16
g17
sg18
Nsg19
Nsg20
Nsg21
Nsg22
S'true'
p1575
sg24
Nsg25
Nsg26
S'PHENYTOIN'
p1576
sg28
Nsg29
S'Specific_Interaction'
p1577
sg31
Nsg32
Nsg33
Nsg34
Nsg35
Nsg36
Nsg37
S'LIDOCAINE PATCH'
p1578
sa(dp1579
g2
Nsg3
S'http://bio2rdf.org/drugbank:DB00451'
p1580
sg5
S'http://bio2rdf.org/drugbank:DB01344'
p1581
sg7
Nsg8
Nsg9
Nsg10
Nsg11
Nsg12
Nsg13
Nsg14
Nsg15
Nsg16
g17
sg18
Nsg19
Nsg20
Nsg21
Nsg22
S'true'
p1582
sg24
Nsg25
Nsg26
S'Polystyrene sulfonate'
p1583
sg28
Nsg29
S'Decrease_Interaction'
p1584
sg31
Nsg32
Nsg33
Nsg34
Nsg35
Nsg36
Nsg37
S'Levothyroxine'
p1585
sa(dp1586
g2
Nsg3
S'http://bio2rdf.org/drugbank:DB01356'
p1587
sg5
S'http://bio2rdf.org/drugbank:DB01344'
p1588
sg7
Nsg8
Nsg9
Nsg10
Nsg11
Nsg12
Nsg13
Nsg14
Nsg15
Nsg16
g17
sg18
Nsg19
Nsg20
Nsg21
Nsg22
S'true'
p1589
sg24
Nsg25
Nsg26
S'Polystyrene sulfonate'
p1590
sg28
Nsg29
S'Decrease_Interaction'
p1591
sg31
Nsg32
Nsg33
Nsg34
Nsg35
Nsg36
Nsg37
S'LITHIUM'
p1592
sa(dp1593
g2
Nsg3
S'http://bio2rdf.org/drugbank:DB00421'
p1594
sg5
S'http://bio2rdf.org/drugbank:DB01345'
p1595
sg7
Nsg8
Nsg9
Nsg10
Nsg11
Nsg12
Nsg13
Nsg14
Nsg15
Nsg16
g17
sg18
Nsg19
Nsg20
Nsg21
Nsg22
S'true'
p1596
sg24
Nsg25
Nsg26
S'POTASSIUM'
p1597
sg28
Nsg29
S'Specific_Interaction'
p1598
sg31
Nsg32
Nsg33
Nsg34
Nsg35
Nsg36
Nsg37
S'Spironolactone'
p1599
sa(dp1600
g2
Nsg3
S'http://bio2rdf.org/drugbank:DB00898'
p1601
sg5
S'http://bio2rdf.org/drugbank:DB00457'
p1602
sg7
Nsg8
Nsg9
Nsg10
Nsg11
Nsg12
Nsg13
Nsg14
Nsg15
Nsg16
g17
sg18
Nsg19
Nsg20
Nsg21
Nsg22
S'true'
p1603
sg24
Nsg25
Nsg26
S'Prazosin'
p1604
sg28
Nsg29
S'Caution_Interaction'
p1605
sg31
Nsg32
Nsg33
Nsg34
Nsg35
Nsg36
Nsg37
S'ETHANOL'
p1606
sa(dp1607
g2
Nsg3
S'http://bio2rdf.org/drugbank:DB00214'
p1608
sg5
S'http://bio2rdf.org/drugbank:DB01032'
p1609
sg7
Nsg8
Nsg9
Nsg10
Nsg11
Nsg12
Nsg13
Nsg14
Nsg15
Nsg16
g17
sg18
Nsg19
Nsg20
Nsg21
Nsg22
S'true'
p1610
sg24
Nsg25
Nsg26
S'Probenecid'
p1611
sg28
Nsg29
S'Specific_Interaction'
p1612
sg31
Nsg32
Nsg33
Nsg34
Nsg35
Nsg36
Nsg37
S'Torasemide'
p1613
sa(dp1614
g2
Nsg3
S'http://bio2rdf.org/drugbank:DB01118'
p1615
sg5
S'http://bio2rdf.org/drugbank:DB01035'
p1616
sg7
Nsg8
Nsg9
Nsg10
Nsg11
Nsg12
Nsg13
Nsg14
Nsg15
Nsg16
g17
sg18
Nsg19
Nsg20
Nsg21
Nsg22
S'true'
p1617
sg24
Nsg25
Nsg26
S'PROCAINAMIDE'
p1618
sg28
Nsg29
S'Increase_Interaction'
p1619
sg31
Nsg32
Nsg33
Nsg34
Nsg35
Nsg36
Nsg37
S'AMIODARONE'
p1620
sa(dp1621
g2
Nsg3
S'http://bio2rdf.org/drugbank:DB00390'
p1622
sg5
S'http://bio2rdf.org/drugbank:DB00782'
p1623
sg7
Nsg8
Nsg9
Nsg10
Nsg11
Nsg12
Nsg13
Nsg14
Nsg15
Nsg16
g17
sg18
Nsg19
Nsg20
Nsg21
Nsg22
S'true'
p1624
sg24
Nsg25
Nsg26
S'Propantheline'
p1625
sg28
Nsg29
S'Increase_Interaction'
p1626
sg31
Nsg32
Nsg33
Nsg34
Nsg35
Nsg36
Nsg37
S'Digoxin'
p1627
sa(dp1628
g2
Nsg3
S'http://bio2rdf.org/drugbank:DB00999'
p1629
sg5
S'http://bio2rdf.org/drugbank:DB00782'
p1630
sg7
Nsg8
Nsg9
Nsg10
Nsg11
Nsg12
Nsg13
Nsg14
Nsg15
Nsg16
g17
sg18
Nsg19
Nsg20
Nsg21
Nsg22
S'true'
p1631
sg24
Nsg25
Nsg26
S'Propantheline'
p1632
sg28
Nsg29
S'Increase_Interaction'
p1633
sg31
Nsg32
Nsg33
Nsg34
Nsg35
Nsg36
Nsg37
S'HYDROCHLOROTHIAZIDE'
p1634
sa(dp1635
g2
Nsg3
S'http://bio2rdf.org/drugbank:DB00661'
p1636
sg5
S'http://bio2rdf.org/drugbank:DB00571'
p1637
sg7
Nsg8
Nsg9
Nsg10
Nsg11
Nsg12
Nsg13
Nsg14
Nsg15
Nsg16
g17
sg18
Nsg19
Nsg20
Nsg21
Nsg22
S'true'
p1638
sg24
Nsg25
Nsg26
S'Propranolol'
p1639
sg28
Nsg29
S'Increase_Interaction'
p1640
sg31
Nsg32
Nsg33
Nsg34
Nsg35
Nsg36
Nsg37
S'Verapamil'
p1641
sa(dp1642
g2
Nsg3
S'http://bio2rdf.org/drugbank:DB00759'
p1643
sg5
S'http://bio2rdf.org/drugbank:DB00881'
p1644
sg7
Nsg8
Nsg9
Nsg10
Nsg11
Nsg12
Nsg13
Nsg14
Nsg15
Nsg16
g17
sg18
Nsg19
Nsg20
Nsg21
Nsg22
S'true'
p1645
sg24
Nsg25
Nsg26
S'Quinapril'
p1646
sg28
Nsg29
S'Caution_Interaction'
p1647
sg31
Nsg32
Nsg33
Nsg34
Nsg35
Nsg36
Nsg37
S'TETRACYCLINE'
p1648
sa(dp1649
g2
Nsg3
S'http://bio2rdf.org/drugbank:DB00759'
p1650
sg5
S'http://bio2rdf.org/drugbank:DB00881'
p1651
sg7
Nsg8
Nsg9
Nsg10
Nsg11
Nsg12
Nsg13
Nsg14
Nsg15
Nsg16
g17
sg18
Nsg19
Nsg20
Nsg21
Nsg22
S'true'
p1652
sg24
Nsg25
Nsg26
S'Quinapril'
p1653
sg28
Nsg29
S'Decrease_Interaction'
p1654
sg31
Nsg32
Nsg33
Nsg34
Nsg35
Nsg36
Nsg37
S'TETRACYCLINE'
p1655
sa(dp1656
g2
Nsg3
S'http://bio2rdf.org/drugbank:DB01118'
p1657
sg5
S'http://bio2rdf.org/drugbank:DB00908'
p1658
sg7
Nsg8
Nsg9
Nsg10
Nsg11
Nsg12
Nsg13
Nsg14
Nsg15
Nsg16
g17
sg18
Nsg19
Nsg20
Nsg21
Nsg22
S'true'
p1659
sg24
Nsg25
Nsg26
S'QUINIDINE'
p1660
sg28
Nsg29
S'Increase_Interaction'
p1661
sg31
Nsg32
Nsg33
Nsg34
Nsg35
Nsg36
Nsg37
S'AMIODARONE'
p1662
sa(dp1663
g2
Nsg3
S'http://bio2rdf.org/drugbank:DB00501'
p1664
sg5
S'http://bio2rdf.org/drugbank:DB00908'
p1665
sg7
Nsg8
Nsg9
Nsg10
Nsg11
Nsg12
Nsg13
Nsg14
Nsg15
Nsg16
g17
sg18
Nsg19
Nsg20
Nsg21
Nsg22
S'true'
p1666
sg24
Nsg25
Nsg26
S'QUINIDINE'
p1667
sg28
Nsg29
S'Increase_Interaction'
p1668
sg31
Nsg32
Nsg33
Nsg34
Nsg35
Nsg36
Nsg37
S'Cimetidine'
p1669
sa(dp1670
g2
Nsg3
S'http://bio2rdf.org/drugbank:DB06695'
p1671
sg5
S'http://bio2rdf.org/drugbank:DB00908'
p1672
sg7
Nsg8
Nsg9
Nsg10
Nsg11
Nsg12
Nsg13
Nsg14
Nsg15
Nsg16
g17
sg18
Nsg19
Nsg20
Nsg21
Nsg22
S'true'
p1673
sg24
Nsg25
Nsg26
S'QUINIDINE'
p1674
sg28
Nsg29
S'Increase_Interaction'
p1675
sg31
Nsg32
Nsg33
Nsg34
Nsg35
Nsg36
Nsg37
S'Dabigatran etexilate'
p1676
sa(dp1677
g2
Nsg3
S'http://bio2rdf.org/drugbank:DB00390'
p1678
sg5
S'http://bio2rdf.org/drugbank:DB00908'
p1679
sg7
Nsg8
Nsg9
Nsg10
Nsg11
Nsg12
Nsg13
Nsg14
Nsg15
Nsg16
g17
sg18
Nsg19
Nsg20
Nsg21
Nsg22
S'true'
p1680
sg24
Nsg25
Nsg26
S'QUINIDINE'
p1681
sg28
Nsg29
S'Increase_Interaction'
p1682
sg31
Nsg32
Nsg33
Nsg34
Nsg35
Nsg36
Nsg37
S'Digoxin'
p1683
sa(dp1684
g2
Nsg3
S'http://bio2rdf.org/drugbank:DB01115'
p1685
sg5
S'http://bio2rdf.org/drugbank:DB00908'
p1686
sg7
Nsg8
Nsg9
Nsg10
Nsg11
Nsg12
Nsg13
Nsg14
Nsg15
Nsg16
g17
sg18
Nsg19
Nsg20
Nsg21
Nsg22
S'true'
p1687
sg24
Nsg25
Nsg26
S'QUINIDINE'
p1688
sg28
Nsg29
S'Decrease_Interaction'
p1689
sg31
Nsg32
Nsg33
Nsg34
Nsg35
Nsg36
Nsg37
S'NIFEDIPINE'
p1690
sa(dp1691
g2
Nsg3
S'http://bio2rdf.org/drugbank:DB01035'
p1692
sg5
S'http://bio2rdf.org/drugbank:DB00908'
p1693
sg7
Nsg8
Nsg9
Nsg10
Nsg11
Nsg12
Nsg13
Nsg14
Nsg15
Nsg16
g17
sg18
Nsg19
Nsg20
Nsg21
Nsg22
S'true'
p1694
sg24
Nsg25
Nsg26
S'QUINIDINE'
p1695
sg28
Nsg29
S'Increase_Interaction'
p1696
sg31
Nsg32
Nsg33
Nsg34
Nsg35
Nsg36
Nsg37
S'PROCAINAMIDE'
p1697
sa(dp1698
g2
Nsg3
S'http://bio2rdf.org/drugbank:DB00661'
p1699
sg5
S'http://bio2rdf.org/drugbank:DB00908'
p1700
sg7
Nsg8
Nsg9
Nsg10
Nsg11
Nsg12
Nsg13
Nsg14
Nsg15
Nsg16
g17
sg18
Nsg19
Nsg20
Nsg21
Nsg22
S'true'
p1701
sg24
Nsg25
Nsg26
S'QUINIDINE'
p1702
sg28
Nsg29
S'Increase_Interaction'
p1703
sg31
Nsg32
Nsg33
Nsg34
Nsg35
Nsg36
Nsg37
S'Verapamil'
p1704
sa(dp1705
g2
Nsg3
S'http://bio2rdf.org/drugbank:DB00661'
p1706
sg5
S'http://bio2rdf.org/drugbank:DB00908'
p1707
sg7
Nsg8
Nsg9
Nsg10
Nsg11
Nsg12
Nsg13
Nsg14
Nsg15
Nsg16
g17
sg18
Nsg19
Nsg20
Nsg21
Nsg22
S'true'
p1708
sg24
Nsg25
Nsg26
S'QUINIDINE'
p1709
sg28
Nsg29
S'Specific_Interaction'
p1710
sg31
Nsg32
Nsg33
Nsg34
Nsg35
Nsg36
Nsg37
S'Verapamil'
p1711
sa(dp1712
g2
Nsg3
S'http://bio2rdf.org/drugbank:DB00966'
p1713
sg5
S'http://bio2rdf.org/drugbank:DB00178'
p1714
sg7
Nsg8
Nsg9
Nsg10
Nsg11
Nsg12
Nsg13
Nsg14
Nsg15
Nsg16
g17
sg18
Nsg19
Nsg20
Nsg21
Nsg22
S'true'
p1715
sg24
Nsg25
Nsg26
S'Ramipril'
p1716
sg28
Nsg29
S'Increase_Interaction'
p1717
sg31
Nsg32
Nsg33
Nsg34
Nsg35
Nsg36
Nsg37
S'TELMISARTAN'
p1718
sa(dp1719
g2
Nsg3
S'http://bio2rdf.org/drugbank:DB00908'
p1720
sg5
S'http://bio2rdf.org/drugbank:DB00206'
p1721
sg7
Nsg8
Nsg9
Nsg10
Nsg11
Nsg12
Nsg13
Nsg14
Nsg15
Nsg16
g17
sg18
Nsg19
Nsg20
Nsg21
Nsg22
S'true'
p1722
sg24
Nsg25
Nsg26
S'Reserpine'
p1723
sg28
Nsg29
S'Caution_Interaction'
p1724
sg31
Nsg32
Nsg33
Nsg34
Nsg35
Nsg36
Nsg37
S'QUINIDINE'
p1725
sa(dp1726
g2
Nsg3
S'http://bio2rdf.org/drugbank:DB01118'
p1727
sg5
S'http://bio2rdf.org/drugbank:DB01045'
p1728
sg7
Nsg8
Nsg9
Nsg10
Nsg11
Nsg12
Nsg13
Nsg14
Nsg15
Nsg16
g17
sg18
Nsg19
Nsg20
Nsg21
Nsg22
S'true'
p1729
sg24
Nsg25
Nsg26
S'RIFAMPICIN'
p1730
sg28
Nsg29
S'Decrease_Interaction'
p1731
sg31
Nsg32
Nsg33
Nsg34
Nsg35
Nsg36
Nsg37
S'AMIODARONE'
p1732
sa(dp1733
g2
Nsg3
S'http://bio2rdf.org/drugbank:DB00612'
p1734
sg5
S'http://bio2rdf.org/drugbank:DB01045'
p1735
sg7
Nsg8
Nsg9
Nsg10
Nsg11
Nsg12
Nsg13
Nsg14
Nsg15
Nsg16
g17
sg18
Nsg19
Nsg20
Nsg21
Nsg22
S'true'
p1736
sg24
Nsg25
Nsg26
S'RIFAMPICIN'
p1737
sg28
Nsg29
S'Decrease_Interaction'
p1738
sg31
Nsg32
Nsg33
Nsg34
Nsg35
Nsg36
Nsg37
S'Bisoprolol'
p1739
sa(dp1740
g2
Nsg3
S'http://bio2rdf.org/drugbank:DB00559'
p1741
sg5
S'http://bio2rdf.org/drugbank:DB01045'
p1742
sg7
Nsg8
Nsg9
Nsg10
Nsg11
Nsg12
Nsg13
Nsg14
Nsg15
Nsg16
g17
sg18
Nsg19
Nsg20
Nsg21
Nsg22
S'true'
p1743
sg24
Nsg25
Nsg26
S'RIFAMPICIN'
p1744
sg28
Nsg29
S'Decrease_Interaction'
p1745
sg31
Nsg32
Nsg33
Nsg34
Nsg35
Nsg36
Nsg37
S'BOSENTAN'
p1746
sa(dp1747
g2
Nsg3
S'http://bio2rdf.org/drugbank:DB00559'
p1748
sg5
S'http://bio2rdf.org/drugbank:DB01045'
p1749
sg7
Nsg8
Nsg9
Nsg10
Nsg11
Nsg12
Nsg13
Nsg14
Nsg15
Nsg16
g17
sg18
Nsg19
Nsg20
Nsg21
Nsg22
S'true'
p1750
sg24
Nsg25
Nsg26
S'RIFAMPICIN'
p1751
sg28
Nsg29
S'Increase_Interaction'
p1752
sg31
Nsg32
Nsg33
Nsg34
Nsg35
Nsg36
Nsg37
S'BOSENTAN'
p1753
sa(dp1754
g2
Nsg3
S'http://bio2rdf.org/drugbank:DB00559'
p1755
sg5
S'http://bio2rdf.org/drugbank:DB01045'
p1756
sg7
Nsg8
Nsg9
Nsg10
Nsg11
Nsg12
Nsg13
Nsg14
Nsg15
Nsg16
g17
sg18
Nsg19
Nsg20
Nsg21
Nsg22
S'true'
p1757
sg24
Nsg25
Nsg26
S'RIFAMPICIN'
p1758
sg28
Nsg29
S'Specific_Interaction'
p1759
sg31
Nsg32
Nsg33
Nsg34
Nsg35
Nsg36
Nsg37
S'BOSENTAN'
p1760
sa(dp1761
g2
Nsg3
S'http://bio2rdf.org/drugbank:DB06695'
p1762
sg5
S'http://bio2rdf.org/drugbank:DB01045'
p1763
sg7
Nsg8
Nsg9
Nsg10
Nsg11
Nsg12
Nsg13
Nsg14
Nsg15
Nsg16
g17
sg18
Nsg19
Nsg20
Nsg21
Nsg22
S'true'
p1764
sg24
Nsg25
Nsg26
S'RIFAMPICIN'
p1765
sg28
Nsg29
S'Decrease_Interaction'
p1766
sg31
Nsg32
Nsg33
Nsg34
Nsg35
Nsg36
Nsg37
S'Dabigatran etexilate'
p1767
sa(dp1768
g2
Nsg3
S'http://bio2rdf.org/drugbank:DB00390'
p1769
sg5
S'http://bio2rdf.org/drugbank:DB01045'
p1770
sg7
Nsg8
Nsg9
Nsg10
Nsg11
Nsg12
Nsg13
Nsg14
Nsg15
Nsg16
g17
sg18
Nsg19
Nsg20
Nsg21
Nsg22
S'true'
p1771
sg24
Nsg25
Nsg26
S'RIFAMPICIN'
p1772
sg28
Nsg29
S'Decrease_Interaction'
p1773
sg31
Nsg32
Nsg33
Nsg34
Nsg35
Nsg36
Nsg37
S'Digoxin'
p1774
sa(dp1775
g2
Nsg3
S'http://bio2rdf.org/drugbank:DB00343'
p1776
sg5
S'http://bio2rdf.org/drugbank:DB01045'
p1777
sg7
Nsg8
Nsg9
Nsg10
Nsg11
Nsg12
Nsg13
Nsg14
Nsg15
Nsg16
g17
sg18
Nsg19
Nsg20
Nsg21
Nsg22
S'true'
p1778
sg24
Nsg25
Nsg26
S'RIFAMPICIN'
p1779
sg28
Nsg29
S'Decrease_Interaction'
p1780
sg31
Nsg32
Nsg33
Nsg34
Nsg35
Nsg36
Nsg37
S'DILTIAZEM'
p1781
sa(dp1782
g2
Nsg3
S'http://bio2rdf.org/drugbank:DB00678'
p1783
sg5
S'http://bio2rdf.org/drugbank:DB01045'
p1784
sg7
Nsg8
Nsg9
Nsg10
Nsg11
Nsg12
Nsg13
Nsg14
Nsg15
Nsg16
g17
sg18
Nsg19
Nsg20
Nsg21
Nsg22
S'true'
p1785
sg24
Nsg25
Nsg26
S'RIFAMPICIN'
p1786
sg28
Nsg29
S'Decrease_Interaction'
p1787
sg31
Nsg32
Nsg33
Nsg34
Nsg35
Nsg36
Nsg37
S'Losartan'
p1788
sa(dp1789
g2
Nsg3
S'http://bio2rdf.org/drugbank:DB00374'
p1790
sg5
S'http://bio2rdf.org/drugbank:DB01045'
p1791
sg7
Nsg8
Nsg9
Nsg10
Nsg11
Nsg12
Nsg13
Nsg14
Nsg15
Nsg16
g17
sg18
Nsg19
Nsg20
Nsg21
Nsg22
S'true'
p1792
sg24
Nsg25
Nsg26
S'RIFAMPICIN'
p1793
sg28
Nsg29
S'Decrease_Interaction'
p1794
sg31
Nsg32
Nsg33
Nsg34
Nsg35
Nsg36
Nsg37
S'Treprostinil'
p1795
sa(dp1796
g2
Nsg3
S'http://bio2rdf.org/drugbank:DB06228'
p1797
sg5
S'http://bio2rdf.org/drugbank:DB00503'
p1798
sg7
Nsg8
Nsg9
Nsg10
Nsg11
Nsg12
Nsg13
Nsg14
Nsg15
Nsg16
g17
sg18
Nsg19
Nsg20
Nsg21
Nsg22
S'true'
p1799
sg24
Nsg25
Nsg26
S'Ritonavir'
p1800
sg28
Nsg29
S'Increase_Interaction'
p1801
sg31
Nsg32
Nsg33
Nsg34
Nsg35
Nsg36
Nsg37
S'RIVAROXABAN'
p1802
sa(dp1803
g2
Nsg3
S'http://bio2rdf.org/drugbank:DB06228'
p1804
sg5
S'http://bio2rdf.org/drugbank:DB00503'
p1805
sg7
Nsg8
Nsg9
Nsg10
Nsg11
Nsg12
Nsg13
Nsg14
Nsg15
Nsg16
g17
sg18
Nsg19
Nsg20
Nsg21
Nsg22
S'true'
p1806
sg24
Nsg25
Nsg26
S'Ritonavir'
p1807
sg28
Nsg29
S'Specific_Interaction'
p1808
sg31
Nsg32
Nsg33
Nsg34
Nsg35
Nsg36
Nsg37
S'RIVAROXABAN'
p1809
sa(dp1810
g2
Nsg3
S'http://bio2rdf.org/drugbank:DB00252'
p1811
sg5
S'http://bio2rdf.org/drugbank:DB00936'
p1812
sg7
Nsg8
Nsg9
Nsg10
Nsg11
Nsg12
Nsg13
Nsg14
Nsg15
Nsg16
g17
sg18
Nsg19
Nsg20
Nsg21
Nsg22
S'true'
p1813
sg24
Nsg25
Nsg26
S'Salicyclic acid'
p1814
sg28
Nsg29
S'Decrease_Interaction'
p1815
sg31
Nsg32
Nsg33
Nsg34
Nsg35
Nsg36
Nsg37
S'PHENYTOIN'
p1816
sa(dp1817
g2
Nsg3
S'http://bio2rdf.org/drugbank:DB00313'
p1818
sg5
S'http://bio2rdf.org/drugbank:DB00936'
p1819
sg7
Nsg8
Nsg9
Nsg10
Nsg11
Nsg12
Nsg13
Nsg14
Nsg15
Nsg16
g17
sg18
Nsg19
Nsg20
Nsg21
Nsg22
S'true'
p1820
sg24
Nsg25
Nsg26
S'Salicyclic acid'
p1821
sg28
Nsg29
S'Increase_Interaction'
p1822
sg31
Nsg32
Nsg33
Nsg34
Nsg35
Nsg36
Nsg37
S'Valproic Acid'
p1823
sa(dp1824
g2
Nsg3
S'http://bio2rdf.org/drugbank:DB00252'
p1825
sg5
S'http://bio2rdf.org/drugbank:DB00936'
p1826
sg7
Nsg8
Nsg9
Nsg10
Nsg11
Nsg12
Nsg13
Nsg14
Nsg15
Nsg16
g17
sg18
Nsg19
Nsg20
Nsg21
Nsg22
S'true'
p1827
sg24
Nsg25
Nsg26
S'SALICYLIC ACID'
p1828
sg28
Nsg29
S'Decrease_Interaction'
p1829
sg31
Nsg32
Nsg33
Nsg34
Nsg35
Nsg36
Nsg37
S'PHENYTOIN'
p1830
sa(dp1831
g2
Nsg3
S'http://bio2rdf.org/drugbank:DB00313'
p1832
sg5
S'http://bio2rdf.org/drugbank:DB00936'
p1833
sg7
Nsg8
Nsg9
Nsg10
Nsg11
Nsg12
Nsg13
Nsg14
Nsg15
Nsg16
g17
sg18
Nsg19
Nsg20
Nsg21
Nsg22
S'true'
p1834
sg24
Nsg25
Nsg26
S'SALICYLIC ACID'
p1835
sg28
Nsg29
S'Increase_Interaction'
p1836
sg31
Nsg32
Nsg33
Nsg34
Nsg35
Nsg36
Nsg37
S'Valproic Acid'
p1837
sa(dp1838
g2
Nsg3
S'http://bio2rdf.org/drugbank:DB00537'
p1839
sg5
S'http://bio2rdf.org/drugbank:DB00658'
p1840
sg7
Nsg8
Nsg9
Nsg10
Nsg11
Nsg12
Nsg13
Nsg14
Nsg15
Nsg16
g17
sg18
Nsg19
Nsg20
Nsg21
Nsg22
S'true'
p1841
sg24
Nsg25
Nsg26
S'Sevelamer'
p1842
sg28
Nsg29
S'Decrease_Interaction'
p1843
sg31
Nsg32
Nsg33
Nsg34
Nsg35
Nsg36
Nsg37
S'CIPROFLOXACIN'
p1844
sa(dp1845
g2
Nsg3
S'http://bio2rdf.org/drugbank:DB00559'
p1846
sg5
S'http://bio2rdf.org/drugbank:DB00203'
p1847
sg7
Nsg8
Nsg9
Nsg10
Nsg11
Nsg12
Nsg13
Nsg14
Nsg15
Nsg16
g17
sg18
Nsg19
Nsg20
Nsg21
Nsg22
S'true'
p1848
sg24
Nsg25
Nsg26
S'Sildenafil'
p1849
sg28
Nsg29
S'Increase_Interaction'
p1850
sg31
Nsg32
Nsg33
Nsg34
Nsg35
Nsg36
Nsg37
S'BOSENTAN'
p1851
sa(dp1852
g2
Nsg3
S'http://bio2rdf.org/drugbank:DB00503'
p1853
sg5
S'http://bio2rdf.org/drugbank:DB00203'
p1854
sg7
Nsg8
Nsg9
Nsg10
Nsg11
Nsg12
Nsg13
Nsg14
Nsg15
Nsg16
g17
sg18
Nsg19
Nsg20
Nsg21
Nsg22
S'true'
p1855
sg24
Nsg25
Nsg26
S'Sildenafil'
p1856
sg28
Nsg29
S'Caution_Interaction'
p1857
sg31
Nsg32
Nsg33
Nsg34
Nsg35
Nsg36
Nsg37
S'Ritonavir'
p1858
sa(dp1859
g2
Nsg3
S'http://bio2rdf.org/drugbank:DB00203'
p1860
sg5
S'http://bio2rdf.org/drugbank:DB00203'
p1861
sg7
Nsg8
Nsg9
Nsg10
Nsg11
Nsg12
Nsg13
Nsg14
Nsg15
Nsg16
g17
sg18
Nsg19
Nsg20
Nsg21
Nsg22
S'true'
p1862
sg24
Nsg25
Nsg26
S'Sildenafil'
p1863
sg28
Nsg29
S'Caution_Interaction'
p1864
sg31
Nsg32
Nsg33
Nsg34
Nsg35
Nsg36
Nsg37
S'Sildenafil'
p1865
sa(dp1866
g2
Nsg3
S'http://bio2rdf.org/drugbank:DB01118'
p1867
sg5
S'http://bio2rdf.org/drugbank:DB00641'
p1868
sg7
Nsg8
Nsg9
Nsg10
Nsg11
Nsg12
Nsg13
Nsg14
Nsg15
Nsg16
g17
sg18
Nsg19
Nsg20
Nsg21
Nsg22
S'true'
p1869
sg24
Nsg25
Nsg26
S'SIMVASTATIN'
p1870
sg28
Nsg29
S'Caution_Interaction'
p1871
sg31
Nsg32
Nsg33
Nsg34
Nsg35
Nsg36
Nsg37
S'AMIODARONE'
p1872
sa(dp1873
g2
Nsg3
S'http://bio2rdf.org/drugbank:DB00343'
p1874
sg5
S'http://bio2rdf.org/drugbank:DB00641'
p1875
sg7
Nsg8
Nsg9
Nsg10
Nsg11
Nsg12
Nsg13
Nsg14
Nsg15
Nsg16
g17
sg18
Nsg19
Nsg20
Nsg21
Nsg22
S'true'
p1876
sg24
Nsg25
Nsg26
S'Simvastatin'
p1877
sg28
Nsg29
S'Caution_Interaction'
p1878
sg31
Nsg32
Nsg33
Nsg34
Nsg35
Nsg36
Nsg37
S'DILTIAZEM'
p1879
sa(dp1880
g2
Nsg3
S'http://bio2rdf.org/drugbank:DB00661'
p1881
sg5
S'http://bio2rdf.org/drugbank:DB00641'
p1882
sg7
Nsg8
Nsg9
Nsg10
Nsg11
Nsg12
Nsg13
Nsg14
Nsg15
Nsg16
g17
sg18
Nsg19
Nsg20
Nsg21
Nsg22
S'true'
p1883
sg24
Nsg25
Nsg26
S'SIMVASTATIN'
p1884
sg28
Nsg29
S'Caution_Interaction'
p1885
sg31
Nsg32
Nsg33
Nsg34
Nsg35
Nsg36
Nsg37
S'Verapamil'
p1886
sa(dp1887
g2
Nsg3
S'http://bio2rdf.org/drugbank:DB00390'
p1888
sg5
S'http://bio2rdf.org/drugbank:DB00489'
p1889
sg7
Nsg8
Nsg9
Nsg10
Nsg11
Nsg12
Nsg13
Nsg14
Nsg15
Nsg16
g17
sg18
Nsg19
Nsg20
Nsg21
Nsg22
S'true'
p1890
sg24
Nsg25
Nsg26
S'Sotalol'
p1891
sg28
Nsg29
S'Specific_Interaction'
p1892
sg31
Nsg32
Nsg33
Nsg34
Nsg35
Nsg36
Nsg37
S'Digoxin'
p1893
sa(dp1894
g2
Nsg3
S'http://bio2rdf.org/drugbank:DB00390'
p1895
sg5
S'http://bio2rdf.org/drugbank:DB00421'
p1896
sg7
Nsg8
Nsg9
Nsg10
Nsg11
Nsg12
Nsg13
Nsg14
Nsg15
Nsg16
g17
sg18
Nsg19
Nsg20
Nsg21
Nsg22
S'true'
p1897
sg24
Nsg25
Nsg26
S'Spironolactone'
p1898
sg28
Nsg29
S'Increase_Interaction'
p1899
sg31
Nsg32
Nsg33
Nsg34
Nsg35
Nsg36
Nsg37
S'Digoxin'
p1900
sa(dp1901
g2
Nsg3
S'http://bio2rdf.org/drugbank:DB00328'
p1902
sg5
S'http://bio2rdf.org/drugbank:DB00421'
p1903
sg7
Nsg8
Nsg9
Nsg10
Nsg11
Nsg12
Nsg13
Nsg14
Nsg15
Nsg16
g17
sg18
Nsg19
Nsg20
Nsg21
Nsg22
S'true'
p1904
sg24
Nsg25
Nsg26
S'Spironolactone'
p1905
sg28
Nsg29
S'Specific_Interaction'
p1906
sg31
Nsg32
Nsg33
Nsg34
Nsg35
Nsg36
Nsg37
S'INDOMETHACIN'
p1907
sa(dp1908
g2
Nsg3
S'http://bio2rdf.org/drugbank:DB00368'
p1909
sg5
S'http://bio2rdf.org/drugbank:DB00421'
p1910
sg7
Nsg8
Nsg9
Nsg10
Nsg11
Nsg12
Nsg13
Nsg14
Nsg15
Nsg16
g17
sg18
Nsg19
Nsg20
Nsg21
Nsg22
S'true'
p1911
sg24
Nsg25
Nsg26
S'Spironolactone'
p1912
sg28
Nsg29
S'Specific_Interaction'
p1913
sg31
Nsg32
Nsg33
Nsg34
Nsg35
Nsg36
Nsg37
S'NOREPINEPHRINE'
p1914
sa(dp1915
g2
Nsg3
S'http://bio2rdf.org/drugbank:DB00384'
p1916
sg5
S'http://bio2rdf.org/drugbank:DB00421'
p1917
sg7
Nsg8
Nsg9
Nsg10
Nsg11
Nsg12
Nsg13
Nsg14
Nsg15
Nsg16
g17
sg18
Nsg19
Nsg20
Nsg21
Nsg22
S'true'
p1918
sg24
Nsg25
Nsg26
S'Spironolactone'
p1919
sg28
Nsg29
S'Specific_Interaction'
p1920
sg31
Nsg32
Nsg33
Nsg34
Nsg35
Nsg36
Nsg37
S'Triamterene'
p1921
sa(dp1922
g2
Nsg3
S'http://bio2rdf.org/drugbank:DB00390'
p1923
sg5
S'http://bio2rdf.org/drugbank:DB00795'
p1924
sg7
Nsg8
Nsg9
Nsg10
Nsg11
Nsg12
Nsg13
Nsg14
Nsg15
Nsg16
g17
sg18
Nsg19
Nsg20
Nsg21
Nsg22
S'true'
p1925
sg24
Nsg25
Nsg26
S'Sulfasalazine'
p1926
sg28
Nsg29
S'Decrease_Interaction'
p1927
sg31
Nsg32
Nsg33
Nsg34
Nsg35
Nsg36
Nsg37
S'Digoxin'
p1928
sa(dp1929
g2
Nsg3
S'http://bio2rdf.org/drugbank:DB00559'
p1930
sg5
S'http://bio2rdf.org/drugbank:DB00864'
p1931
sg7
Nsg8
Nsg9
Nsg10
Nsg11
Nsg12
Nsg13
Nsg14
Nsg15
Nsg16
g17
sg18
Nsg19
Nsg20
Nsg21
Nsg22
S'true'
p1932
sg24
Nsg25
Nsg26
S'TACROLIMUS'
p1933
sg28
Nsg29
S'Caution_Interaction'
p1934
sg31
Nsg32
Nsg33
Nsg34
Nsg35
Nsg36
Nsg37
S'Bosentan'
p1935
sa(dp1936
g2
Nsg3
S'http://bio2rdf.org/drugbank:DB00559'
p1937
sg5
S'http://bio2rdf.org/drugbank:DB00864'
p1938
sg7
Nsg8
Nsg9
Nsg10
Nsg11
Nsg12
Nsg13
Nsg14
Nsg15
Nsg16
g17
sg18
Nsg19
Nsg20
Nsg21
Nsg22
S'true'
p1939
sg24
Nsg25
Nsg26
S'TACROLIMUS'
p1940
sg28
Nsg29
S'Increase_Interaction'
p1941
sg31
Nsg32
Nsg33
Nsg34
Nsg35
Nsg36
Nsg37
S'BOSENTAN'
p1942
sa(dp1943
g2
Nsg3
S'http://bio2rdf.org/drugbank:DB00758'
p1944
sg5
S'http://bio2rdf.org/drugbank:DB05351'
p1945
sg7
Nsg8
Nsg9
Nsg10
Nsg11
Nsg12
Nsg13
Nsg14
Nsg15
Nsg16
g17
sg18
Nsg19
Nsg20
Nsg21
Nsg22
S'true'
p1946
sg24
Nsg25
Nsg26
S'TAK-390MR'
p1947
sg28
Nsg29
S'Specific_Interaction'
p1948
sg31
Nsg32
Nsg33
Nsg34
Nsg35
Nsg36
Nsg37
S'Clopidogrel'
p1949
sa(dp1950
g2
Nsg3
S'http://bio2rdf.org/drugbank:DB01076'
p1951
sg5
S'http://bio2rdf.org/drugbank:DB05521'
p1952
sg7
Nsg8
Nsg9
Nsg10
Nsg11
Nsg12
Nsg13
Nsg14
Nsg15
Nsg16
g17
sg18
Nsg19
Nsg20
Nsg21
Nsg22
S'true'
p1953
sg24
Nsg25
Nsg26
S'Telaprevir'
p1954
sg28
Nsg29
S'Caution_Interaction'
p1955
sg31
Nsg32
Nsg33
Nsg34
Nsg35
Nsg36
Nsg37
S'ATORVASTATIN'
p1956
sa(dp1957
g2
Nsg3
S'http://bio2rdf.org/drugbank:DB00661'
p1958
sg5
S'http://bio2rdf.org/drugbank:DB00976'
p1959
sg7
Nsg8
Nsg9
Nsg10
Nsg11
Nsg12
Nsg13
Nsg14
Nsg15
Nsg16
g17
sg18
Nsg19
Nsg20
Nsg21
Nsg22
S'true'
p1960
sg24
Nsg25
Nsg26
S'TELITHROMYCIN'
p1961
sg28
Nsg29
S'Increase_Interaction'
p1962
sg31
Nsg32
Nsg33
Nsg34
Nsg35
Nsg36
Nsg37
S'Verapamil'
p1963
sa(dp1964
g2
Nsg3
S'http://bio2rdf.org/drugbank:DB00390'
p1965
sg5
S'http://bio2rdf.org/drugbank:DB00966'
p1966
sg7
Nsg8
Nsg9
Nsg10
Nsg11
Nsg12
Nsg13
Nsg14
Nsg15
Nsg16
g17
sg18
Nsg19
Nsg20
Nsg21
Nsg22
S'true'
p1967
sg24
Nsg25
Nsg26
S'TELMISARTAN'
p1968
sg28
Nsg29
S'Increase_Interaction'
p1969
sg31
Nsg32
Nsg33
Nsg34
Nsg35
Nsg36
Nsg37
S'Digoxin'
p1970
sa(dp1971
g2
Nsg3
S'http://bio2rdf.org/drugbank:DB00178'
p1972
sg5
S'http://bio2rdf.org/drugbank:DB00966'
p1973
sg7
Nsg8
Nsg9
Nsg10
Nsg11
Nsg12
Nsg13
Nsg14
Nsg15
Nsg16
g17
sg18
Nsg19
Nsg20
Nsg21
Nsg22
S'true'
p1974
sg24
Nsg25
Nsg26
S'TELMISARTAN'
p1975
sg28
Nsg29
S'Caution_Interaction'
p1976
sg31
Nsg32
Nsg33
Nsg34
Nsg35
Nsg36
Nsg37
S'Ramipril'
p1977
sa(dp1978
g2
Nsg3
S'http://bio2rdf.org/drugbank:DB00178'
p1979
sg5
S'http://bio2rdf.org/drugbank:DB00966'
p1980
sg7
Nsg8
Nsg9
Nsg10
Nsg11
Nsg12
Nsg13
Nsg14
Nsg15
Nsg16
g17
sg18
Nsg19
Nsg20
Nsg21
Nsg22
S'true'
p1981
sg24
Nsg25
Nsg26
S'Telmisartan'
p1982
sg28
Nsg29
S'Increase_Interaction'
p1983
sg31
Nsg32
Nsg33
Nsg34
Nsg35
Nsg36
Nsg37
S'Ramipril'
p1984
sa(dp1985
g2
Nsg3
S'http://bio2rdf.org/drugbank:DB00178'
p1986
sg5
S'http://bio2rdf.org/drugbank:DB00966'
p1987
sg7
Nsg8
Nsg9
Nsg10
Nsg11
Nsg12
Nsg13
Nsg14
Nsg15
Nsg16
g17
sg18
Nsg19
Nsg20
Nsg21
Nsg22
S'true'
p1988
sg24
Nsg25
Nsg26
S'TELMISARTAN'
p1989
sg28
Nsg29
S'Specific_Interaction'
p1990
sg31
Nsg32
Nsg33
Nsg34
Nsg35
Nsg36
Nsg37
S'Ramipril'
p1991
sa(dp1992
g2
Nsg3
S'http://bio2rdf.org/drugbank:DB00390'
p1993
sg5
S'http://bio2rdf.org/drugbank:DB00759'
p1994
sg7
Nsg8
Nsg9
Nsg10
Nsg11
Nsg12
Nsg13
Nsg14
Nsg15
Nsg16
g17
sg18
Nsg19
Nsg20
Nsg21
Nsg22
S'true'
p1995
sg24
Nsg25
Nsg26
S'TETRACYCLINE'
p1996
sg28
Nsg29
S'Increase_Interaction'
p1997
sg31
Nsg32
Nsg33
Nsg34
Nsg35
Nsg36
Nsg37
S'Digoxin'
p1998
sa(dp1999
g2
Nsg3
S'http://bio2rdf.org/drugbank:DB00945'
p2000
sg5
S'http://bio2rdf.org/drugbank:DB00775'
p2001
sg7
Nsg8
Nsg9
Nsg10
Nsg11
Nsg12
Nsg13
Nsg14
Nsg15
Nsg16
g17
sg18
Nsg19
Nsg20
Nsg21
Nsg22
S'true'
p2002
sg24
Nsg25
Nsg26
S'Tirofiban'
p2003
sg28
Nsg29
S'Specific_Interaction'
p2004
sg31
Nsg32
Nsg33
Nsg34
Nsg35
Nsg36
Nsg37
S'ACETYLSALICYLIC ACID'
p2005
sa(dp2006
g2
Nsg3
S'http://bio2rdf.org/drugbank:DB00390'
p2007
sg5
S'http://bio2rdf.org/drugbank:DB06212'
p2008
sg7
Nsg8
Nsg9
Nsg10
Nsg11
Nsg12
Nsg13
Nsg14
Nsg15
Nsg16
g17
sg18
Nsg19
Nsg20
Nsg21
Nsg22
S'true'
p2009
sg24
Nsg25
Nsg26
S'Tolvaptan'
p2010
sg28
Nsg29
S'Increase_Interaction'
p2011
sg31
Nsg32
Nsg33
Nsg34
Nsg35
Nsg36
Nsg37
S'Digoxin'
p2012
sa(dp2013
g2
Nsg3
S'http://bio2rdf.org/drugbank:DB00227'
p2014
sg5
S'http://bio2rdf.org/drugbank:DB06212'
p2015
sg7
Nsg8
Nsg9
Nsg10
Nsg11
Nsg12
Nsg13
Nsg14
Nsg15
Nsg16
g17
sg18
Nsg19
Nsg20
Nsg21
Nsg22
S'true'
p2016
sg24
Nsg25
Nsg26
S'Tolvaptan'
p2017
sg28
Nsg29
S'Increase_Interaction'
p2018
sg31
Nsg32
Nsg33
Nsg34
Nsg35
Nsg36
Nsg37
S'Lovastatin'
p2019
sa(dp2020
g2
Nsg3
S'http://bio2rdf.org/drugbank:DB01045'
p2021
sg5
S'http://bio2rdf.org/drugbank:DB06212'
p2022
sg7
Nsg8
Nsg9
Nsg10
Nsg11
Nsg12
Nsg13
Nsg14
Nsg15
Nsg16
g17
sg18
Nsg19
Nsg20
Nsg21
Nsg22
S'true'
p2023
sg24
Nsg25
Nsg26
S'Tolvaptan'
p2024
sg28
Nsg29
S'Specific_Interaction'
p2025
sg31
Nsg32
Nsg33
Nsg34
Nsg35
Nsg36
Nsg37
S'RIFAMPICIN'
p2026
sa(dp2027
g2
Nsg3
S'http://bio2rdf.org/drugbank:DB00328'
p2028
sg5
S'http://bio2rdf.org/drugbank:DB00214'
p2029
sg7
Nsg8
Nsg9
Nsg10
Nsg11
Nsg12
Nsg13
Nsg14
Nsg15
Nsg16
g17
sg18
Nsg19
Nsg20
Nsg21
Nsg22
S'true'
p2030
sg24
Nsg25
Nsg26
S'Torasemide'
p2031
sg28
Nsg29
S'Specific_Interaction'
p2032
sg31
Nsg32
Nsg33
Nsg34
Nsg35
Nsg36
Nsg37
S'INDOMETHACIN'
p2033
sa(dp2034
g2
Nsg3
S'http://bio2rdf.org/drugbank:DB00421'
p2035
sg5
S'http://bio2rdf.org/drugbank:DB00214'
p2036
sg7
Nsg8
Nsg9
Nsg10
Nsg11
Nsg12
Nsg13
Nsg14
Nsg15
Nsg16
g17
sg18
Nsg19
Nsg20
Nsg21
Nsg22
S'true'
p2037
sg24
Nsg25
Nsg26
S'Torasemide'
p2038
sg28
Nsg29
S'Increase_Interaction'
p2039
sg31
Nsg32
Nsg33
Nsg34
Nsg35
Nsg36
Nsg37
S'Spironolactone'
p2040
sa(dp2041
g2
Nsg3
S'http://bio2rdf.org/drugbank:DB01118'
p2042
sg5
S'http://bio2rdf.org/drugbank:DB00656'
p2043
sg7
Nsg8
Nsg9
Nsg10
Nsg11
Nsg12
Nsg13
Nsg14
Nsg15
Nsg16
g17
sg18
Nsg19
Nsg20
Nsg21
Nsg22
S'true'
p2044
sg24
Nsg25
Nsg26
S'Trazodone'
p2045
sg28
Nsg29
S'Specific_Interaction'
p2046
sg31
Nsg32
Nsg33
Nsg34
Nsg35
Nsg36
Nsg37
S'AMIODARONE'
p2047
sa(dp2048
g2
Nsg3
S'http://bio2rdf.org/drugbank:DB00672'
p2049
sg5
S'http://bio2rdf.org/drugbank:DB00384'
p2050
sg7
Nsg8
Nsg9
Nsg10
Nsg11
Nsg12
Nsg13
Nsg14
Nsg15
Nsg16
g17
sg18
Nsg19
Nsg20
Nsg21
Nsg22
S'true'
p2051
sg24
Nsg25
Nsg26
S'TRIAMTERENE'
p2052
sg28
Nsg29
S'Specific_Interaction'
p2053
sg31
Nsg32
Nsg33
Nsg34
Nsg35
Nsg36
Nsg37
S'Chlorpropamide'
p2054
sa(dp2055
g2
Nsg3
S'http://bio2rdf.org/drugbank:DB00908'
p2056
sg5
S'http://bio2rdf.org/drugbank:DB00384'
p2057
sg7
Nsg8
Nsg9
Nsg10
Nsg11
Nsg12
Nsg13
Nsg14
Nsg15
Nsg16
g17
sg18
Nsg19
Nsg20
Nsg21
Nsg22
S'true'
p2058
sg24
Nsg25
Nsg26
S'Triamterene'
p2059
sg28
Nsg29
S'Specific_Interaction'
p2060
sg31
Nsg32
Nsg33
Nsg34
Nsg35
Nsg36
Nsg37
S'QUINIDINE'
p2061
sa(dp2062
g2
Nsg3
S'http://bio2rdf.org/drugbank:DB00343'
p2063
sg5
S'http://bio2rdf.org/drugbank:DB00897'
p2064
sg7
Nsg8
Nsg9
Nsg10
Nsg11
Nsg12
Nsg13
Nsg14
Nsg15
Nsg16
g17
sg18
Nsg19
Nsg20
Nsg21
Nsg22
S'true'
p2065
sg24
Nsg25
Nsg26
S'TRIAZOLAM'
p2066
sg28
Nsg29
S'Increase_Interaction'
p2067
sg31
Nsg32
Nsg33
Nsg34
Nsg35
Nsg36
Nsg37
S'DILTIAZEM'
p2068
sa(dp2069
g2
Nsg3
S'http://bio2rdf.org/drugbank:DB00204'
p2070
sg5
S'http://bio2rdf.org/drugbank:DB00440'
p2071
sg7
Nsg8
Nsg9
Nsg10
Nsg11
Nsg12
Nsg13
Nsg14
Nsg15
Nsg16
g17
sg18
Nsg19
Nsg20
Nsg21
Nsg22
S'true'
p2072
sg24
Nsg25
Nsg26
S'TRIMETHOPRIM'
p2073
sg28
Nsg29
S'Caution_Interaction'
p2074
sg31
Nsg32
Nsg33
Nsg34
Nsg35
Nsg36
Nsg37
S'Dofetilide'
p2075
sa(dp2076
g2
Nsg3
S'http://bio2rdf.org/drugbank:DB00204'
p2077
sg5
S'http://bio2rdf.org/drugbank:DB00440'
p2078
sg7
Nsg8
Nsg9
Nsg10
Nsg11
Nsg12
Nsg13
Nsg14
Nsg15
Nsg16
g17
sg18
Nsg19
Nsg20
Nsg21
Nsg22
S'true'
p2079
sg24
Nsg25
Nsg26
S'TRIMETHOPRIM'
p2080
sg28
Nsg29
S'Specific_Interaction'
p2081
sg31
Nsg32
Nsg33
Nsg34
Nsg35
Nsg36
Nsg37
S'Dofetilide'
p2082
sa(dp2083
g2
Nsg3
S'http://bio2rdf.org/drugbank:DB00945'
p2084
sg5
S'http://bio2rdf.org/drugbank:DB00661'
p2085
sg7
Nsg8
Nsg9
Nsg10
Nsg11
Nsg12
Nsg13
Nsg14
Nsg15
Nsg16
g17
sg18
Nsg19
Nsg20
Nsg21
Nsg22
S'true'
p2086
sg24
Nsg25
Nsg26
S'Verapamil'
p2087
sg28
Nsg29
S'Specific_Interaction'
p2088
sg31
Nsg32
Nsg33
Nsg34
Nsg35
Nsg36
Nsg37
S'ACETYLSALICYLIC ACID'
p2089
sa(dp2090
g2
Nsg3
S'http://bio2rdf.org/drugbank:DB00640'
p2091
sg5
S'http://bio2rdf.org/drugbank:DB00661'
p2092
sg7
Nsg8
Nsg9
Nsg10
Nsg11
Nsg12
Nsg13
Nsg14
Nsg15
Nsg16
g17
sg18
Nsg19
Nsg20
Nsg21
Nsg22
S'true'
p2093
sg24
Nsg25
Nsg26
S'Verapamil'
p2094
sg28
Nsg29
S'Specific_Interaction'
p2095
sg31
Nsg32
Nsg33
Nsg34
Nsg35
Nsg36
Nsg37
S'Adenosine'
p2096
sa(dp2097
g2
Nsg3
S'http://bio2rdf.org/drugbank:DB00918'
p2098
sg5
S'http://bio2rdf.org/drugbank:DB00661'
p2099
sg7
Nsg8
Nsg9
Nsg10
Nsg11
Nsg12
Nsg13
Nsg14
Nsg15
Nsg16
g17
sg18
Nsg19
Nsg20
Nsg21
Nsg22
S'true'
p2100
sg24
Nsg25
Nsg26
S'Verapamil'
p2101
sg28
Nsg29
S'Increase_Interaction'
p2102
sg31
Nsg32
Nsg33
Nsg34
Nsg35
Nsg36
Nsg37
S'Almotriptan'
p2103
sa(dp2104
g2
Nsg3
S'http://bio2rdf.org/drugbank:DB00490'
p2105
sg5
S'http://bio2rdf.org/drugbank:DB00661'
p2106
sg7
Nsg8
Nsg9
Nsg10
Nsg11
Nsg12
Nsg13
Nsg14
Nsg15
Nsg16
g17
sg18
Nsg19
Nsg20
Nsg21
Nsg22
S'true'
p2107
sg24
Nsg25
Nsg26
S'Verapamil'
p2108
sg28
Nsg29
S'Increase_Interaction'
p2109
sg31
Nsg32
Nsg33
Nsg34
Nsg35
Nsg36
Nsg37
S'Buspirone'
p2110
sa(dp2111
g2
Nsg3
S'http://bio2rdf.org/drugbank:DB00564'
p2112
sg5
S'http://bio2rdf.org/drugbank:DB00661'
p2113
sg7
Nsg8
Nsg9
Nsg10
Nsg11
Nsg12
Nsg13
Nsg14
Nsg15
Nsg16
g17
sg18
Nsg19
Nsg20
Nsg21
Nsg22
S'true'
p2114
sg24
Nsg25
Nsg26
S'Verapamil'
p2115
sg28
Nsg29
S'Increase_Interaction'
p2116
sg31
Nsg32
Nsg33
Nsg34
Nsg35
Nsg36
Nsg37
S'CARBAMAZEPINE'
p2117
sa(dp2118
g2
Nsg3
S'http://bio2rdf.org/drugbank:DB00575'
p2119
sg5
S'http://bio2rdf.org/drugbank:DB00661'
p2120
sg7
Nsg8
Nsg9
Nsg10
Nsg11
Nsg12
Nsg13
Nsg14
Nsg15
Nsg16
g17
sg18
Nsg19
Nsg20
Nsg21
Nsg22
S'true'
p2121
sg24
Nsg25
Nsg26
S'Verapamil'
p2122
sg28
Nsg29
S'Caution_Interaction'
p2123
sg31
Nsg32
Nsg33
Nsg34
Nsg35
Nsg36
Nsg37
S'Clonidine'
p2124
sa(dp2125
g2
Nsg3
S'http://bio2rdf.org/drugbank:DB01394'
p2126
sg5
S'http://bio2rdf.org/drugbank:DB00661'
p2127
sg7
Nsg8
Nsg9
Nsg10
Nsg11
Nsg12
Nsg13
Nsg14
Nsg15
Nsg16
g17
sg18
Nsg19
Nsg20
Nsg21
Nsg22
S'true'
p2128
sg24
Nsg25
Nsg26
S'Verapamil'
p2129
sg28
Nsg29
S'Increase_Interaction'
p2130
sg31
Nsg32
Nsg33
Nsg34
Nsg35
Nsg36
Nsg37
S'COLCHICINE'
p2131
sa(dp2132
g2
Nsg3
S'http://bio2rdf.org/drugbank:DB00091'
p2133
sg5
S'http://bio2rdf.org/drugbank:DB00661'
p2134
sg7
Nsg8
Nsg9
Nsg10
Nsg11
Nsg12
Nsg13
Nsg14
Nsg15
Nsg16
g17
sg18
Nsg19
Nsg20
Nsg21
Nsg22
S'true'
p2135
sg24
Nsg25
Nsg26
S'Verapamil'
p2136
sg28
Nsg29
S'Increase_Interaction'
p2137
sg31
Nsg32
Nsg33
Nsg34
Nsg35
Nsg36
Nsg37
S'CYCLOSPORINE'
p2138
sa(dp2139
g2
Nsg3
S'http://bio2rdf.org/drugbank:DB06695'
p2140
sg5
S'http://bio2rdf.org/drugbank:DB00661'
p2141
sg7
Nsg8
Nsg9
Nsg10
Nsg11
Nsg12
Nsg13
Nsg14
Nsg15
Nsg16
g17
sg18
Nsg19
Nsg20
Nsg21
Nsg22
S'true'
p2142
sg24
Nsg25
Nsg26
S'Verapamil'
p2143
sg28
Nsg29
S'Increase_Interaction'
p2144
sg31
Nsg32
Nsg33
Nsg34
Nsg35
Nsg36
Nsg37
S'Dabigatran etexilate'
p2145
sa(dp2146
g2
Nsg3
S'http://bio2rdf.org/drugbank:DB01396'
p2147
sg5
S'http://bio2rdf.org/drugbank:DB00661'
p2148
sg7
Nsg8
Nsg9
Nsg10
Nsg11
Nsg12
Nsg13
Nsg14
Nsg15
Nsg16
g17
sg18
Nsg19
Nsg20
Nsg21
Nsg22
S'true'
p2149
sg24
Nsg25
Nsg26
S'Verapamil'
p2150
sg28
Nsg29
S'Increase_Interaction'
p2151
sg31
Nsg32
Nsg33
Nsg34
Nsg35
Nsg36
Nsg37
S'Digitoxin'
p2152
sa(dp2153
g2
Nsg3
S'http://bio2rdf.org/drugbank:DB00390'
p2154
sg5
S'http://bio2rdf.org/drugbank:DB00661'
p2155
sg7
Nsg8
Nsg9
Nsg10
Nsg11
Nsg12
Nsg13
Nsg14
Nsg15
Nsg16
g17
sg18
Nsg19
Nsg20
Nsg21
Nsg22
S'true'
p2156
sg24
Nsg25
Nsg26
S'Verapamil'
p2157
sg28
Nsg29
S'Increase_Interaction'
p2158
sg31
Nsg32
Nsg33
Nsg34
Nsg35
Nsg36
Nsg37
S'Digoxin'
p2159
sa(dp2160
g2
Nsg3
S'http://bio2rdf.org/drugbank:DB00390'
p2161
sg5
S'http://bio2rdf.org/drugbank:DB00661'
p2162
sg7
Nsg8
Nsg9
Nsg10
Nsg11
Nsg12
Nsg13
Nsg14
Nsg15
Nsg16
g17
sg18
Nsg19
Nsg20
Nsg21
Nsg22
S'true'
p2163
sg24
Nsg25
Nsg26
S'Verapamil'
p2164
sg28
Nsg29
S'Specific_Interaction'
p2165
sg31
Nsg32
Nsg33
Nsg34
Nsg35
Nsg36
Nsg37
S'Digoxin'
p2166
sa(dp2167
g2
Nsg3
S'http://bio2rdf.org/drugbank:DB00204'
p2168
sg5
S'http://bio2rdf.org/drugbank:DB00661'
p2169
sg7
Nsg8
Nsg9
Nsg10
Nsg11
Nsg12
Nsg13
Nsg14
Nsg15
Nsg16
g17
sg18
Nsg19
Nsg20
Nsg21
Nsg22
S'true'
p2170
sg24
Nsg25
Nsg26
S'Verapamil'
p2171
sg28
Nsg29
S'Increase_Interaction'
p2172
sg31
Nsg32
Nsg33
Nsg34
Nsg35
Nsg36
Nsg37
S'Dofetilide'
p2173
sa(dp2174
g2
Nsg3
S'http://bio2rdf.org/drugbank:DB00204'
p2175
sg5
S'http://bio2rdf.org/drugbank:DB00661'
p2176
sg7
Nsg8
Nsg9
Nsg10
Nsg11
Nsg12
Nsg13
Nsg14
Nsg15
Nsg16
g17
sg18
Nsg19
Nsg20
Nsg21
Nsg22
S'true'
p2177
sg24
Nsg25
Nsg26
S'Verapamil'
p2178
sg28
Nsg29
S'Specific_Interaction'
p2179
sg31
Nsg32
Nsg33
Nsg34
Nsg35
Nsg36
Nsg37
S'Dofetilide'
p2180
sa(dp2181
g2
Nsg3
S'http://bio2rdf.org/drugbank:DB00997'
p2182
sg5
S'http://bio2rdf.org/drugbank:DB00661'
p2183
sg7
Nsg8
Nsg9
Nsg10
Nsg11
Nsg12
Nsg13
Nsg14
Nsg15
Nsg16
g17
sg18
Nsg19
Nsg20
Nsg21
Nsg22
S'true'
p2184
sg24
Nsg25
Nsg26
S'Verapamil'
p2185
sg28
Nsg29
S'Increase_Interaction'
p2186
sg31
Nsg32
Nsg33
Nsg34
Nsg35
Nsg36
Nsg37
S'DOXORUBICIN'
p2187
sa(dp2188
g2
Nsg3
S'http://bio2rdf.org/drugbank:DB04855'
p2189
sg5
S'http://bio2rdf.org/drugbank:DB00661'
p2190
sg7
Nsg8
Nsg9
Nsg10
Nsg11
Nsg12
Nsg13
Nsg14
Nsg15
Nsg16
g17
sg18
Nsg19
Nsg20
Nsg21
Nsg22
S'true'
p2191
sg24
Nsg25
Nsg26
S'Verapamil'
p2192
sg28
Nsg29
S'Increase_Interaction'
p2193
sg31
Nsg32
Nsg33
Nsg34
Nsg35
Nsg36
Nsg37
S'Dronedarone'
p2194
sa(dp2195
g2
Nsg3
S'http://bio2rdf.org/drugbank:DB00898'
p2196
sg5
S'http://bio2rdf.org/drugbank:DB00661'
p2197
sg7
Nsg8
Nsg9
Nsg10
Nsg11
Nsg12
Nsg13
Nsg14
Nsg15
Nsg16
g17
sg18
Nsg19
Nsg20
Nsg21
Nsg22
S'true'
p2198
sg24
Nsg25
Nsg26
S'Verapamil'
p2199
sg28
Nsg29
S'Increase_Interaction'
p2200
sg31
Nsg32
Nsg33
Nsg34
Nsg35
Nsg36
Nsg37
S'ETHANOL'
p2201
sa(dp2202
g2
Nsg3
S'http://bio2rdf.org/drugbank:DB00898'
p2203
sg5
S'http://bio2rdf.org/drugbank:DB00661'
p2204
sg7
Nsg8
Nsg9
Nsg10
Nsg11
Nsg12
Nsg13
Nsg14
Nsg15
Nsg16
g17
sg18
Nsg19
Nsg20
Nsg21
Nsg22
S'true'
p2205
sg24
Nsg25
Nsg26
S'Verapamil'
p2206
sg28
Nsg29
S'Specific_Interaction'
p2207
sg31
Nsg32
Nsg33
Nsg34
Nsg35
Nsg36
Nsg37
S'ETHANOL'
p2208
sa(dp2209
g2
Nsg3
S'http://bio2rdf.org/drugbank:DB01195'
p2210
sg5
S'http://bio2rdf.org/drugbank:DB00661'
p2211
sg7
Nsg8
Nsg9
Nsg10
Nsg11
Nsg12
Nsg13
Nsg14
Nsg15
Nsg16
g17
sg18
Nsg19
Nsg20
Nsg21
Nsg22
S'true'
p2212
sg24
Nsg25
Nsg26
S'Verapamil'
p2213
sg28
Nsg29
S'Caution_Interaction'
p2214
sg31
Nsg32
Nsg33
Nsg34
Nsg35
Nsg36
Nsg37
S'Flecainide'
p2215
sa(dp2216
g2
Nsg3
S'http://bio2rdf.org/drugbank:DB00458'
p2217
sg5
S'http://bio2rdf.org/drugbank:DB00661'
p2218
sg7
Nsg8
Nsg9
Nsg10
Nsg11
Nsg12
Nsg13
Nsg14
Nsg15
Nsg16
g17
sg18
Nsg19
Nsg20
Nsg21
Nsg22
S'true'
p2219
sg24
Nsg25
Nsg26
S'Verapamil'
p2220
sg28
Nsg29
S'Increase_Interaction'
p2221
sg31
Nsg32
Nsg33
Nsg34
Nsg35
Nsg36
Nsg37
S'IMIPRAMINE'
p2222
sa(dp2223
g2
Nsg3
S'http://bio2rdf.org/drugbank:DB01356'
p2224
sg5
S'http://bio2rdf.org/drugbank:DB00661'
p2225
sg7
Nsg8
Nsg9
Nsg10
Nsg11
Nsg12
Nsg13
Nsg14
Nsg15
Nsg16
g17
sg18
Nsg19
Nsg20
Nsg21
Nsg22
S'true'
p2226
sg24
Nsg25
Nsg26
S'Verapamil'
p2227
sg28
Nsg29
S'Increase_Interaction'
p2228
sg31
Nsg32
Nsg33
Nsg34
Nsg35
Nsg36
Nsg37
S'LITHIUM'
p2229
sa(dp2230
g2
Nsg3
S'http://bio2rdf.org/drugbank:DB01356'
p2231
sg5
S'http://bio2rdf.org/drugbank:DB00661'
p2232
sg7
Nsg8
Nsg9
Nsg10
Nsg11
Nsg12
Nsg13
Nsg14
Nsg15
Nsg16
g17
sg18
Nsg19
Nsg20
Nsg21
Nsg22
S'true'
p2233
sg24
Nsg25
Nsg26
S'Verapamil'
p2234
sg28
Nsg29
S'Specific_Interaction'
p2235
sg31
Nsg32
Nsg33
Nsg34
Nsg35
Nsg36
Nsg37
S'LITHIUM'
p2236
sa(dp2237
g2
Nsg3
S'http://bio2rdf.org/drugbank:DB00683'
p2238
sg5
S'http://bio2rdf.org/drugbank:DB00661'
p2239
sg7
Nsg8
Nsg9
Nsg10
Nsg11
Nsg12
Nsg13
Nsg14
Nsg15
Nsg16
g17
sg18
Nsg19
Nsg20
Nsg21
Nsg22
S'true'
p2240
sg24
Nsg25
Nsg26
S'Verapamil'
p2241
sg28
Nsg29
S'Increase_Interaction'
p2242
sg31
Nsg32
Nsg33
Nsg34
Nsg35
Nsg36
Nsg37
S'MIDAZOLAM'
p2243
sa(dp2244
g2
Nsg3
S'http://bio2rdf.org/drugbank:DB01229'
p2245
sg5
S'http://bio2rdf.org/drugbank:DB00661'
p2246
sg7
Nsg8
Nsg9
Nsg10
Nsg11
Nsg12
Nsg13
Nsg14
Nsg15
Nsg16
g17
sg18
Nsg19
Nsg20
Nsg21
Nsg22
S'true'
p2247
sg24
Nsg25
Nsg26
S'Verapamil'
p2248
sg28
Nsg29
S'Increase_Interaction'
p2249
sg31
Nsg32
Nsg33
Nsg34
Nsg35
Nsg36
Nsg37
S'Paclitaxel'
p2250
sa(dp2251
g2
Nsg3
S'http://bio2rdf.org/drugbank:DB00457'
p2252
sg5
S'http://bio2rdf.org/drugbank:DB00661'
p2253
sg7
Nsg8
Nsg9
Nsg10
Nsg11
Nsg12
Nsg13
Nsg14
Nsg15
Nsg16
g17
sg18
Nsg19
Nsg20
Nsg21
Nsg22
S'true'
p2254
sg24
Nsg25
Nsg26
S'Verapamil'
p2255
sg28
Nsg29
S'Increase_Interaction'
p2256
sg31
Nsg32
Nsg33
Nsg34
Nsg35
Nsg36
Nsg37
S'Prazosin'
p2257
sa(dp2258
g2
Nsg3
S'http://bio2rdf.org/drugbank:DB00457'
p2259
sg5
S'http://bio2rdf.org/drugbank:DB00661'
p2260
sg7
Nsg8
Nsg9
Nsg10
Nsg11
Nsg12
Nsg13
Nsg14
Nsg15
Nsg16
g17
sg18
Nsg19
Nsg20
Nsg21
Nsg22
S'true'
p2261
sg24
Nsg25
Nsg26
S'Verapamil'
p2262
sg28
Nsg29
S'Specific_Interaction'
p2263
sg31
Nsg32
Nsg33
Nsg34
Nsg35
Nsg36
Nsg37
S'Prazosin'
p2264
sa(dp2265
g2
Nsg3
S'http://bio2rdf.org/drugbank:DB00908'
p2266
sg5
S'http://bio2rdf.org/drugbank:DB00661'
p2267
sg7
Nsg8
Nsg9
Nsg10
Nsg11
Nsg12
Nsg13
Nsg14
Nsg15
Nsg16
g17
sg18
Nsg19
Nsg20
Nsg21
Nsg22
S'true'
p2268
sg24
Nsg25
Nsg26
S'Verapamil'
p2269
sg28
Nsg29
S'Caution_Interaction'
p2270
sg31
Nsg32
Nsg33
Nsg34
Nsg35
Nsg36
Nsg37
S'QUINIDINE'
p2271
sa(dp2272
g2
Nsg3
S'http://bio2rdf.org/drugbank:DB00908'
p2273
sg5
S'http://bio2rdf.org/drugbank:DB00661'
p2274
sg7
Nsg8
Nsg9
Nsg10
Nsg11
Nsg12
Nsg13
Nsg14
Nsg15
Nsg16
g17
sg18
Nsg19
Nsg20
Nsg21
Nsg22
S'true'
p2275
sg24
Nsg25
Nsg26
S'Verapamil'
p2276
sg28
Nsg29
S'Specific_Interaction'
p2277
sg31
Nsg32
Nsg33
Nsg34
Nsg35
Nsg36
Nsg37
S'QUINIDINE'
p2278
sa(dp2279
g2
Nsg3
S'http://bio2rdf.org/drugbank:DB00641'
p2280
sg5
S'http://bio2rdf.org/drugbank:DB00661'
p2281
sg7
Nsg8
Nsg9
Nsg10
Nsg11
Nsg12
Nsg13
Nsg14
Nsg15
Nsg16
g17
sg18
Nsg19
Nsg20
Nsg21
Nsg22
S'true'
p2282
sg24
Nsg25
Nsg26
S'Verapamil'
p2283
sg28
Nsg29
S'Caution_Interaction'
p2284
sg31
Nsg32
Nsg33
Nsg34
Nsg35
Nsg36
Nsg37
S'SIMVASTATIN'
p2285
sa(dp2286
g2
Nsg3
S'http://bio2rdf.org/drugbank:DB00641'
p2287
sg5
S'http://bio2rdf.org/drugbank:DB00661'
p2288
sg7
Nsg8
Nsg9
Nsg10
Nsg11
Nsg12
Nsg13
Nsg14
Nsg15
Nsg16
g17
sg18
Nsg19
Nsg20
Nsg21
Nsg22
S'true'
p2289
sg24
Nsg25
Nsg26
S'Verapamil'
p2290
sg28
Nsg29
S'Increase_Interaction'
p2291
sg31
Nsg32
Nsg33
Nsg34
Nsg35
Nsg36
Nsg37
S'SIMVASTATIN'
p2292
sa(dp2293
g2
Nsg3
S'http://bio2rdf.org/drugbank:DB00877'
p2294
sg5
S'http://bio2rdf.org/drugbank:DB00661'
p2295
sg7
Nsg8
Nsg9
Nsg10
Nsg11
Nsg12
Nsg13
Nsg14
Nsg15
Nsg16
g17
sg18
Nsg19
Nsg20
Nsg21
Nsg22
S'true'
p2296
sg24
Nsg25
Nsg26
S'Verapamil'
p2297
sg28
Nsg29
S'Increase_Interaction'
p2298
sg31
Nsg32
Nsg33
Nsg34
Nsg35
Nsg36
Nsg37
S'SIROLIMUS'
p2299
sa(dp2300
g2
Nsg3
S'http://bio2rdf.org/drugbank:DB00864'
p2301
sg5
S'http://bio2rdf.org/drugbank:DB00661'
p2302
sg7
Nsg8
Nsg9
Nsg10
Nsg11
Nsg12
Nsg13
Nsg14
Nsg15
Nsg16
g17
sg18
Nsg19
Nsg20
Nsg21
Nsg22
S'true'
p2303
sg24
Nsg25
Nsg26
S'Verapamil'
p2304
sg28
Nsg29
S'Increase_Interaction'
p2305
sg31
Nsg32
Nsg33
Nsg34
Nsg35
Nsg36
Nsg37
S'TACROLIMUS'
p2306
sa(dp2307
g2
Nsg3
S'http://bio2rdf.org/drugbank:DB00277'
p2308
sg5
S'http://bio2rdf.org/drugbank:DB00661'
p2309
sg7
Nsg8
Nsg9
Nsg10
Nsg11
Nsg12
Nsg13
Nsg14
Nsg15
Nsg16
g17
sg18
Nsg19
Nsg20
Nsg21
Nsg22
S'true'
p2310
sg24
Nsg25
Nsg26
S'Verapamil'
p2311
sg28
Nsg29
S'Increase_Interaction'
p2312
sg31
Nsg32
Nsg33
Nsg34
Nsg35
Nsg36
Nsg37
S'THEOPHYLLINE'
p2313
sa(dp2314
g2
Nsg3
S'http://bio2rdf.org/drugbank:DB01339'
p2315
sg5
S'http://bio2rdf.org/drugbank:DB00661'
p2316
sg7
Nsg8
Nsg9
Nsg10
Nsg11
Nsg12
Nsg13
Nsg14
Nsg15
Nsg16
g17
sg18
Nsg19
Nsg20
Nsg21
Nsg22
S'true'
p2317
sg24
Nsg25
Nsg26
S'Verapamil'
p2318
sg28
Nsg29
S'Increase_Interaction'
p2319
sg31
Nsg32
Nsg33
Nsg34
Nsg35
Nsg36
Nsg37
S'Vecuronium'
p2320
sa(dp2321
g2
Nsg3
S'http://bio2rdf.org/drugbank:DB01076'
p2322
sg5
S'http://bio2rdf.org/drugbank:DB05251'
p2323
sg7
Nsg8
Nsg9
Nsg10
Nsg11
Nsg12
Nsg13
Nsg14
Nsg15
Nsg16
g17
sg18
Nsg19
Nsg20
Nsg21
Nsg22
S'true'
p2324
sg24
Nsg25
Nsg26
S'VRX496'
p2325
sg28
Nsg29
S'Caution_Interaction'
p2326
sg31
Nsg32
Nsg33
Nsg34
Nsg35
Nsg36
Nsg37
S'ATORVASTATIN'
p2327
sa.