(lp0
(dp1
S'contVal'
p2
NsS'drug2'
p3
S'http://bio2rdf.org/drugbank:DB00819'
p4
sS'drug1'
p5
S'http://bio2rdf.org/drugbank:DB00945'
p6
sS'objectUri'
p7
NsS'evidence'
p8
NsS'ddiPkMechanism'
p9
NsS'whoAnnotated'
p10
NsS'contraindication'
p11
NsS'researchStatementLabel'
p12
NsS'severity'
p13
NsS'label'
p14
NsS'effectConcept'
p15
NsS'source'
p16
S'NLM-Corpus'
p17
sS'ddiPkEffect'
p18
NsS'evidenceType'
p19
NsS'homepage'
p20
NsS'pathway'
p21
NsS'ddiType'
p22
S'true'
p23
sS'researchStatement'
p24
NsS'dateAnnotated'
p25
NsS'object'
p26
S'\xef\xbb\xbfAcetylsalicylic acid'
p27
sS'evidenceSource'
p28
NsS'evidenceStatement'
p29
S'Increase_Interaction'
p30
sS'precipUri'
p31
NsS'certainty'
p32
NsS'uri'
p33
NsS'precip'
p34
NsS'numericVal'
p35
NsS'precaution'
p36
NsS'precipitant'
p37
S'Acetazolamide'
p38
sa(dp39
g2
Nsg3
S'http://bio2rdf.org/drugbank:DB06605'
p40
sg5
S'http://bio2rdf.org/drugbank:DB00945'
p41
sg7
Nsg8
Nsg9
Nsg10
Nsg11
Nsg12
Nsg13
Nsg14
Nsg15
Nsg16
g17
sg18
Nsg19
Nsg20
Nsg21
Nsg22
S'true'
p42
sg24
Nsg25
Nsg26
S'Acetylsalicylic acid'
p43
sg28
Nsg29
S'Specific_Interaction'
p44
sg31
Nsg32
Nsg33
Nsg34
Nsg35
Nsg36
Nsg37
S'Apixaban'
p45
sa(dp46
g2
Nsg3
S'http://bio2rdf.org/drugbank:DB00758'
p47
sg5
S'http://bio2rdf.org/drugbank:DB00945'
p48
sg7
Nsg8
Nsg9
Nsg10
Nsg11
Nsg12
Nsg13
Nsg14
Nsg15
Nsg16
g17
sg18
Nsg19
Nsg20
Nsg21
Nsg22
S'true'
p49
sg24
Nsg25
Nsg26
S'Acetylsalicylic acid'
p50
sg28
Nsg29
S'Specific_Interaction'
p51
sg31
Nsg32
Nsg33
Nsg34
Nsg35
Nsg36
Nsg37
S'Clopidogrel'
p52
sa(dp53
g2
Nsg3
S'http://bio2rdf.org/drugbank:DB00727'
p54
sg5
S'http://bio2rdf.org/drugbank:DB00945'
p55
sg7
Nsg8
Nsg9
Nsg10
Nsg11
Nsg12
Nsg13
Nsg14
Nsg15
Nsg16
g17
sg18
Nsg19
Nsg20
Nsg21
Nsg22
S'true'
p56
sg24
Nsg25
Nsg26
S'Acetylsalicylic acid'
p57
sg28
Nsg29
S'Increase_Interaction'
p58
sg31
Nsg32
Nsg33
Nsg34
Nsg35
Nsg36
Nsg37
S'NITROGLYCERIN'
p59
sa(dp60
g2
Nsg3
S'http://bio2rdf.org/drugbank:DB00564'
p61
sg5
S'http://bio2rdf.org/drugbank:DB00640'
p62
sg7
Nsg8
Nsg9
Nsg10
Nsg11
Nsg12
Nsg13
Nsg14
Nsg15
Nsg16
g17
sg18
Nsg19
Nsg20
Nsg21
Nsg22
S'true'
p63
sg24
Nsg25
Nsg26
S'Adenosine'
p64
sg28
Nsg29
S'Specific_Interaction'
p65
sg31
Nsg32
Nsg33
Nsg34
Nsg35
Nsg36
Nsg37
S'Carbamazepine'
p66
sa(dp67
g2
Nsg3
S'http://bio2rdf.org/drugbank:DB00390'
p68
sg5
S'http://bio2rdf.org/drugbank:DB00640'
p69
sg7
Nsg8
Nsg9
Nsg10
Nsg11
Nsg12
Nsg13
Nsg14
Nsg15
Nsg16
g17
sg18
Nsg19
Nsg20
Nsg21
Nsg22
S'true'
p70
sg24
Nsg25
Nsg26
S'Adenosine'
p71
sg28
Nsg29
S'Caution_Interaction'
p72
sg31
Nsg32
Nsg33
Nsg34
Nsg35
Nsg36
Nsg37
S'Digoxin'
p73
sa(dp74
g2
Nsg3
S'http://bio2rdf.org/drugbank:DB00975'
p75
sg5
S'http://bio2rdf.org/drugbank:DB00640'
p76
sg7
Nsg8
Nsg9
Nsg10
Nsg11
Nsg12
Nsg13
Nsg14
Nsg15
Nsg16
g17
sg18
Nsg19
Nsg20
Nsg21
Nsg22
S'true'
p77
sg24
Nsg25
Nsg26
S'Adenosine'
p78
sg28
Nsg29
S'Increase_Interaction'
p79
sg31
Nsg32
Nsg33
Nsg34
Nsg35
Nsg36
Nsg37
S'Dipyridamole'
p80
sa(dp81
g2
Nsg3
S'http://bio2rdf.org/drugbank:DB00381'
p82
sg5
S'http://bio2rdf.org/drugbank:DB01258'
p83
sg7
Nsg8
Nsg9
Nsg10
Nsg11
Nsg12
Nsg13
Nsg14
Nsg15
Nsg16
g17
sg18
Nsg19
Nsg20
Nsg21
Nsg22
S'true'
p84
sg24
Nsg25
Nsg26
S'Aliskiren'
p85
sg28
Nsg29
S'Caution_Interaction'
p86
sg31
Nsg32
Nsg33
Nsg34
Nsg35
Nsg36
Nsg37
S'Amlodipine'
p87
sa(dp88
g2
Nsg3
S'http://bio2rdf.org/drugbank:DB08822'
p89
sg5
S'http://bio2rdf.org/drugbank:DB01258'
p90
sg7
Nsg8
Nsg9
Nsg10
Nsg11
Nsg12
Nsg13
Nsg14
Nsg15
Nsg16
g17
sg18
Nsg19
Nsg20
Nsg21
Nsg22
S'true'
p91
sg24
Nsg25
Nsg26
S'Aliskiren'
p92
sg28
Nsg29
S'Caution_Interaction'
p93
sg31
Nsg32
Nsg33
Nsg34
Nsg35
Nsg36
Nsg37
S'Azilsartan medoxomil'
p94
sa(dp95
g2
Nsg3
S'http://bio2rdf.org/drugbank:DB00542'
p96
sg5
S'http://bio2rdf.org/drugbank:DB01258'
p97
sg7
Nsg8
Nsg9
Nsg10
Nsg11
Nsg12
Nsg13
Nsg14
Nsg15
Nsg16
g17
sg18
Nsg19
Nsg20
Nsg21
Nsg22
S'true'
p98
sg24
Nsg25
Nsg26
S'Aliskiren'
p99
sg28
Nsg29
S'Caution_Interaction'
p100
sg31
Nsg32
Nsg33
Nsg34
Nsg35
Nsg36
Nsg37
S'Benazepril'
p101
sa(dp102
g2
Nsg3
S'http://bio2rdf.org/drugbank:DB00796'
p103
sg5
S'http://bio2rdf.org/drugbank:DB01258'
p104
sg7
Nsg8
Nsg9
Nsg10
Nsg11
Nsg12
Nsg13
Nsg14
Nsg15
Nsg16
g17
sg18
Nsg19
Nsg20
Nsg21
Nsg22
S'true'
p105
sg24
Nsg25
Nsg26
S'Aliskiren'
p106
sg28
Nsg29
S'Caution_Interaction'
p107
sg31
Nsg32
Nsg33
Nsg34
Nsg35
Nsg36
Nsg37
S'Candesartan'
p108
sa(dp109
g2
Nsg3
S'http://bio2rdf.org/drugbank:DB00584'
p110
sg5
S'http://bio2rdf.org/drugbank:DB01258'
p111
sg7
Nsg8
Nsg9
Nsg10
Nsg11
Nsg12
Nsg13
Nsg14
Nsg15
Nsg16
g17
sg18
Nsg19
Nsg20
Nsg21
Nsg22
S'true'
p112
sg24
Nsg25
Nsg26
S'Aliskiren'
p113
sg28
Nsg29
S'Caution_Interaction'
p114
sg31
Nsg32
Nsg33
Nsg34
Nsg35
Nsg36
Nsg37
S'Enalapril'
p115
sa(dp116
g2
Nsg3
S'http://bio2rdf.org/drugbank:DB00876'
p117
sg5
S'http://bio2rdf.org/drugbank:DB01258'
p118
sg7
Nsg8
Nsg9
Nsg10
Nsg11
Nsg12
Nsg13
Nsg14
Nsg15
Nsg16
g17
sg18
Nsg19
Nsg20
Nsg21
Nsg22
S'true'
p119
sg24
Nsg25
Nsg26
S'Aliskiren'
p120
sg28
Nsg29
S'Caution_Interaction'
p121
sg31
Nsg32
Nsg33
Nsg34
Nsg35
Nsg36
Nsg37
S'Eprosartan'
p122
sa(dp123
g2
Nsg3
S'http://bio2rdf.org/drugbank:DB01029'
p124
sg5
S'http://bio2rdf.org/drugbank:DB01258'
p125
sg7
Nsg8
Nsg9
Nsg10
Nsg11
Nsg12
Nsg13
Nsg14
Nsg15
Nsg16
g17
sg18
Nsg19
Nsg20
Nsg21
Nsg22
S'true'
p126
sg24
Nsg25
Nsg26
S'Aliskiren'
p127
sg28
Nsg29
S'Caution_Interaction'
p128
sg31
Nsg32
Nsg33
Nsg34
Nsg35
Nsg36
Nsg37
S'Irbesartan'
p129
sa(dp130
g2
Nsg3
S'http://bio2rdf.org/drugbank:DB00722'
p131
sg5
S'http://bio2rdf.org/drugbank:DB01258'
p132
sg7
Nsg8
Nsg9
Nsg10
Nsg11
Nsg12
Nsg13
Nsg14
Nsg15
Nsg16
g17
sg18
Nsg19
Nsg20
Nsg21
Nsg22
S'true'
p133
sg24
Nsg25
Nsg26
S'Aliskiren'
p134
sg28
Nsg29
S'Caution_Interaction'
p135
sg31
Nsg32
Nsg33
Nsg34
Nsg35
Nsg36
Nsg37
S'Lisinopril'
p136
sa(dp137
g2
Nsg3
S'http://bio2rdf.org/drugbank:DB00678'
p138
sg5
S'http://bio2rdf.org/drugbank:DB01258'
p139
sg7
Nsg8
Nsg9
Nsg10
Nsg11
Nsg12
Nsg13
Nsg14
Nsg15
Nsg16
g17
sg18
Nsg19
Nsg20
Nsg21
Nsg22
S'true'
p140
sg24
Nsg25
Nsg26
S'Aliskiren'
p141
sg28
Nsg29
S'Caution_Interaction'
p142
sg31
Nsg32
Nsg33
Nsg34
Nsg35
Nsg36
Nsg37
S'Losartan'
p143
sa(dp144
g2
Nsg3
S'http://bio2rdf.org/drugbank:DB00275'
p145
sg5
S'http://bio2rdf.org/drugbank:DB01258'
p146
sg7
Nsg8
Nsg9
Nsg10
Nsg11
Nsg12
Nsg13
Nsg14
Nsg15
Nsg16
g17
sg18
Nsg19
Nsg20
Nsg21
Nsg22
S'true'
p147
sg24
Nsg25
Nsg26
S'Aliskiren'
p148
sg28
Nsg29
S'Caution_Interaction'
p149
sg31
Nsg32
Nsg33
Nsg34
Nsg35
Nsg36
Nsg37
S'Olmesartan'
p150
sa(dp151
g2
Nsg3
S'http://bio2rdf.org/drugbank:DB00790'
p152
sg5
S'http://bio2rdf.org/drugbank:DB01258'
p153
sg7
Nsg8
Nsg9
Nsg10
Nsg11
Nsg12
Nsg13
Nsg14
Nsg15
Nsg16
g17
sg18
Nsg19
Nsg20
Nsg21
Nsg22
S'true'
p154
sg24
Nsg25
Nsg26
S'Aliskiren'
p155
sg28
Nsg29
S'Caution_Interaction'
p156
sg31
Nsg32
Nsg33
Nsg34
Nsg35
Nsg36
Nsg37
S'Perindopril'
p157
sa(dp158
g2
Nsg3
S'http://bio2rdf.org/drugbank:DB00881'
p159
sg5
S'http://bio2rdf.org/drugbank:DB01258'
p160
sg7
Nsg8
Nsg9
Nsg10
Nsg11
Nsg12
Nsg13
Nsg14
Nsg15
Nsg16
g17
sg18
Nsg19
Nsg20
Nsg21
Nsg22
S'true'
p161
sg24
Nsg25
Nsg26
S'Aliskiren'
p162
sg28
Nsg29
S'Caution_Interaction'
p163
sg31
Nsg32
Nsg33
Nsg34
Nsg35
Nsg36
Nsg37
S'Quinapril'
p164
sa(dp165
g2
Nsg3
S'http://bio2rdf.org/drugbank:DB00966'
p166
sg5
S'http://bio2rdf.org/drugbank:DB01258'
p167
sg7
Nsg8
Nsg9
Nsg10
Nsg11
Nsg12
Nsg13
Nsg14
Nsg15
Nsg16
g17
sg18
Nsg19
Nsg20
Nsg21
Nsg22
S'true'
p168
sg24
Nsg25
Nsg26
S'Aliskiren'
p169
sg28
Nsg29
S'Caution_Interaction'
p170
sg31
Nsg32
Nsg33
Nsg34
Nsg35
Nsg36
Nsg37
S'Telmisartan'
p171
sa(dp172
g2
Nsg3
S'http://bio2rdf.org/drugbank:DB00519'
p173
sg5
S'http://bio2rdf.org/drugbank:DB01258'
p174
sg7
Nsg8
Nsg9
Nsg10
Nsg11
Nsg12
Nsg13
Nsg14
Nsg15
Nsg16
g17
sg18
Nsg19
Nsg20
Nsg21
Nsg22
S'true'
p175
sg24
Nsg25
Nsg26
S'Aliskiren'
p176
sg28
Nsg29
S'Caution_Interaction'
p177
sg31
Nsg32
Nsg33
Nsg34
Nsg35
Nsg36
Nsg37
S'Trandolapril'
p178
sa(dp179
g2
Nsg3
S'http://bio2rdf.org/drugbank:DB00177'
p180
sg5
S'http://bio2rdf.org/drugbank:DB01258'
p181
sg7
Nsg8
Nsg9
Nsg10
Nsg11
Nsg12
Nsg13
Nsg14
Nsg15
Nsg16
g17
sg18
Nsg19
Nsg20
Nsg21
Nsg22
S'true'
p182
sg24
Nsg25
Nsg26
S'Aliskiren'
p183
sg28
Nsg29
S'Caution_Interaction'
p184
sg31
Nsg32
Nsg33
Nsg34
Nsg35
Nsg36
Nsg37
S'Valsartan'
p185
sa(dp186
g2
Nsg3
S'http://bio2rdf.org/drugbank:DB00390'
p187
sg5
S'http://bio2rdf.org/drugbank:DB00404'
p188
sg7
Nsg8
Nsg9
Nsg10
Nsg11
Nsg12
Nsg13
Nsg14
Nsg15
Nsg16
g17
sg18
Nsg19
Nsg20
Nsg21
Nsg22
S'true'
p189
sg24
Nsg25
Nsg26
S'Alprazolam'
p190
sg28
Nsg29
S'Increase_Interaction'
p191
sg31
Nsg32
Nsg33
Nsg34
Nsg35
Nsg36
Nsg37
S'Digoxin'
p192
sa(dp193
g2
Nsg3
S'http://bio2rdf.org/drugbank:DB00727'
p194
sg5
S'http://bio2rdf.org/drugbank:DB00009'
p195
sg7
Nsg8
Nsg9
Nsg10
Nsg11
Nsg12
Nsg13
Nsg14
Nsg15
Nsg16
g17
sg18
Nsg19
Nsg20
Nsg21
Nsg22
S'true'
p196
sg24
Nsg25
Nsg26
S'Alteplase'
p197
sg28
Nsg29
S'Decrease_Interaction'
p198
sg31
Nsg32
Nsg33
Nsg34
Nsg35
Nsg36
Nsg37
S'NITROGLYCERIN'
p199
sa(dp200
g2
Nsg3
S'http://bio2rdf.org/drugbank:DB01344'
p201
sg5
S'http://bio2rdf.org/drugbank:DB01370'
p202
sg7
Nsg8
Nsg9
Nsg10
Nsg11
Nsg12
Nsg13
Nsg14
Nsg15
Nsg16
g17
sg18
Nsg19
Nsg20
Nsg21
Nsg22
S'true'
p203
sg24
Nsg25
Nsg26
S'Aluminium'
p204
sg28
Nsg29
S'Specific_Interaction'
p205
sg31
Nsg32
Nsg33
Nsg34
Nsg35
Nsg36
Nsg37
S'Polystyrene sulfonate'
p206
sa(dp207
g2
Nsg3
S'http://bio2rdf.org/drugbank:DB00390'
p208
sg5
S'http://bio2rdf.org/drugbank:DB01118'
p209
sg7
Nsg8
Nsg9
Nsg10
Nsg11
Nsg12
Nsg13
Nsg14
Nsg15
Nsg16
g17
sg18
Nsg19
Nsg20
Nsg21
Nsg22
S'true'
p210
sg24
Nsg25
Nsg26
S'AMIODARONE'
p211
sg28
Nsg29
S'Increase_Interaction'
p212
sg31
Nsg32
Nsg33
Nsg34
Nsg35
Nsg36
Nsg37
S'Digoxin'
p213
sa(dp214
g2
Nsg3
S'http://bio2rdf.org/drugbank:DB00227'
p215
sg5
S'http://bio2rdf.org/drugbank:DB01118'
p216
sg7
Nsg8
Nsg9
Nsg10
Nsg11
Nsg12
Nsg13
Nsg14
Nsg15
Nsg16
g17
sg18
Nsg19
Nsg20
Nsg21
Nsg22
S'true'
p217
sg24
Nsg25
Nsg26
S'AMIODARONE'
p218
sg28
Nsg29
S'Caution_Interaction'
p219
sg31
Nsg32
Nsg33
Nsg34
Nsg35
Nsg36
Nsg37
S'Lovastatin'
p220
sa(dp221
g2
Nsg3
S'http://bio2rdf.org/drugbank:DB00908'
p222
sg5
S'http://bio2rdf.org/drugbank:DB01118'
p223
sg7
Nsg8
Nsg9
Nsg10
Nsg11
Nsg12
Nsg13
Nsg14
Nsg15
Nsg16
g17
sg18
Nsg19
Nsg20
Nsg21
Nsg22
S'true'
p224
sg24
Nsg25
Nsg26
S'AMIODARONE'
p225
sg28
Nsg29
S'Increase_Interaction'
p226
sg31
Nsg32
Nsg33
Nsg34
Nsg35
Nsg36
Nsg37
S'Quinidine'
p227
sa(dp228
g2
Nsg3
S'http://bio2rdf.org/drugbank:DB00641'
p229
sg5
S'http://bio2rdf.org/drugbank:DB01118'
p230
sg7
Nsg8
Nsg9
Nsg10
Nsg11
Nsg12
Nsg13
Nsg14
Nsg15
Nsg16
g17
sg18
Nsg19
Nsg20
Nsg21
Nsg22
S'true'
p231
sg24
Nsg25
Nsg26
S'AMIODARONE'
p232
sg28
Nsg29
S'Caution_Interaction'
p233
sg31
Nsg32
Nsg33
Nsg34
Nsg35
Nsg36
Nsg37
S'Simvastatin'
p234
sa(dp235
g2
Nsg3
S'http://bio2rdf.org/drugbank:DB00575'
p236
sg5
S'http://bio2rdf.org/drugbank:DB00321'
p237
sg7
Nsg8
Nsg9
Nsg10
Nsg11
Nsg12
Nsg13
Nsg14
Nsg15
Nsg16
g17
sg18
Nsg19
Nsg20
Nsg21
Nsg22
S'true'
p238
sg24
Nsg25
Nsg26
S'Amitriptyline'
p239
sg28
Nsg29
S'Specific_Interaction'
p240
sg31
Nsg32
Nsg33
Nsg34
Nsg35
Nsg36
Nsg37
S'Clonidine'
p241
sa(dp242
g2
Nsg3
S'http://bio2rdf.org/drugbank:DB01016'
p243
sg5
S'http://bio2rdf.org/drugbank:DB00559'
p244
sg7
Nsg8
Nsg9
Nsg10
Nsg11
Nsg12
Nsg13
Nsg14
Nsg15
Nsg16
g17
sg18
Nsg19
Nsg20
Nsg21
Nsg22
S'true'
p245
sg24
Nsg25
Nsg26
S'Bosentan'
p246
sg28
Nsg29
S'Caution_Interaction'
p247
sg31
Nsg32
Nsg33
Nsg34
Nsg35
Nsg36
Nsg37
S'Glyburide'
p248
sa(dp249
g2
Nsg3
S'http://bio2rdf.org/drugbank:DB00999'
p250
sg5
S'http://bio2rdf.org/drugbank:DB00564'
p251
sg7
Nsg8
Nsg9
Nsg10
Nsg11
Nsg12
Nsg13
Nsg14
Nsg15
Nsg16
g17
sg18
Nsg19
Nsg20
Nsg21
Nsg22
S'true'
p252
sg24
Nsg25
Nsg26
S'Carbamazepine'
p253
sg28
Nsg29
S'Specific_Interaction'
p254
sg31
Nsg32
Nsg33
Nsg34
Nsg35
Nsg36
Nsg37
S'Hydrochlorothiazide'
p255
sa(dp256
g2
Nsg3
S'http://bio2rdf.org/drugbank:DB00758'
p257
sg5
S'http://bio2rdf.org/drugbank:DB01166'
p258
sg7
Nsg8
Nsg9
Nsg10
Nsg11
Nsg12
Nsg13
Nsg14
Nsg15
Nsg16
g17
sg18
Nsg19
Nsg20
Nsg21
Nsg22
S'true'
p259
sg24
Nsg25
Nsg26
S'Cilostazol'
p260
sg28
Nsg29
S'Caution_Interaction'
p261
sg31
Nsg32
Nsg33
Nsg34
Nsg35
Nsg36
Nsg37
S'CLOPIDOGREL'
p262
sa(dp263
g2
Nsg3
S'http://bio2rdf.org/drugbank:DB01118'
p264
sg5
S'http://bio2rdf.org/drugbank:DB00501'
p265
sg7
Nsg8
Nsg9
Nsg10
Nsg11
Nsg12
Nsg13
Nsg14
Nsg15
Nsg16
g17
sg18
Nsg19
Nsg20
Nsg21
Nsg22
S'true'
p266
sg24
Nsg25
Nsg26
S'Cimetidine'
p267
sg28
Nsg29
S'Increase_Interaction'
p268
sg31
Nsg32
Nsg33
Nsg34
Nsg35
Nsg36
Nsg37
S'AMIODARONE'
p269
sa(dp270
g2
Nsg3
S'http://bio2rdf.org/drugbank:DB00204'
p271
sg5
S'http://bio2rdf.org/drugbank:DB00501'
p272
sg7
Nsg8
Nsg9
Nsg10
Nsg11
Nsg12
Nsg13
Nsg14
Nsg15
Nsg16
g17
sg18
Nsg19
Nsg20
Nsg21
Nsg22
S'true'
p273
sg24
Nsg25
Nsg26
S'Cimetidine'
p274
sg28
Nsg29
S'Caution_Interaction'
p275
sg31
Nsg32
Nsg33
Nsg34
Nsg35
Nsg36
Nsg37
S'Dofetilide'
p276
sa(dp277
g2
Nsg3
S'http://bio2rdf.org/drugbank:DB00204'
p278
sg5
S'http://bio2rdf.org/drugbank:DB00501'
p279
sg7
Nsg8
Nsg9
Nsg10
Nsg11
Nsg12
Nsg13
Nsg14
Nsg15
Nsg16
g17
sg18
Nsg19
Nsg20
Nsg21
Nsg22
S'true'
p280
sg24
Nsg25
Nsg26
S'Cimetidine'
p281
sg28
Nsg29
S'Increase_Interaction'
p282
sg31
Nsg32
Nsg33
Nsg34
Nsg35
Nsg36
Nsg37
S'Dofetilide'
p283
sa(dp284
g2
Nsg3
S'http://bio2rdf.org/drugbank:DB00204'
p285
sg5
S'http://bio2rdf.org/drugbank:DB00501'
p286
sg7
Nsg8
Nsg9
Nsg10
Nsg11
Nsg12
Nsg13
Nsg14
Nsg15
Nsg16
g17
sg18
Nsg19
Nsg20
Nsg21
Nsg22
S'true'
p287
sg24
Nsg25
Nsg26
S'Cimetidine'
p288
sg28
Nsg29
S'Specific_Interaction'
p289
sg31
Nsg32
Nsg33
Nsg34
Nsg35
Nsg36
Nsg37
S'Dofetilide'
p290
sa(dp291
g2
Nsg3
S'http://bio2rdf.org/drugbank:DB01023'
p292
sg5
S'http://bio2rdf.org/drugbank:DB00501'
p293
sg7
Nsg8
Nsg9
Nsg10
Nsg11
Nsg12
Nsg13
Nsg14
Nsg15
Nsg16
g17
sg18
Nsg19
Nsg20
Nsg21
Nsg22
S'true'
p294
sg24
Nsg25
Nsg26
S'Cimetidine'
p295
sg28
Nsg29
S'Increase_Interaction'
p296
sg31
Nsg32
Nsg33
Nsg34
Nsg35
Nsg36
Nsg37
S'Felodipine'
p297
sa(dp298
g2
Nsg3
S'http://bio2rdf.org/drugbank:DB05291'
p299
sg5
S'http://bio2rdf.org/drugbank:DB00501'
p300
sg7
Nsg8
Nsg9
Nsg10
Nsg11
Nsg12
Nsg13
Nsg14
Nsg15
Nsg16
g17
sg18
Nsg19
Nsg20
Nsg21
Nsg22
S'true'
p301
sg24
Nsg25
Nsg26
S'Cimetidine'
p302
sg28
Nsg29
S'Increase_Interaction'
p303
sg31
Nsg32
Nsg33
Nsg34
Nsg35
Nsg36
Nsg37
S'lidocaine patch'
p304
sa(dp305
g2
Nsg3
S'http://bio2rdf.org/drugbank:DB05291'
p306
sg5
S'http://bio2rdf.org/drugbank:DB00501'
p307
sg7
Nsg8
Nsg9
Nsg10
Nsg11
Nsg12
Nsg13
Nsg14
Nsg15
Nsg16
g17
sg18
Nsg19
Nsg20
Nsg21
Nsg22
S'true'
p308
sg24
Nsg25
Nsg26
S'Cimetidine'
p309
sg28
Nsg29
S'Specific_Interaction'
p310
sg31
Nsg32
Nsg33
Nsg34
Nsg35
Nsg36
Nsg37
S'lidocaine patch'
p311
sa(dp312
g2
Nsg3
S'http://bio2rdf.org/drugbank:DB00678'
p313
sg5
S'http://bio2rdf.org/drugbank:DB00501'
p314
sg7
Nsg8
Nsg9
Nsg10
Nsg11
Nsg12
Nsg13
Nsg14
Nsg15
Nsg16
g17
sg18
Nsg19
Nsg20
Nsg21
Nsg22
S'true'
p315
sg24
Nsg25
Nsg26
S'Cimetidine'
p316
sg28
Nsg29
S'Increase_Interaction'
p317
sg31
Nsg32
Nsg33
Nsg34
Nsg35
Nsg36
Nsg37
S'Losartan'
p318
sa(dp319
g2
Nsg3
S'http://bio2rdf.org/drugbank:DB00622'
p320
sg5
S'http://bio2rdf.org/drugbank:DB00501'
p321
sg7
Nsg8
Nsg9
Nsg10
Nsg11
Nsg12
Nsg13
Nsg14
Nsg15
Nsg16
g17
sg18
Nsg19
Nsg20
Nsg21
Nsg22
S'true'
p322
sg24
Nsg25
Nsg26
S'Cimetidine'
p323
sg28
Nsg29
S'Increase_Interaction'
p324
sg31
Nsg32
Nsg33
Nsg34
Nsg35
Nsg36
Nsg37
S'Nicardipine'
p325
sa(dp326
g2
Nsg3
S'http://bio2rdf.org/drugbank:DB00390'
p327
sg5
S'http://bio2rdf.org/drugbank:DB01211'
p328
sg7
Nsg8
Nsg9
Nsg10
Nsg11
Nsg12
Nsg13
Nsg14
Nsg15
Nsg16
g17
sg18
Nsg19
Nsg20
Nsg21
Nsg22
S'true'
p329
sg24
Nsg25
Nsg26
S'Clarithromycin'
p330
sg28
Nsg29
S'Increase_Interaction'
p331
sg31
Nsg32
Nsg33
Nsg34
Nsg35
Nsg36
Nsg37
S'Digoxin'
p332
sa(dp333
g2
Nsg3
S'http://bio2rdf.org/drugbank:DB06228'
p334
sg5
S'http://bio2rdf.org/drugbank:DB01211'
p335
sg7
Nsg8
Nsg9
Nsg10
Nsg11
Nsg12
Nsg13
Nsg14
Nsg15
Nsg16
g17
sg18
Nsg19
Nsg20
Nsg21
Nsg22
S'true'
p336
sg24
Nsg25
Nsg26
S'Clarithromycin'
p337
sg28
Nsg29
S'Increase_Interaction'
p338
sg31
Nsg32
Nsg33
Nsg34
Nsg35
Nsg36
Nsg37
S'RIVAROXABAN'
p339
sa(dp340
g2
Nsg3
S'http://bio2rdf.org/drugbank:DB06228'
p341
sg5
S'http://bio2rdf.org/drugbank:DB01211'
p342
sg7
Nsg8
Nsg9
Nsg10
Nsg11
Nsg12
Nsg13
Nsg14
Nsg15
Nsg16
g17
sg18
Nsg19
Nsg20
Nsg21
Nsg22
S'true'
p343
sg24
Nsg25
Nsg26
S'Clarithromycin'
p344
sg28
Nsg29
S'Specific_Interaction'
p345
sg31
Nsg32
Nsg33
Nsg34
Nsg35
Nsg36
Nsg37
S'RIVAROXABAN'
p346
sa(dp347
g2
Nsg3
S'http://bio2rdf.org/drugbank:DB00898'
p348
sg5
S'http://bio2rdf.org/drugbank:DB00575'
p349
sg7
Nsg8
Nsg9
Nsg10
Nsg11
Nsg12
Nsg13
Nsg14
Nsg15
Nsg16
g17
sg18
Nsg19
Nsg20
Nsg21
Nsg22
S'true'
p350
sg24
Nsg25
Nsg26
S'Clonidine'
p351
sg28
Nsg29
S'Specific_Interaction'
p352
sg31
Nsg32
Nsg33
Nsg34
Nsg35
Nsg36
Nsg37
S'Ethanol'
p353
sa(dp354
g2
Nsg3
S'http://bio2rdf.org/drugbank:DB00661'
p355
sg5
S'http://bio2rdf.org/drugbank:DB00575'
p356
sg7
Nsg8
Nsg9
Nsg10
Nsg11
Nsg12
Nsg13
Nsg14
Nsg15
Nsg16
g17
sg18
Nsg19
Nsg20
Nsg21
Nsg22
S'true'
p357
sg24
Nsg25
Nsg26
S'Clonidine'
p358
sg28
Nsg29
S'Specific_Interaction'
p359
sg31
Nsg32
Nsg33
Nsg34
Nsg35
Nsg36
Nsg37
S'Verapamil'
p360
sa(dp361
g2
Nsg3
S'http://bio2rdf.org/drugbank:DB01118'
p362
sg5
S'http://bio2rdf.org/drugbank:DB00758'
p363
sg7
Nsg8
Nsg9
Nsg10
Nsg11
Nsg12
Nsg13
Nsg14
Nsg15
Nsg16
g17
sg18
Nsg19
Nsg20
Nsg21
Nsg22
S'true'
p364
sg24
Nsg25
Nsg26
S'CLOPIDOGREL'
p365
sg28
Nsg29
S'Specific_Interaction'
p366
sg31
Nsg32
Nsg33
Nsg34
Nsg35
Nsg36
Nsg37
S'AMIODARONE'
p367
sa(dp368
g2
Nsg3
S'http://bio2rdf.org/drugbank:DB06695'
p369
sg5
S'http://bio2rdf.org/drugbank:DB00758'
p370
sg7
Nsg8
Nsg9
Nsg10
Nsg11
Nsg12
Nsg13
Nsg14
Nsg15
Nsg16
g17
sg18
Nsg19
Nsg20
Nsg21
Nsg22
S'true'
p371
sg24
Nsg25
Nsg26
S'CLOPIDOGREL'
p372
sg28
Nsg29
S'Increase_Interaction'
p373
sg31
Nsg32
Nsg33
Nsg34
Nsg35
Nsg36
Nsg37
S'Dabigatran etexilate'
p374
sa(dp375
g2
Nsg3
S'http://bio2rdf.org/drugbank:DB06228'
p376
sg5
S'http://bio2rdf.org/drugbank:DB00758'
p377
sg7
Nsg8
Nsg9
Nsg10
Nsg11
Nsg12
Nsg13
Nsg14
Nsg15
Nsg16
g17
sg18
Nsg19
Nsg20
Nsg21
Nsg22
S'true'
p378
sg24
Nsg25
Nsg26
S'CLOPIDOGREL'
p379
sg28
Nsg29
S'Specific_Interaction'
p380
sg31
Nsg32
Nsg33
Nsg34
Nsg35
Nsg36
Nsg37
S'Rivaroxaban'
p381
sa(dp382
g2
Nsg3
S'http://bio2rdf.org/drugbank:DB00641'
p383
sg5
S'http://bio2rdf.org/drugbank:DB00872'
p384
sg7
Nsg8
Nsg9
Nsg10
Nsg11
Nsg12
Nsg13
Nsg14
Nsg15
Nsg16
g17
sg18
Nsg19
Nsg20
Nsg21
Nsg22
S'true'
p385
sg24
Nsg25
Nsg26
S'Conivaptan'
p386
sg28
Nsg29
S'Increase_Interaction'
p387
sg31
Nsg32
Nsg33
Nsg34
Nsg35
Nsg36
Nsg37
S'Simvastatin'
p388
sa(dp389
g2
Nsg3
S'http://bio2rdf.org/drugbank:DB01118'
p390
sg5
S'http://bio2rdf.org/drugbank:DB06695'
p391
sg7
Nsg8
Nsg9
Nsg10
Nsg11
Nsg12
Nsg13
Nsg14
Nsg15
Nsg16
g17
sg18
Nsg19
Nsg20
Nsg21
Nsg22
S'true'
p392
sg24
Nsg25
Nsg26
S'Dabigatran etexilate'
p393
sg28
Nsg29
S'Decrease_Interaction'
p394
sg31
Nsg32
Nsg33
Nsg34
Nsg35
Nsg36
Nsg37
S'AMIODARONE'
p395
sa(dp396
g2
Nsg3
S'http://bio2rdf.org/drugbank:DB04855'
p397
sg5
S'http://bio2rdf.org/drugbank:DB06695'
p398
sg7
Nsg8
Nsg9
Nsg10
Nsg11
Nsg12
Nsg13
Nsg14
Nsg15
Nsg16
g17
sg18
Nsg19
Nsg20
Nsg21
Nsg22
S'true'
p399
sg24
Nsg25
Nsg26
S'Dabigatran etexilate'
p400
sg28
Nsg29
S'Caution_Interaction'
p401
sg31
Nsg32
Nsg33
Nsg34
Nsg35
Nsg36
Nsg37
S'Dronedarone'
p402
sa(dp403
g2
Nsg3
S'http://bio2rdf.org/drugbank:DB04855'
p404
sg5
S'http://bio2rdf.org/drugbank:DB06695'
p405
sg7
Nsg8
Nsg9
Nsg10
Nsg11
Nsg12
Nsg13
Nsg14
Nsg15
Nsg16
g17
sg18
Nsg19
Nsg20
Nsg21
Nsg22
S'true'
p406
sg24
Nsg25
Nsg26
S'Dabigatran etexilate'
p407
sg28
Nsg29
S'Increase_Interaction'
p408
sg31
Nsg32
Nsg33
Nsg34
Nsg35
Nsg36
Nsg37
S'Dronedarone'
p409
sa(dp410
g2
Nsg3
S'http://bio2rdf.org/drugbank:DB00908'
p411
sg5
S'http://bio2rdf.org/drugbank:DB01396'
p412
sg7
Nsg8
Nsg9
Nsg10
Nsg11
Nsg12
Nsg13
Nsg14
Nsg15
Nsg16
g17
sg18
Nsg19
Nsg20
Nsg21
Nsg22
S'true'
p413
sg24
Nsg25
Nsg26
S'Digitoxin'
p414
sg28
Nsg29
S'Increase_Interaction'
p415
sg31
Nsg32
Nsg33
Nsg34
Nsg35
Nsg36
Nsg37
S'Quinidine'
p416
sa(dp417
g2
Nsg3
S'http://bio2rdf.org/drugbank:DB00640'
p418
sg5
S'http://bio2rdf.org/drugbank:DB00390'
p419
sg7
Nsg8
Nsg9
Nsg10
Nsg11
Nsg12
Nsg13
Nsg14
Nsg15
Nsg16
g17
sg18
Nsg19
Nsg20
Nsg21
Nsg22
S'true'
p420
sg24
Nsg25
Nsg26
S'Digoxin'
p421
sg28
Nsg29
S'Specific_Interaction'
p422
sg31
Nsg32
Nsg33
Nsg34
Nsg35
Nsg36
Nsg37
S'Adenosine'
p423
sa(dp424
g2
Nsg3
S'http://bio2rdf.org/drugbank:DB01136'
p425
sg5
S'http://bio2rdf.org/drugbank:DB00390'
p426
sg7
Nsg8
Nsg9
Nsg10
Nsg11
Nsg12
Nsg13
Nsg14
Nsg15
Nsg16
g17
sg18
Nsg19
Nsg20
Nsg21
Nsg22
S'true'
p427
sg24
Nsg25
Nsg26
S'Digoxin'
p428
sg28
Nsg29
S'Caution_Interaction'
p429
sg31
Nsg32
Nsg33
Nsg34
Nsg35
Nsg36
Nsg37
S'Carvedilol'
p430
sa(dp431
g2
Nsg3
S'http://bio2rdf.org/drugbank:DB00343'
p432
sg5
S'http://bio2rdf.org/drugbank:DB00390'
p433
sg7
Nsg8
Nsg9
Nsg10
Nsg11
Nsg12
Nsg13
Nsg14
Nsg15
Nsg16
g17
sg18
Nsg19
Nsg20
Nsg21
Nsg22
S'true'
p434
sg24
Nsg25
Nsg26
S'Digoxin'
p435
sg28
Nsg29
S'Caution_Interaction'
p436
sg31
Nsg32
Nsg33
Nsg34
Nsg35
Nsg36
Nsg37
S'Diltiazem'
p437
sa(dp438
g2
Nsg3
S'http://bio2rdf.org/drugbank:DB00204'
p439
sg5
S'http://bio2rdf.org/drugbank:DB00390'
p440
sg7
Nsg8
Nsg9
Nsg10
Nsg11
Nsg12
Nsg13
Nsg14
Nsg15
Nsg16
g17
sg18
Nsg19
Nsg20
Nsg21
Nsg22
S'true'
p441
sg24
Nsg25
Nsg26
S'Digoxin'
p442
sg28
Nsg29
S'Specific_Interaction'
p443
sg31
Nsg32
Nsg33
Nsg34
Nsg35
Nsg36
Nsg37
S'Dofetilide'
p444
sa(dp445
g2
Nsg3
S'http://bio2rdf.org/drugbank:DB04855'
p446
sg5
S'http://bio2rdf.org/drugbank:DB00390'
p447
sg7
Nsg8
Nsg9
Nsg10
Nsg11
Nsg12
Nsg13
Nsg14
Nsg15
Nsg16
g17
sg18
Nsg19
Nsg20
Nsg21
Nsg22
S'true'
p448
sg24
Nsg25
Nsg26
S'Digoxin'
p449
sg28
Nsg29
S'Specific_Interaction'
p450
sg31
Nsg32
Nsg33
Nsg34
Nsg35
Nsg36
Nsg37
S'Dronedarone'
p451
sa(dp452
g2
Nsg3
S'http://bio2rdf.org/drugbank:DB01240'
p453
sg5
S'http://bio2rdf.org/drugbank:DB00390'
p454
sg7
Nsg8
Nsg9
Nsg10
Nsg11
Nsg12
Nsg13
Nsg14
Nsg15
Nsg16
g17
sg18
Nsg19
Nsg20
Nsg21
Nsg22
S'true'
p455
sg24
Nsg25
Nsg26
S'Digoxin'
p456
sg28
Nsg29
S'Increase_Interaction'
p457
sg31
Nsg32
Nsg33
Nsg34
Nsg35
Nsg36
Nsg37
S'Epoprostenol'
p458
sa(dp459
g2
Nsg3
S'http://bio2rdf.org/drugbank:DB00622'
p460
sg5
S'http://bio2rdf.org/drugbank:DB00390'
p461
sg7
Nsg8
Nsg9
Nsg10
Nsg11
Nsg12
Nsg13
Nsg14
Nsg15
Nsg16
g17
sg18
Nsg19
Nsg20
Nsg21
Nsg22
S'true'
p462
sg24
Nsg25
Nsg26
S'Digoxin'
p463
sg28
Nsg29
S'Caution_Interaction'
p464
sg31
Nsg32
Nsg33
Nsg34
Nsg35
Nsg36
Nsg37
S'Nicardipine'
p465
sa(dp466
g2
Nsg3
S'http://bio2rdf.org/drugbank:DB01115'
p467
sg5
S'http://bio2rdf.org/drugbank:DB00390'
p468
sg7
Nsg8
Nsg9
Nsg10
Nsg11
Nsg12
Nsg13
Nsg14
Nsg15
Nsg16
g17
sg18
Nsg19
Nsg20
Nsg21
Nsg22
S'true'
p469
sg24
Nsg25
Nsg26
S'Digoxin'
p470
sg28
Nsg29
S'Caution_Interaction'
p471
sg31
Nsg32
Nsg33
Nsg34
Nsg35
Nsg36
Nsg37
S'Nifedipine'
p472
sa(dp473
g2
Nsg3
S'http://bio2rdf.org/drugbank:DB01115'
p474
sg5
S'http://bio2rdf.org/drugbank:DB00390'
p475
sg7
Nsg8
Nsg9
Nsg10
Nsg11
Nsg12
Nsg13
Nsg14
Nsg15
Nsg16
g17
sg18
Nsg19
Nsg20
Nsg21
Nsg22
S'true'
p476
sg24
Nsg25
Nsg26
S'Digoxin'
p477
sg28
Nsg29
S'Increase_Interaction'
p478
sg31
Nsg32
Nsg33
Nsg34
Nsg35
Nsg36
Nsg37
S'Nifedipine'
p479
sa(dp480
g2
Nsg3
S'http://bio2rdf.org/drugbank:DB00966'
p481
sg5
S'http://bio2rdf.org/drugbank:DB00390'
p482
sg7
Nsg8
Nsg9
Nsg10
Nsg11
Nsg12
Nsg13
Nsg14
Nsg15
Nsg16
g17
sg18
Nsg19
Nsg20
Nsg21
Nsg22
S'true'
p483
sg24
Nsg25
Nsg26
S'Digoxin'
p484
sg28
Nsg29
S'Caution_Interaction'
p485
sg31
Nsg32
Nsg33
Nsg34
Nsg35
Nsg36
Nsg37
S'Telmisartan'
p486
sa(dp487
g2
Nsg3
S'http://bio2rdf.org/drugbank:DB00214'
p488
sg5
S'http://bio2rdf.org/drugbank:DB00390'
p489
sg7
Nsg8
Nsg9
Nsg10
Nsg11
Nsg12
Nsg13
Nsg14
Nsg15
Nsg16
g17
sg18
Nsg19
Nsg20
Nsg21
Nsg22
S'true'
p490
sg24
Nsg25
Nsg26
S'Digoxin'
p491
sg28
Nsg29
S'Increase_Interaction'
p492
sg31
Nsg32
Nsg33
Nsg34
Nsg35
Nsg36
Nsg37
S'Torasemide'
p493
sa(dp494
g2
Nsg3
S'http://bio2rdf.org/drugbank:DB00661'
p495
sg5
S'http://bio2rdf.org/drugbank:DB00390'
p496
sg7
Nsg8
Nsg9
Nsg10
Nsg11
Nsg12
Nsg13
Nsg14
Nsg15
Nsg16
g17
sg18
Nsg19
Nsg20
Nsg21
Nsg22
S'true'
p497
sg24
Nsg25
Nsg26
S'Digoxin'
p498
sg28
Nsg29
S'Caution_Interaction'
p499
sg31
Nsg32
Nsg33
Nsg34
Nsg35
Nsg36
Nsg37
S'Verapamil'
p500
sa(dp501
g2
Nsg3
S'http://bio2rdf.org/drugbank:DB00390'
p502
sg5
S'http://bio2rdf.org/drugbank:DB00343'
p503
sg7
Nsg8
Nsg9
Nsg10
Nsg11
Nsg12
Nsg13
Nsg14
Nsg15
Nsg16
g17
sg18
Nsg19
Nsg20
Nsg21
Nsg22
S'true'
p504
sg24
Nsg25
Nsg26
S'Diltiazem'
p505
sg28
Nsg29
S'Increase_Interaction'
p506
sg31
Nsg32
Nsg33
Nsg34
Nsg35
Nsg36
Nsg37
S'Digoxin'
p507
sa(dp508
g2
Nsg3
S'http://bio2rdf.org/drugbank:DB00390'
p509
sg5
S'http://bio2rdf.org/drugbank:DB01081'
p510
sg7
Nsg8
Nsg9
Nsg10
Nsg11
Nsg12
Nsg13
Nsg14
Nsg15
Nsg16
g17
sg18
Nsg19
Nsg20
Nsg21
Nsg22
S'true'
p511
sg24
Nsg25
Nsg26
S'DIPHENOXYLATE'
p512
sg28
Nsg29
S'Increase_Interaction'
p513
sg31
Nsg32
Nsg33
Nsg34
Nsg35
Nsg36
Nsg37
S'Digoxin'
p514
sa(dp515
g2
Nsg3
S'http://bio2rdf.org/drugbank:DB00640'
p516
sg5
S'http://bio2rdf.org/drugbank:DB00975'
p517
sg7
Nsg8
Nsg9
Nsg10
Nsg11
Nsg12
Nsg13
Nsg14
Nsg15
Nsg16
g17
sg18
Nsg19
Nsg20
Nsg21
Nsg22
S'true'
p518
sg24
Nsg25
Nsg26
S'Dipyridamole'
p519
sg28
Nsg29
S'Increase_Interaction'
p520
sg31
Nsg32
Nsg33
Nsg34
Nsg35
Nsg36
Nsg37
S'Adenosine'
p521
sa(dp522
g2
Nsg3
S'http://bio2rdf.org/drugbank:DB00908'
p523
sg5
S'http://bio2rdf.org/drugbank:DB00280'
p524
sg7
Nsg8
Nsg9
Nsg10
Nsg11
Nsg12
Nsg13
Nsg14
Nsg15
Nsg16
g17
sg18
Nsg19
Nsg20
Nsg21
Nsg22
S'true'
p525
sg24
Nsg25
Nsg26
S'Disopyramide'
p526
sg28
Nsg29
S'Decrease_Interaction'
p527
sg31
Nsg32
Nsg33
Nsg34
Nsg35
Nsg36
Nsg37
S'Quinidine'
p528
sa(dp529
g2
Nsg3
S'http://bio2rdf.org/drugbank:DB06695'
p530
sg5
S'http://bio2rdf.org/drugbank:DB04855'
p531
sg7
Nsg8
Nsg9
Nsg10
Nsg11
Nsg12
Nsg13
Nsg14
Nsg15
Nsg16
g17
sg18
Nsg19
Nsg20
Nsg21
Nsg22
S'true'
p532
sg24
Nsg25
Nsg26
S'Dronedarone'
p533
sg28
Nsg29
S'Caution_Interaction'
p534
sg31
Nsg32
Nsg33
Nsg34
Nsg35
Nsg36
Nsg37
S'Dabigatran etexilate'
p535
sa(dp536
g2
Nsg3
S'http://bio2rdf.org/drugbank:DB06695'
p537
sg5
S'http://bio2rdf.org/drugbank:DB04855'
p538
sg7
Nsg8
Nsg9
Nsg10
Nsg11
Nsg12
Nsg13
Nsg14
Nsg15
Nsg16
g17
sg18
Nsg19
Nsg20
Nsg21
Nsg22
S'true'
p539
sg24
Nsg25
Nsg26
S'Dronedarone'
p540
sg28
Nsg29
S'Increase_Interaction'
p541
sg31
Nsg32
Nsg33
Nsg34
Nsg35
Nsg36
Nsg37
S'DABIGATRAN ETEXILATE'
p542
sa(dp543
g2
Nsg3
S'http://bio2rdf.org/drugbank:DB00390'
p544
sg5
S'http://bio2rdf.org/drugbank:DB04855'
p545
sg7
Nsg8
Nsg9
Nsg10
Nsg11
Nsg12
Nsg13
Nsg14
Nsg15
Nsg16
g17
sg18
Nsg19
Nsg20
Nsg21
Nsg22
S'true'
p546
sg24
Nsg25
Nsg26
S'Dronedarone'
p547
sg28
Nsg29
S'Increase_Interaction'
p548
sg31
Nsg32
Nsg33
Nsg34
Nsg35
Nsg36
Nsg37
S'Digoxin'
p549
sa(dp550
g2
Nsg3
S'http://bio2rdf.org/drugbank:DB00641'
p551
sg5
S'http://bio2rdf.org/drugbank:DB04855'
p552
sg7
Nsg8
Nsg9
Nsg10
Nsg11
Nsg12
Nsg13
Nsg14
Nsg15
Nsg16
g17
sg18
Nsg19
Nsg20
Nsg21
Nsg22
S'true'
p553
sg24
Nsg25
Nsg26
S'Dronedarone'
p554
sg28
Nsg29
S'Increase_Interaction'
p555
sg31
Nsg32
Nsg33
Nsg34
Nsg35
Nsg36
Nsg37
S'Simvastatin'
p556
sa(dp557
g2
Nsg3
S'http://bio2rdf.org/drugbank:DB01344'
p558
sg5
S'http://bio2rdf.org/drugbank:DB01638'
p559
sg7
Nsg8
Nsg9
Nsg10
Nsg11
Nsg12
Nsg13
Nsg14
Nsg15
Nsg16
g17
sg18
Nsg19
Nsg20
Nsg21
Nsg22
S'true'
p560
sg24
Nsg25
Nsg26
S'D-Sorbitol'
p561
sg28
Nsg29
S'Specific_Interaction'
p562
sg31
Nsg32
Nsg33
Nsg34
Nsg35
Nsg36
Nsg37
S'Polystyrene sulfonate'
p563
sa(dp564
g2
Nsg3
S'http://bio2rdf.org/drugbank:DB00584'
p565
sg5
S'http://bio2rdf.org/drugbank:DB00700'
p566
sg7
Nsg8
Nsg9
Nsg10
Nsg11
Nsg12
Nsg13
Nsg14
Nsg15
Nsg16
g17
sg18
Nsg19
Nsg20
Nsg21
Nsg22
S'true'
p567
sg24
Nsg25
Nsg26
S'Eplerenone'
p568
sg28
Nsg29
S'Specific_Interaction'
p569
sg31
Nsg32
Nsg33
Nsg34
Nsg35
Nsg36
Nsg37
S'Enalapril'
p570
sa(dp571
g2
Nsg3
S'http://bio2rdf.org/drugbank:DB00390'
p572
sg5
S'http://bio2rdf.org/drugbank:DB01240'
p573
sg7
Nsg8
Nsg9
Nsg10
Nsg11
Nsg12
Nsg13
Nsg14
Nsg15
Nsg16
g17
sg18
Nsg19
Nsg20
Nsg21
Nsg22
S'true'
p574
sg24
Nsg25
Nsg26
S'Epoprostenol'
p575
sg28
Nsg29
S'Increase_Interaction'
p576
sg31
Nsg32
Nsg33
Nsg34
Nsg35
Nsg36
Nsg37
S'Digoxin'
p577
sa(dp578
g2
Nsg3
S'http://bio2rdf.org/drugbank:DB00695'
p579
sg5
S'http://bio2rdf.org/drugbank:DB01240'
p580
sg7
Nsg8
Nsg9
Nsg10
Nsg11
Nsg12
Nsg13
Nsg14
Nsg15
Nsg16
g17
sg18
Nsg19
Nsg20
Nsg21
Nsg22
S'true'
p581
sg24
Nsg25
Nsg26
S'Epoprostenol'
p582
sg28
Nsg29
S'Increase_Interaction'
p583
sg31
Nsg32
Nsg33
Nsg34
Nsg35
Nsg36
Nsg37
S'Furosemide'
p584
sa(dp585
g2
Nsg3
S'http://bio2rdf.org/drugbank:DB01166'
p586
sg5
S'http://bio2rdf.org/drugbank:DB00199'
p587
sg7
Nsg8
Nsg9
Nsg10
Nsg11
Nsg12
Nsg13
Nsg14
Nsg15
Nsg16
g17
sg18
Nsg19
Nsg20
Nsg21
Nsg22
S'true'
p588
sg24
Nsg25
Nsg26
S'Erythromycin'
p589
sg28
Nsg29
S'Increase_Interaction'
p590
sg31
Nsg32
Nsg33
Nsg34
Nsg35
Nsg36
Nsg37
S'Cilostazol'
p591
sa(dp592
g2
Nsg3
S'http://bio2rdf.org/drugbank:DB00390'
p593
sg5
S'http://bio2rdf.org/drugbank:DB00199'
p594
sg7
Nsg8
Nsg9
Nsg10
Nsg11
Nsg12
Nsg13
Nsg14
Nsg15
Nsg16
g17
sg18
Nsg19
Nsg20
Nsg21
Nsg22
S'true'
p595
sg24
Nsg25
Nsg26
S'Erythromycin'
p596
sg28
Nsg29
S'Increase_Interaction'
p597
sg31
Nsg32
Nsg33
Nsg34
Nsg35
Nsg36
Nsg37
S'Digoxin'
p598
sa(dp599
g2
Nsg3
S'http://bio2rdf.org/drugbank:DB01023'
p600
sg5
S'http://bio2rdf.org/drugbank:DB00199'
p601
sg7
Nsg8
Nsg9
Nsg10
Nsg11
Nsg12
Nsg13
Nsg14
Nsg15
Nsg16
g17
sg18
Nsg19
Nsg20
Nsg21
Nsg22
S'true'
p602
sg24
Nsg25
Nsg26
S'Erythromycin'
p603
sg28
Nsg29
S'Increase_Interaction'
p604
sg31
Nsg32
Nsg33
Nsg34
Nsg35
Nsg36
Nsg37
S'Felodipine'
p605
sa(dp606
g2
Nsg3
S'http://bio2rdf.org/drugbank:DB00678'
p607
sg5
S'http://bio2rdf.org/drugbank:DB00199'
p608
sg7
Nsg8
Nsg9
Nsg10
Nsg11
Nsg12
Nsg13
Nsg14
Nsg15
Nsg16
g17
sg18
Nsg19
Nsg20
Nsg21
Nsg22
S'true'
p609
sg24
Nsg25
Nsg26
S'Erythromycin'
p610
sg28
Nsg29
S'Increase_Interaction'
p611
sg31
Nsg32
Nsg33
Nsg34
Nsg35
Nsg36
Nsg37
S'Losartan'
p612
sa(dp613
g2
Nsg3
S'http://bio2rdf.org/drugbank:DB06228'
p614
sg5
S'http://bio2rdf.org/drugbank:DB00199'
p615
sg7
Nsg8
Nsg9
Nsg10
Nsg11
Nsg12
Nsg13
Nsg14
Nsg15
Nsg16
g17
sg18
Nsg19
Nsg20
Nsg21
Nsg22
S'true'
p616
sg24
Nsg25
Nsg26
S'Erythromycin'
p617
sg28
Nsg29
S'Increase_Interaction'
p618
sg31
Nsg32
Nsg33
Nsg34
Nsg35
Nsg36
Nsg37
S'RIVAROXABAN'
p619
sa(dp620
g2
Nsg3
S'http://bio2rdf.org/drugbank:DB06228'
p621
sg5
S'http://bio2rdf.org/drugbank:DB00199'
p622
sg7
Nsg8
Nsg9
Nsg10
Nsg11
Nsg12
Nsg13
Nsg14
Nsg15
Nsg16
g17
sg18
Nsg19
Nsg20
Nsg21
Nsg22
S'true'
p623
sg24
Nsg25
Nsg26
S'Erythromycin'
p624
sg28
Nsg29
S'Specific_Interaction'
p625
sg31
Nsg32
Nsg33
Nsg34
Nsg35
Nsg36
Nsg37
S'RIVAROXABAN'
p626
sa(dp627
g2
Nsg3
S'http://bio2rdf.org/drugbank:DB00661'
p628
sg5
S'http://bio2rdf.org/drugbank:DB00199'
p629
sg7
Nsg8
Nsg9
Nsg10
Nsg11
Nsg12
Nsg13
Nsg14
Nsg15
Nsg16
g17
sg18
Nsg19
Nsg20
Nsg21
Nsg22
S'true'
p630
sg24
Nsg25
Nsg26
S'Erythromycin'
p631
sg28
Nsg29
S'Increase_Interaction'
p632
sg31
Nsg32
Nsg33
Nsg34
Nsg35
Nsg36
Nsg37
S'Verapamil'
p633
sa(dp634
g2
Nsg3
S'http://bio2rdf.org/drugbank:DB00390'
p635
sg5
S'http://bio2rdf.org/drugbank:DB00187'
p636
sg7
Nsg8
Nsg9
Nsg10
Nsg11
Nsg12
Nsg13
Nsg14
Nsg15
Nsg16
g17
sg18
Nsg19
Nsg20
Nsg21
Nsg22
S'true'
p637
sg24
Nsg25
Nsg26
S'Esmolol'
p638
sg28
Nsg29
S'Increase_Interaction'
p639
sg31
Nsg32
Nsg33
Nsg34
Nsg35
Nsg36
Nsg37
S'Digoxin'
p640
sa(dp641
g2
Nsg3
S'http://bio2rdf.org/drugbank:DB00695'
p642
sg5
S'http://bio2rdf.org/drugbank:DB00187'
p643
sg7
Nsg8
Nsg9
Nsg10
Nsg11
Nsg12
Nsg13
Nsg14
Nsg15
Nsg16
g17
sg18
Nsg19
Nsg20
Nsg21
Nsg22
S'true'
p644
sg24
Nsg25
Nsg26
S'Esmolol'
p645
sg28
Nsg29
S'Caution_Interaction'
p646
sg31
Nsg32
Nsg33
Nsg34
Nsg35
Nsg36
Nsg37
S'Furosemide'
p647
sa(dp648
g2
Nsg3
S'http://bio2rdf.org/drugbank:DB00202'
p649
sg5
S'http://bio2rdf.org/drugbank:DB00187'
p650
sg7
Nsg8
Nsg9
Nsg10
Nsg11
Nsg12
Nsg13
Nsg14
Nsg15
Nsg16
g17
sg18
Nsg19
Nsg20
Nsg21
Nsg22
S'true'
p651
sg24
Nsg25
Nsg26
S'Esmolol'
p652
sg28
Nsg29
S'Specific_Interaction'
p653
sg31
Nsg32
Nsg33
Nsg34
Nsg35
Nsg36
Nsg37
S'SUCCINYLCHOLINE'
p654
sa(dp655
g2
Nsg3
S'http://bio2rdf.org/drugbank:DB00945'
p656
sg5
S'http://bio2rdf.org/drugbank:DB00898'
p657
sg7
Nsg8
Nsg9
Nsg10
Nsg11
Nsg12
Nsg13
Nsg14
Nsg15
Nsg16
g17
sg18
Nsg19
Nsg20
Nsg21
Nsg22
S'true'
p658
sg24
Nsg25
Nsg26
S'Ethanol'
p659
sg28
Nsg29
S'Specific_Interaction'
p660
sg31
Nsg32
Nsg33
Nsg34
Nsg35
Nsg36
Nsg37
S'Acetylsalicylic acid'
p661
sa(dp662
g2
Nsg3
S'http://bio2rdf.org/drugbank:DB01118'
p663
sg5
S'http://bio2rdf.org/drugbank:DB00813'
p664
sg7
Nsg8
Nsg9
Nsg10
Nsg11
Nsg12
Nsg13
Nsg14
Nsg15
Nsg16
g17
sg18
Nsg19
Nsg20
Nsg21
Nsg22
S'true'
p665
sg24
Nsg25
Nsg26
S'Fentanyl'
p666
sg28
Nsg29
S'Specific_Interaction'
p667
sg31
Nsg32
Nsg33
Nsg34
Nsg35
Nsg36
Nsg37
S'AMIODARONE'
p668
sa(dp669
g2
Nsg3
S'http://bio2rdf.org/drugbank:DB00678'
p670
sg5
S'http://bio2rdf.org/drugbank:DB00196'
p671
sg7
Nsg8
Nsg9
Nsg10
Nsg11
Nsg12
Nsg13
Nsg14
Nsg15
Nsg16
g17
sg18
Nsg19
Nsg20
Nsg21
Nsg22
S'true'
p672
sg24
Nsg25
Nsg26
S'Fluconazole'
p673
sg28
Nsg29
S'Increase_Interaction'
p674
sg31
Nsg32
Nsg33
Nsg34
Nsg35
Nsg36
Nsg37
S'Losartan'
p675
sa(dp676
g2
Nsg3
S'http://bio2rdf.org/drugbank:DB06228'
p677
sg5
S'http://bio2rdf.org/drugbank:DB00196'
p678
sg7
Nsg8
Nsg9
Nsg10
Nsg11
Nsg12
Nsg13
Nsg14
Nsg15
Nsg16
g17
sg18
Nsg19
Nsg20
Nsg21
Nsg22
S'true'
p679
sg24
Nsg25
Nsg26
S'Fluconazole'
p680
sg28
Nsg29
S'Increase_Interaction'
p681
sg31
Nsg32
Nsg33
Nsg34
Nsg35
Nsg36
Nsg37
S'RIVAROXABAN'
p682
sa(dp683
g2
Nsg3
S'http://bio2rdf.org/drugbank:DB06228'
p684
sg5
S'http://bio2rdf.org/drugbank:DB00196'
p685
sg7
Nsg8
Nsg9
Nsg10
Nsg11
Nsg12
Nsg13
Nsg14
Nsg15
Nsg16
g17
sg18
Nsg19
Nsg20
Nsg21
Nsg22
S'true'
p686
sg24
Nsg25
Nsg26
S'Fluconazole'
p687
sg28
Nsg29
S'Specific_Interaction'
p688
sg31
Nsg32
Nsg33
Nsg34
Nsg35
Nsg36
Nsg37
S'RIVAROXABAN'
p689
sa(dp690
g2
Nsg3
S'http://bio2rdf.org/drugbank:DB00211'
p691
sg5
S'http://bio2rdf.org/drugbank:DB00687'
p692
sg7
Nsg8
Nsg9
Nsg10
Nsg11
Nsg12
Nsg13
Nsg14
Nsg15
Nsg16
g17
sg18
Nsg19
Nsg20
Nsg21
Nsg22
S'true'
p693
sg24
Nsg25
Nsg26
S'Fludrocortisone'
p694
sg28
Nsg29
S'Caution_Interaction'
p695
sg31
Nsg32
Nsg33
Nsg34
Nsg35
Nsg36
Nsg37
S'Midodrine'
p696
sa(dp697
g2
Nsg3
S'http://bio2rdf.org/drugbank:DB00945'
p698
sg5
S'http://bio2rdf.org/drugbank:DB00695'
p699
sg7
Nsg8
Nsg9
Nsg10
Nsg11
Nsg12
Nsg13
Nsg14
Nsg15
Nsg16
g17
sg18
Nsg19
Nsg20
Nsg21
Nsg22
S'true'
p700
sg24
Nsg25
Nsg26
S'Furosemide'
p701
sg28
Nsg29
S'Specific_Interaction'
p702
sg31
Nsg32
Nsg33
Nsg34
Nsg35
Nsg36
Nsg37
S'Acetylsalicylic acid'
p703
sa(dp704
g2
Nsg3
S'http://bio2rdf.org/drugbank:DB01563'
p705
sg5
S'http://bio2rdf.org/drugbank:DB00695'
p706
sg7
Nsg8
Nsg9
Nsg10
Nsg11
Nsg12
Nsg13
Nsg14
Nsg15
Nsg16
g17
sg18
Nsg19
Nsg20
Nsg21
Nsg22
S'true'
p707
sg24
Nsg25
Nsg26
S'Furosemide'
p708
sg28
Nsg29
S'Caution_Interaction'
p709
sg31
Nsg32
Nsg33
Nsg34
Nsg35
Nsg36
Nsg37
S'CHLORAL HYDRATE'
p710
sa(dp711
g2
Nsg3
S'http://bio2rdf.org/drugbank:DB01285'
p712
sg5
S'http://bio2rdf.org/drugbank:DB00695'
p713
sg7
Nsg8
Nsg9
Nsg10
Nsg11
Nsg12
Nsg13
Nsg14
Nsg15
Nsg16
g17
sg18
Nsg19
Nsg20
Nsg21
Nsg22
S'true'
p714
sg24
Nsg25
Nsg26
S'Furosemide'
p715
sg28
Nsg29
S'Specific_Interaction'
p716
sg31
Nsg32
Nsg33
Nsg34
Nsg35
Nsg36
Nsg37
S'Corticotropin'
p717
sa(dp718
g2
Nsg3
S'http://bio2rdf.org/drugbank:DB01240'
p719
sg5
S'http://bio2rdf.org/drugbank:DB00695'
p720
sg7
Nsg8
Nsg9
Nsg10
Nsg11
Nsg12
Nsg13
Nsg14
Nsg15
Nsg16
g17
sg18
Nsg19
Nsg20
Nsg21
Nsg22
S'true'
p721
sg24
Nsg25
Nsg26
S'Furosemide'
p722
sg28
Nsg29
S'Increase_Interaction'
p723
sg31
Nsg32
Nsg33
Nsg34
Nsg35
Nsg36
Nsg37
S'Epoprostenol'
p724
sa(dp725
g2
Nsg3
S'http://bio2rdf.org/drugbank:DB00903'
p726
sg5
S'http://bio2rdf.org/drugbank:DB00695'
p727
sg7
Nsg8
Nsg9
Nsg10
Nsg11
Nsg12
Nsg13
Nsg14
Nsg15
Nsg16
g17
sg18
Nsg19
Nsg20
Nsg21
Nsg22
S'true'
p728
sg24
Nsg25
Nsg26
S'Furosemide'
p729
sg28
Nsg29
S'Specific_Interaction'
p730
sg31
Nsg32
Nsg33
Nsg34
Nsg35
Nsg36
Nsg37
S'Ethacrynic acid'
p731
sa(dp732
g2
Nsg3
S'http://bio2rdf.org/drugbank:DB00524'
p733
sg5
S'http://bio2rdf.org/drugbank:DB00695'
p734
sg7
Nsg8
Nsg9
Nsg10
Nsg11
Nsg12
Nsg13
Nsg14
Nsg15
Nsg16
g17
sg18
Nsg19
Nsg20
Nsg21
Nsg22
S'true'
p735
sg24
Nsg25
Nsg26
S'Furosemide'
p736
sg28
Nsg29
S'Specific_Interaction'
p737
sg31
Nsg32
Nsg33
Nsg34
Nsg35
Nsg36
Nsg37
S'Metolazone'
p738
sa(dp739
g2
Nsg3
S'http://bio2rdf.org/drugbank:DB00202'
p740
sg5
S'http://bio2rdf.org/drugbank:DB00695'
p741
sg7
Nsg8
Nsg9
Nsg10
Nsg11
Nsg12
Nsg13
Nsg14
Nsg15
Nsg16
g17
sg18
Nsg19
Nsg20
Nsg21
Nsg22
S'true'
p742
sg24
Nsg25
Nsg26
S'Furosemide'
p743
sg28
Nsg29
S'Increase_Interaction'
p744
sg31
Nsg32
Nsg33
Nsg34
Nsg35
Nsg36
Nsg37
S'SUCCINYLCHOLINE'
p745
sa(dp746
g2
Nsg3
S'http://bio2rdf.org/drugbank:DB01199'
p747
sg5
S'http://bio2rdf.org/drugbank:DB00695'
p748
sg7
Nsg8
Nsg9
Nsg10
Nsg11
Nsg12
Nsg13
Nsg14
Nsg15
Nsg16
g17
sg18
Nsg19
Nsg20
Nsg21
Nsg22
S'true'
p749
sg24
Nsg25
Nsg26
S'Furosemide'
p750
sg28
Nsg29
S'Specific_Interaction'
p751
sg31
Nsg32
Nsg33
Nsg34
Nsg35
Nsg36
Nsg37
S'TUBOCURARINE'
p752
sa(dp753
g2
Nsg3
S'http://bio2rdf.org/drugbank:DB00374'
p754
sg5
S'http://bio2rdf.org/drugbank:DB01241'
p755
sg7
Nsg8
Nsg9
Nsg10
Nsg11
Nsg12
Nsg13
Nsg14
Nsg15
Nsg16
g17
sg18
Nsg19
Nsg20
Nsg21
Nsg22
S'true'
p756
sg24
Nsg25
Nsg26
S'Gemfibrozil'
p757
sg28
Nsg29
S'Increase_Interaction'
p758
sg31
Nsg32
Nsg33
Nsg34
Nsg35
Nsg36
Nsg37
S'Treprostinil'
p759
sa(dp760
g2
Nsg3
S'http://bio2rdf.org/drugbank:DB00559'
p761
sg5
S'http://bio2rdf.org/drugbank:DB01016'
p762
sg7
Nsg8
Nsg9
Nsg10
Nsg11
Nsg12
Nsg13
Nsg14
Nsg15
Nsg16
g17
sg18
Nsg19
Nsg20
Nsg21
Nsg22
S'true'
p763
sg24
Nsg25
Nsg26
S'Glyburide'
p764
sg28
Nsg29
S'Caution_Interaction'
p765
sg31
Nsg32
Nsg33
Nsg34
Nsg35
Nsg36
Nsg37
S'Bosentan'
p766
sa(dp767
g2
Nsg3
S'http://bio2rdf.org/drugbank:DB00999'
p768
sg5
S'http://bio2rdf.org/drugbank:DB00629'
p769
sg7
Nsg8
Nsg9
Nsg10
Nsg11
Nsg12
Nsg13
Nsg14
Nsg15
Nsg16
g17
sg18
Nsg19
Nsg20
Nsg21
Nsg22
S'true'
p770
sg24
Nsg25
Nsg26
S'GUANABENZ'
p771
sg28
Nsg29
S'Increase_Interaction'
p772
sg31
Nsg32
Nsg33
Nsg34
Nsg35
Nsg36
Nsg37
S'Hydrochlorothiazide'
p773
sa(dp774
g2
Nsg3
S'http://bio2rdf.org/drugbank:DB00908'
p775
sg5
S'http://bio2rdf.org/drugbank:DB00502'
p776
sg7
Nsg8
Nsg9
Nsg10
Nsg11
Nsg12
Nsg13
Nsg14
Nsg15
Nsg16
g17
sg18
Nsg19
Nsg20
Nsg21
Nsg22
S'true'
p777
sg24
Nsg25
Nsg26
S'HALOPERIDOL'
p778
sg28
Nsg29
S'Increase_Interaction'
p779
sg31
Nsg32
Nsg33
Nsg34
Nsg35
Nsg36
Nsg37
S'Quinidine'
p780
sa(dp781
g2
Nsg3
S'http://bio2rdf.org/drugbank:DB00681'
p782
sg5
S'http://bio2rdf.org/drugbank:DB00999'
p783
sg7
Nsg8
Nsg9
Nsg10
Nsg11
Nsg12
Nsg13
Nsg14
Nsg15
Nsg16
g17
sg18
Nsg19
Nsg20
Nsg21
Nsg22
S'true'
p784
sg24
Nsg25
Nsg26
S'Hydrochlorothiazide'
p785
sg28
Nsg29
S'Specific_Interaction'
p786
sg31
Nsg32
Nsg33
Nsg34
Nsg35
Nsg36
Nsg37
S'Amphotericin B'
p787
sa(dp788
g2
Nsg3
S'http://bio2rdf.org/drugbank:DB00204'
p789
sg5
S'http://bio2rdf.org/drugbank:DB00999'
p790
sg7
Nsg8
Nsg9
Nsg10
Nsg11
Nsg12
Nsg13
Nsg14
Nsg15
Nsg16
g17
sg18
Nsg19
Nsg20
Nsg21
Nsg22
S'true'
p791
sg24
Nsg25
Nsg26
S'Hydrochlorothiazide'
p792
sg28
Nsg29
S'Increase_Interaction'
p793
sg31
Nsg32
Nsg33
Nsg34
Nsg35
Nsg36
Nsg37
S'Dofetilide'
p794
sa(dp795
g2
Nsg3
S'http://bio2rdf.org/drugbank:DB00390'
p796
sg5
S'http://bio2rdf.org/drugbank:DB00328'
p797
sg7
Nsg8
Nsg9
Nsg10
Nsg11
Nsg12
Nsg13
Nsg14
Nsg15
Nsg16
g17
sg18
Nsg19
Nsg20
Nsg21
Nsg22
S'true'
p798
sg24
Nsg25
Nsg26
S'Indomethacin'
p799
sg28
Nsg29
S'Increase_Interaction'
p800
sg31
Nsg32
Nsg33
Nsg34
Nsg35
Nsg36
Nsg37
S'Digoxin'
p801
sa(dp802
g2
Nsg3
S'http://bio2rdf.org/drugbank:DB00695'
p803
sg5
S'http://bio2rdf.org/drugbank:DB00328'
p804
sg7
Nsg8
Nsg9
Nsg10
Nsg11
Nsg12
Nsg13
Nsg14
Nsg15
Nsg16
g17
sg18
Nsg19
Nsg20
Nsg21
Nsg22
S'true'
p805
sg24
Nsg25
Nsg26
S'Indomethacin'
p806
sg28
Nsg29
S'Caution_Interaction'
p807
sg31
Nsg32
Nsg33
Nsg34
Nsg35
Nsg36
Nsg37
S'Furosemide'
p808
sa(dp809
g2
Nsg3
S'http://bio2rdf.org/drugbank:DB00695'
p810
sg5
S'http://bio2rdf.org/drugbank:DB00328'
p811
sg7
Nsg8
Nsg9
Nsg10
Nsg11
Nsg12
Nsg13
Nsg14
Nsg15
Nsg16
g17
sg18
Nsg19
Nsg20
Nsg21
Nsg22
S'true'
p812
sg24
Nsg25
Nsg26
S'Indomethacin'
p813
sg28
Nsg29
S'Specific_Interaction'
p814
sg31
Nsg32
Nsg33
Nsg34
Nsg35
Nsg36
Nsg37
S'Furosemide'
p815
sa(dp816
g2
Nsg3
S'http://bio2rdf.org/drugbank:DB00384'
p817
sg5
S'http://bio2rdf.org/drugbank:DB00328'
p818
sg7
Nsg8
Nsg9
Nsg10
Nsg11
Nsg12
Nsg13
Nsg14
Nsg15
Nsg16
g17
sg18
Nsg19
Nsg20
Nsg21
Nsg22
S'true'
p819
sg24
Nsg25
Nsg26
S'Indomethacin'
p820
sg28
Nsg29
S'Specific_Interaction'
p821
sg31
Nsg32
Nsg33
Nsg34
Nsg35
Nsg36
Nsg37
S'Triamterene'
p822
sa(dp823
g2
Nsg3
S'http://bio2rdf.org/drugbank:DB00999'
p824
sg5
S'http://bio2rdf.org/drugbank:DB01029'
p825
sg7
Nsg8
Nsg9
Nsg10
Nsg11
Nsg12
Nsg13
Nsg14
Nsg15
Nsg16
g17
sg18
Nsg19
Nsg20
Nsg21
Nsg22
S'true'
p826
sg24
Nsg25
Nsg26
S'Irbesartan'
p827
sg28
Nsg29
S'Specific_Interaction'
p828
sg31
Nsg32
Nsg33
Nsg34
Nsg35
Nsg36
Nsg37
S'Hydrochlorothiazide'
p829
sa(dp830
g2
Nsg3
S'http://bio2rdf.org/drugbank:DB01115'
p831
sg5
S'http://bio2rdf.org/drugbank:DB01029'
p832
sg7
Nsg8
Nsg9
Nsg10
Nsg11
Nsg12
Nsg13
Nsg14
Nsg15
Nsg16
g17
sg18
Nsg19
Nsg20
Nsg21
Nsg22
S'true'
p833
sg24
Nsg25
Nsg26
S'Irbesartan'
p834
sg28
Nsg29
S'Specific_Interaction'
p835
sg31
Nsg32
Nsg33
Nsg34
Nsg35
Nsg36
Nsg37
S'Nifedipine'
p836
sa(dp837
g2
Nsg3
S'http://bio2rdf.org/drugbank:DB01124'
p838
sg5
S'http://bio2rdf.org/drugbank:DB01029'
p839
sg7
Nsg8
Nsg9
Nsg10
Nsg11
Nsg12
Nsg13
Nsg14
Nsg15
Nsg16
g17
sg18
Nsg19
Nsg20
Nsg21
Nsg22
S'true'
p840
sg24
Nsg25
Nsg26
S'Irbesartan'
p841
sg28
Nsg29
S'Specific_Interaction'
p842
sg31
Nsg32
Nsg33
Nsg34
Nsg35
Nsg36
Nsg37
S'TOLBUTAMIDE'
p843
sa(dp844
g2
Nsg3
S'http://bio2rdf.org/drugbank:DB00551'
p845
sg5
S'http://bio2rdf.org/drugbank:DB01592'
p846
sg7
Nsg8
Nsg9
Nsg10
Nsg11
Nsg12
Nsg13
Nsg14
Nsg15
Nsg16
g17
sg18
Nsg19
Nsg20
Nsg21
Nsg22
S'true'
p847
sg24
Nsg25
Nsg26
S'Iron'
p848
sg28
Nsg29
S'Specific_Interaction'
p849
sg31
Nsg32
Nsg33
Nsg34
Nsg35
Nsg36
Nsg37
S'Acetohydroxamic Acid'
p850
sa(dp851
g2
Nsg3
S'http://bio2rdf.org/drugbank:DB00203'
p852
sg5
S'http://bio2rdf.org/drugbank:DB01020'
p853
sg7
Nsg8
Nsg9
Nsg10
Nsg11
Nsg12
Nsg13
Nsg14
Nsg15
Nsg16
g17
sg18
Nsg19
Nsg20
Nsg21
Nsg22
S'true'
p854
sg24
Nsg25
Nsg26
S'Isosorbide Mononitrate'
p855
sg28
Nsg29
S'Specific_Interaction'
p856
sg31
Nsg32
Nsg33
Nsg34
Nsg35
Nsg36
Nsg37
S'Sildenafil'
p857
sa(dp858
g2
Nsg3
S'http://bio2rdf.org/drugbank:DB00872'
p859
sg5
S'http://bio2rdf.org/drugbank:DB01026'
p860
sg7
Nsg8
Nsg9
Nsg10
Nsg11
Nsg12
Nsg13
Nsg14
Nsg15
Nsg16
g17
sg18
Nsg19
Nsg20
Nsg21
Nsg22
S'true'
p861
sg24
Nsg25
Nsg26
S'Ketoconazole'
p862
sg28
Nsg29
S'Increase_Interaction'
p863
sg31
Nsg32
Nsg33
Nsg34
Nsg35
Nsg36
Nsg37
S'CONIVAPTAN'
p864
sa(dp865
g2
Nsg3
S'http://bio2rdf.org/drugbank:DB00204'
p866
sg5
S'http://bio2rdf.org/drugbank:DB01026'
p867
sg7
Nsg8
Nsg9
Nsg10
Nsg11
Nsg12
Nsg13
Nsg14
Nsg15
Nsg16
g17
sg18
Nsg19
Nsg20
Nsg21
Nsg22
S'true'
p868
sg24
Nsg25
Nsg26
S'Ketoconazole'
p869
sg28
Nsg29
S'Caution_Interaction'
p870
sg31
Nsg32
Nsg33
Nsg34
Nsg35
Nsg36
Nsg37
S'Dofetilide'
p871
sa(dp872
g2
Nsg3
S'http://bio2rdf.org/drugbank:DB00204'
p873
sg5
S'http://bio2rdf.org/drugbank:DB01026'
p874
sg7
Nsg8
Nsg9
Nsg10
Nsg11
Nsg12
Nsg13
Nsg14
Nsg15
Nsg16
g17
sg18
Nsg19
Nsg20
Nsg21
Nsg22
S'true'
p875
sg24
Nsg25
Nsg26
S'Ketoconazole'
p876
sg28
Nsg29
S'Increase_Interaction'
p877
sg31
Nsg32
Nsg33
Nsg34
Nsg35
Nsg36
Nsg37
S'Dofetilide'
p878
sa(dp879
g2
Nsg3
S'http://bio2rdf.org/drugbank:DB00204'
p880
sg5
S'http://bio2rdf.org/drugbank:DB01026'
p881
sg7
Nsg8
Nsg9
Nsg10
Nsg11
Nsg12
Nsg13
Nsg14
Nsg15
Nsg16
g17
sg18
Nsg19
Nsg20
Nsg21
Nsg22
S'true'
p882
sg24
Nsg25
Nsg26
S'Ketoconazole'
p883
sg28
Nsg29
S'Specific_Interaction'
p884
sg31
Nsg32
Nsg33
Nsg34
Nsg35
Nsg36
Nsg37
S'Dofetilide'
p885
sa(dp886
g2
Nsg3
S'http://bio2rdf.org/drugbank:DB00700'
p887
sg5
S'http://bio2rdf.org/drugbank:DB01026'
p888
sg7
Nsg8
Nsg9
Nsg10
Nsg11
Nsg12
Nsg13
Nsg14
Nsg15
Nsg16
g17
sg18
Nsg19
Nsg20
Nsg21
Nsg22
S'true'
p889
sg24
Nsg25
Nsg26
S'Ketoconazole'
p890
sg28
Nsg29
S'Increase_Interaction'
p891
sg31
Nsg32
Nsg33
Nsg34
Nsg35
Nsg36
Nsg37
S'Eplerenone'
p892
sa(dp893
g2
Nsg3
S'http://bio2rdf.org/drugbank:DB06228'
p894
sg5
S'http://bio2rdf.org/drugbank:DB01026'
p895
sg7
Nsg8
Nsg9
Nsg10
Nsg11
Nsg12
Nsg13
Nsg14
Nsg15
Nsg16
g17
sg18
Nsg19
Nsg20
Nsg21
Nsg22
S'true'
p896
sg24
Nsg25
Nsg26
S'Ketoconazole'
p897
sg28
Nsg29
S'Increase_Interaction'
p898
sg31
Nsg32
Nsg33
Nsg34
Nsg35
Nsg36
Nsg37
S'RIVAROXABAN'
p899
sa(dp900
g2
Nsg3
S'http://bio2rdf.org/drugbank:DB06228'
p901
sg5
S'http://bio2rdf.org/drugbank:DB01026'
p902
sg7
Nsg8
Nsg9
Nsg10
Nsg11
Nsg12
Nsg13
Nsg14
Nsg15
Nsg16
g17
sg18
Nsg19
Nsg20
Nsg21
Nsg22
S'true'
p903
sg24
Nsg25
Nsg26
S'Ketoconazole'
p904
sg28
Nsg29
S'Specific_Interaction'
p905
sg31
Nsg32
Nsg33
Nsg34
Nsg35
Nsg36
Nsg37
S'RIVAROXABAN'
p906
sa(dp907
g2
Nsg3
S'http://bio2rdf.org/drugbank:DB00727'
p908
sg5
S'http://bio2rdf.org/drugbank:DB00598'
p909
sg7
Nsg8
Nsg9
Nsg10
Nsg11
Nsg12
Nsg13
Nsg14
Nsg15
Nsg16
g17
sg18
Nsg19
Nsg20
Nsg21
Nsg22
S'true'
p910
sg24
Nsg25
Nsg26
S'Labetalol'
p911
sg28
Nsg29
S'Specific_Interaction'
p912
sg31
Nsg32
Nsg33
Nsg34
Nsg35
Nsg36
Nsg37
S'Nitroglycerin'
p913
sa(dp914
g2
Nsg3
S'http://bio2rdf.org/drugbank:DB00758'
p915
sg5
S'http://bio2rdf.org/drugbank:DB00448'
p916
sg7
Nsg8
Nsg9
Nsg10
Nsg11
Nsg12
Nsg13
Nsg14
Nsg15
Nsg16
g17
sg18
Nsg19
Nsg20
Nsg21
Nsg22
S'true'
p917
sg24
Nsg25
Nsg26
S'Lansoprazole'
p918
sg28
Nsg29
S'Specific_Interaction'
p919
sg31
Nsg32
Nsg33
Nsg34
Nsg35
Nsg36
Nsg37
S'Clopidogrel'
p920
sa(dp921
g2
Nsg3
S'http://bio2rdf.org/drugbank:DB00775'
p922
sg5
S'http://bio2rdf.org/drugbank:DB00451'
p923
sg7
Nsg8
Nsg9
Nsg10
Nsg11
Nsg12
Nsg13
Nsg14
Nsg15
Nsg16
g17
sg18
Nsg19
Nsg20
Nsg21
Nsg22
S'true'
p924
sg24
Nsg25
Nsg26
S'LEVOTHYROXINE'
p925
sg28
Nsg29
S'Decrease_Interaction'
p926
sg31
Nsg32
Nsg33
Nsg34
Nsg35
Nsg36
Nsg37
S'Tirofiban'
p927
sa(dp928
g2
Nsg3
S'http://bio2rdf.org/drugbank:DB00328'
p929
sg5
S'http://bio2rdf.org/drugbank:DB00722'
p930
sg7
Nsg8
Nsg9
Nsg10
Nsg11
Nsg12
Nsg13
Nsg14
Nsg15
Nsg16
g17
sg18
Nsg19
Nsg20
Nsg21
Nsg22
S'true'
p931
sg24
Nsg25
Nsg26
S'Lisinopril'
p932
sg28
Nsg29
S'Decrease_Interaction'
p933
sg31
Nsg32
Nsg33
Nsg34
Nsg35
Nsg36
Nsg37
S'Indomethacin'
p934
sa(dp935
g2
Nsg3
S'http://bio2rdf.org/drugbank:DB01118'
p936
sg5
S'http://bio2rdf.org/drugbank:DB00455'
p937
sg7
Nsg8
Nsg9
Nsg10
Nsg11
Nsg12
Nsg13
Nsg14
Nsg15
Nsg16
g17
sg18
Nsg19
Nsg20
Nsg21
Nsg22
S'true'
p938
sg24
Nsg25
Nsg26
S'LORATADINE'
p939
sg28
Nsg29
S'Specific_Interaction'
p940
sg31
Nsg32
Nsg33
Nsg34
Nsg35
Nsg36
Nsg37
S'AMIODARONE'
p941
sa(dp942
g2
Nsg3
S'http://bio2rdf.org/drugbank:DB00999'
p943
sg5
S'http://bio2rdf.org/drugbank:DB00678'
p944
sg7
Nsg8
Nsg9
Nsg10
Nsg11
Nsg12
Nsg13
Nsg14
Nsg15
Nsg16
g17
sg18
Nsg19
Nsg20
Nsg21
Nsg22
S'true'
p945
sg24
Nsg25
Nsg26
S'Losartan'
p946
sg28
Nsg29
S'Specific_Interaction'
p947
sg31
Nsg32
Nsg33
Nsg34
Nsg35
Nsg36
Nsg37
S'Hydrochlorothiazide'
p948
sa(dp949
g2
Nsg3
S'http://bio2rdf.org/drugbank:DB01045'
p950
sg5
S'http://bio2rdf.org/drugbank:DB00678'
p951
sg7
Nsg8
Nsg9
Nsg10
Nsg11
Nsg12
Nsg13
Nsg14
Nsg15
Nsg16
g17
sg18
Nsg19
Nsg20
Nsg21
Nsg22
S'true'
p952
sg24
Nsg25
Nsg26
S'Losartan'
p953
sg28
Nsg29
S'Decrease_Interaction'
p954
sg31
Nsg32
Nsg33
Nsg34
Nsg35
Nsg36
Nsg37
S'Rifampicin'
p955
sa(dp956
g2
Nsg3
S'http://bio2rdf.org/drugbank:DB00390'
p957
sg5
S'http://bio2rdf.org/drugbank:DB01233'
p958
sg7
Nsg8
Nsg9
Nsg10
Nsg11
Nsg12
Nsg13
Nsg14
Nsg15
Nsg16
g17
sg18
Nsg19
Nsg20
Nsg21
Nsg22
S'true'
p959
sg24
Nsg25
Nsg26
S'METOCLOPRAMIDE'
p960
sg28
Nsg29
S'Decrease_Interaction'
p961
sg31
Nsg32
Nsg33
Nsg34
Nsg35
Nsg36
Nsg37
S'Digoxin'
p962
sa(dp963
g2
Nsg3
S'http://bio2rdf.org/drugbank:DB00695'
p964
sg5
S'http://bio2rdf.org/drugbank:DB00524'
p965
sg7
Nsg8
Nsg9
Nsg10
Nsg11
Nsg12
Nsg13
Nsg14
Nsg15
Nsg16
g17
sg18
Nsg19
Nsg20
Nsg21
Nsg22
S'true'
p966
sg24
Nsg25
Nsg26
S'Metolazone'
p967
sg28
Nsg29
S'Specific_Interaction'
p968
sg31
Nsg32
Nsg33
Nsg34
Nsg35
Nsg36
Nsg37
S'Furosemide'
p969
sa(dp970
g2
Nsg3
S'http://bio2rdf.org/drugbank:DB00575'
p971
sg5
S'http://bio2rdf.org/drugbank:DB00264'
p972
sg7
Nsg8
Nsg9
Nsg10
Nsg11
Nsg12
Nsg13
Nsg14
Nsg15
Nsg16
g17
sg18
Nsg19
Nsg20
Nsg21
Nsg22
S'true'
p973
sg24
Nsg25
Nsg26
S'Metoprolol'
p974
sg28
Nsg29
S'Caution_Interaction'
p975
sg31
Nsg32
Nsg33
Nsg34
Nsg35
Nsg36
Nsg37
S'Clonidine'
p976
sa(dp977
g2
Nsg3
S'http://bio2rdf.org/drugbank:DB00898'
p978
sg5
S'http://bio2rdf.org/drugbank:DB00765'
p979
sg7
Nsg8
Nsg9
Nsg10
Nsg11
Nsg12
Nsg13
Nsg14
Nsg15
Nsg16
g17
sg18
Nsg19
Nsg20
Nsg21
Nsg22
S'true'
p980
sg24
Nsg25
Nsg26
S'Metyrosine'
p981
sg28
Nsg29
S'Specific_Interaction'
p982
sg31
Nsg32
Nsg33
Nsg34
Nsg35
Nsg36
Nsg37
S'Ethanol'
p983
sa(dp984
g2
Nsg3
S'http://bio2rdf.org/drugbank:DB00502'
p985
sg5
S'http://bio2rdf.org/drugbank:DB00765'
p986
sg7
Nsg8
Nsg9
Nsg10
Nsg11
Nsg12
Nsg13
Nsg14
Nsg15
Nsg16
g17
sg18
Nsg19
Nsg20
Nsg21
Nsg22
S'true'
p987
sg24
Nsg25
Nsg26
S'Metyrosine'
p988
sg28
Nsg29
S'Specific_Interaction'
p989
sg31
Nsg32
Nsg33
Nsg34
Nsg35
Nsg36
Nsg37
S'HALOPERIDOL'
p990
sa(dp991
g2
Nsg3
S'http://bio2rdf.org/drugbank:DB00687'
p992
sg5
S'http://bio2rdf.org/drugbank:DB00211'
p993
sg7
Nsg8
Nsg9
Nsg10
Nsg11
Nsg12
Nsg13
Nsg14
Nsg15
Nsg16
g17
sg18
Nsg19
Nsg20
Nsg21
Nsg22
S'true'
p994
sg24
Nsg25
Nsg26
S'Midodrine'
p995
sg28
Nsg29
S'Caution_Interaction'
p996
sg31
Nsg32
Nsg33
Nsg34
Nsg35
Nsg36
Nsg37
S'Fludrocortisone'
p997
sa(dp998
g2
Nsg3
S'http://bio2rdf.org/drugbank:DB00501'
p999
sg5
S'http://bio2rdf.org/drugbank:DB01115'
p1000
sg7
Nsg8
Nsg9
Nsg10
Nsg11
Nsg12
Nsg13
Nsg14
Nsg15
Nsg16
g17
sg18
Nsg19
Nsg20
Nsg21
Nsg22
S'true'
p1001
sg24
Nsg25
Nsg26
S'Nifedipine'
p1002
sg28
Nsg29
S'Caution_Interaction'
p1003
sg31
Nsg32
Nsg33
Nsg34
Nsg35
Nsg36
Nsg37
S'Cimetidine'
p1004
sa(dp1005
g2
Nsg3
S'http://bio2rdf.org/drugbank:DB00501'
p1006
sg5
S'http://bio2rdf.org/drugbank:DB01115'
p1007
sg7
Nsg8
Nsg9
Nsg10
Nsg11
Nsg12
Nsg13
Nsg14
Nsg15
Nsg16
g17
sg18
Nsg19
Nsg20
Nsg21
Nsg22
S'true'
p1008
sg24
Nsg25
Nsg26
S'Nifedipine'
p1009
sg28
Nsg29
S'Increase_Interaction'
p1010
sg31
Nsg32
Nsg33
Nsg34
Nsg35
Nsg36
Nsg37
S'Cimetidine'
p1011
sa(dp1012
g2
Nsg3
S'http://bio2rdf.org/drugbank:DB00390'
p1013
sg5
S'http://bio2rdf.org/drugbank:DB01115'
p1014
sg7
Nsg8
Nsg9
Nsg10
Nsg11
Nsg12
Nsg13
Nsg14
Nsg15
Nsg16
g17
sg18
Nsg19
Nsg20
Nsg21
Nsg22
S'true'
p1015
sg24
Nsg25
Nsg26
S'Nifedipine'
p1016
sg28
Nsg29
S'Increase_Interaction'
p1017
sg31
Nsg32
Nsg33
Nsg34
Nsg35
Nsg36
Nsg37
S'Digoxin'
p1018
sa(dp1019
g2
Nsg3
S'http://bio2rdf.org/drugbank:DB00908'
p1020
sg5
S'http://bio2rdf.org/drugbank:DB01115'
p1021
sg7
Nsg8
Nsg9
Nsg10
Nsg11
Nsg12
Nsg13
Nsg14
Nsg15
Nsg16
g17
sg18
Nsg19
Nsg20
Nsg21
Nsg22
S'true'
p1022
sg24
Nsg25
Nsg26
S'Nifedipine'
p1023
sg28
Nsg29
S'Decrease_Interaction'
p1024
sg31
Nsg32
Nsg33
Nsg34
Nsg35
Nsg36
Nsg37
S'Quinidine'
p1025
sa(dp1026
g2
Nsg3
S'http://bio2rdf.org/drugbank:DB00252'
p1027
sg5
S'http://bio2rdf.org/drugbank:DB00401'
p1028
sg7
Nsg8
Nsg9
Nsg10
Nsg11
Nsg12
Nsg13
Nsg14
Nsg15
Nsg16
g17
sg18
Nsg19
Nsg20
Nsg21
Nsg22
S'true'
p1029
sg24
Nsg25
Nsg26
S'Nisoldipine'
p1030
sg28
Nsg29
S'Caution_Interaction'
p1031
sg31
Nsg32
Nsg33
Nsg34
Nsg35
Nsg36
Nsg37
S'Phenytoin'
p1032
sa(dp1033
g2
Nsg3
S'http://bio2rdf.org/drugbank:DB00945'
p1034
sg5
S'http://bio2rdf.org/drugbank:DB00727'
p1035
sg7
Nsg8
Nsg9
Nsg10
Nsg11
Nsg12
Nsg13
Nsg14
Nsg15
Nsg16
g17
sg18
Nsg19
Nsg20
Nsg21
Nsg22
S'true'
p1036
sg24
Nsg25
Nsg26
S'Nitroglycerin'
p1037
sg28
Nsg29
S'Specific_Interaction'
p1038
sg31
Nsg32
Nsg33
Nsg34
Nsg35
Nsg36
Nsg37
S'Acetylsalicylic acid'
p1039
sa(dp1040
g2
Nsg3
S'http://bio2rdf.org/drugbank:DB00009'
p1041
sg5
S'http://bio2rdf.org/drugbank:DB00727'
p1042
sg7
Nsg8
Nsg9
Nsg10
Nsg11
Nsg12
Nsg13
Nsg14
Nsg15
Nsg16
g17
sg18
Nsg19
Nsg20
Nsg21
Nsg22
S'true'
p1043
sg24
Nsg25
Nsg26
S'Nitroglycerin'
p1044
sg28
Nsg29
S'Caution_Interaction'
p1045
sg31
Nsg32
Nsg33
Nsg34
Nsg35
Nsg36
Nsg37
S'Alteplase'
p1046
sa(dp1047
g2
Nsg3
S'http://bio2rdf.org/drugbank:DB00203'
p1048
sg5
S'http://bio2rdf.org/drugbank:DB00727'
p1049
sg7
Nsg8
Nsg9
Nsg10
Nsg11
Nsg12
Nsg13
Nsg14
Nsg15
Nsg16
g17
sg18
Nsg19
Nsg20
Nsg21
Nsg22
S'true'
p1050
sg24
Nsg25
Nsg26
S'NITROGLYCERIN'
p1051
sg28
Nsg29
S'Specific_Interaction'
p1052
sg31
Nsg32
Nsg33
Nsg34
Nsg35
Nsg36
Nsg37
S'Sildenafil'
p1053
sa(dp1054
g2
Nsg3
S'http://bio2rdf.org/drugbank:DB00898'
p1055
sg5
S'http://bio2rdf.org/drugbank:DB01359'
p1056
sg7
Nsg8
Nsg9
Nsg10
Nsg11
Nsg12
Nsg13
Nsg14
Nsg15
Nsg16
g17
sg18
Nsg19
Nsg20
Nsg21
Nsg22
S'true'
p1057
sg24
Nsg25
Nsg26
S'Penbutolol'
p1058
sg28
Nsg29
S'Specific_Interaction'
p1059
sg31
Nsg32
Nsg33
Nsg34
Nsg35
Nsg36
Nsg37
S'Ethanol'
p1060
sa(dp1061
g2
Nsg3
S'http://bio2rdf.org/drugbank:DB05291'
p1062
sg5
S'http://bio2rdf.org/drugbank:DB01359'
p1063
sg7
Nsg8
Nsg9
Nsg10
Nsg11
Nsg12
Nsg13
Nsg14
Nsg15
Nsg16
g17
sg18
Nsg19
Nsg20
Nsg21
Nsg22
S'true'
p1064
sg24
Nsg25
Nsg26
S'Penbutolol'
p1065
sg28
Nsg29
S'Decrease_Interaction'
p1066
sg31
Nsg32
Nsg33
Nsg34
Nsg35
Nsg36
Nsg37
S'lidocaine patch'
p1067
sa(dp1068
g2
Nsg3
S'http://bio2rdf.org/drugbank:DB01197'
p1069
sg5
S'http://bio2rdf.org/drugbank:DB00806'
p1070
sg7
Nsg8
Nsg9
Nsg10
Nsg11
Nsg12
Nsg13
Nsg14
Nsg15
Nsg16
g17
sg18
Nsg19
Nsg20
Nsg21
Nsg22
S'true'
p1071
sg24
Nsg25
Nsg26
S'Pentoxifylline'
p1072
sg28
Nsg29
S'Specific_Interaction'
p1073
sg31
Nsg32
Nsg33
Nsg34
Nsg35
Nsg36
Nsg37
S'Captopril'
p1074
sa(dp1075
g2
Nsg3
S'http://bio2rdf.org/drugbank:DB01115'
p1076
sg5
S'http://bio2rdf.org/drugbank:DB00806'
p1077
sg7
Nsg8
Nsg9
Nsg10
Nsg11
Nsg12
Nsg13
Nsg14
Nsg15
Nsg16
g17
sg18
Nsg19
Nsg20
Nsg21
Nsg22
S'true'
p1078
sg24
Nsg25
Nsg26
S'Pentoxifylline'
p1079
sg28
Nsg29
S'Specific_Interaction'
p1080
sg31
Nsg32
Nsg33
Nsg34
Nsg35
Nsg36
Nsg37
S'Nifedipine'
p1081
sa(dp1082
g2
Nsg3
S'http://bio2rdf.org/drugbank:DB00678'
p1083
sg5
S'http://bio2rdf.org/drugbank:DB01174'
p1084
sg7
Nsg8
Nsg9
Nsg10
Nsg11
Nsg12
Nsg13
Nsg14
Nsg15
Nsg16
g17
sg18
Nsg19
Nsg20
Nsg21
Nsg22
S'true'
p1085
sg24
Nsg25
Nsg26
S'Phenobarbital'
p1086
sg28
Nsg29
S'Decrease_Interaction'
p1087
sg31
Nsg32
Nsg33
Nsg34
Nsg35
Nsg36
Nsg37
S'Losartan'
p1088
sa(dp1089
g2
Nsg3
S'http://bio2rdf.org/drugbank:DB00661'
p1090
sg5
S'http://bio2rdf.org/drugbank:DB01174'
p1091
sg7
Nsg8
Nsg9
Nsg10
Nsg11
Nsg12
Nsg13
Nsg14
Nsg15
Nsg16
g17
sg18
Nsg19
Nsg20
Nsg21
Nsg22
S'true'
p1092
sg24
Nsg25
Nsg26
S'PHENOBARBITAL'
p1093
sg28
Nsg29
S'Decrease_Interaction'
p1094
sg31
Nsg32
Nsg33
Nsg34
Nsg35
Nsg36
Nsg37
S'Verapamil'
p1095
sa(dp1096
g2
Nsg3
S'http://bio2rdf.org/drugbank:DB00368'
p1097
sg5
S'http://bio2rdf.org/drugbank:DB00925'
p1098
sg7
Nsg8
Nsg9
Nsg10
Nsg11
Nsg12
Nsg13
Nsg14
Nsg15
Nsg16
g17
sg18
Nsg19
Nsg20
Nsg21
Nsg22
S'true'
p1099
sg24
Nsg25
Nsg26
S'Phenoxybenzamine'
p1100
sg28
Nsg29
S'Specific_Interaction'
p1101
sg31
Nsg32
Nsg33
Nsg34
Nsg35
Nsg36
Nsg37
S'Norepinephrine'
p1102
sa(dp1103
g2
Nsg3
S'http://bio2rdf.org/drugbank:DB00206'
p1104
sg5
S'http://bio2rdf.org/drugbank:DB00925'
p1105
sg7
Nsg8
Nsg9
Nsg10
Nsg11
Nsg12
Nsg13
Nsg14
Nsg15
Nsg16
g17
sg18
Nsg19
Nsg20
Nsg21
Nsg22
S'true'
p1106
sg24
Nsg25
Nsg26
S'Phenoxybenzamine'
p1107
sg28
Nsg29
S'Specific_Interaction'
p1108
sg31
Nsg32
Nsg33
Nsg34
Nsg35
Nsg36
Nsg37
S'Reserpine'
p1109
sa(dp1110
g2
Nsg3
S'http://bio2rdf.org/drugbank:DB01118'
p1111
sg5
S'http://bio2rdf.org/drugbank:DB00252'
p1112
sg7
Nsg8
Nsg9
Nsg10
Nsg11
Nsg12
Nsg13
Nsg14
Nsg15
Nsg16
g17
sg18
Nsg19
Nsg20
Nsg21
Nsg22
S'true'
p1113
sg24
Nsg25
Nsg26
S'Phenytoin'
p1114
sg28
Nsg29
S'Decrease_Interaction'
p1115
sg31
Nsg32
Nsg33
Nsg34
Nsg35
Nsg36
Nsg37
S'AMIODARONE'
p1116
sa(dp1117
g2
Nsg3
S'http://bio2rdf.org/drugbank:DB01118'
p1118
sg5
S'http://bio2rdf.org/drugbank:DB00252'
p1119
sg7
Nsg8
Nsg9
Nsg10
Nsg11
Nsg12
Nsg13
Nsg14
Nsg15
Nsg16
g17
sg18
Nsg19
Nsg20
Nsg21
Nsg22
S'true'
p1120
sg24
Nsg25
Nsg26
S'Phenytoin'
p1121
sg28
Nsg29
S'Increase_Interaction'
p1122
sg31
Nsg32
Nsg33
Nsg34
Nsg35
Nsg36
Nsg37
S'AMIODARONE'
p1123
sa(dp1124
g2
Nsg3
S'http://bio2rdf.org/drugbank:DB00695'
p1125
sg5
S'http://bio2rdf.org/drugbank:DB00252'
p1126
sg7
Nsg8
Nsg9
Nsg10
Nsg11
Nsg12
Nsg13
Nsg14
Nsg15
Nsg16
g17
sg18
Nsg19
Nsg20
Nsg21
Nsg22
S'true'
p1127
sg24
Nsg25
Nsg26
S'Phenytoin'
p1128
sg28
Nsg29
S'Decrease_Interaction'
p1129
sg31
Nsg32
Nsg33
Nsg34
Nsg35
Nsg36
Nsg37
S'Furosemide'
p1130
sa(dp1131
g2
Nsg3
S'http://bio2rdf.org/drugbank:DB00695'
p1132
sg5
S'http://bio2rdf.org/drugbank:DB00252'
p1133
sg7
Nsg8
Nsg9
Nsg10
Nsg11
Nsg12
Nsg13
Nsg14
Nsg15
Nsg16
g17
sg18
Nsg19
Nsg20
Nsg21
Nsg22
S'true'
p1134
sg24
Nsg25
Nsg26
S'Phenytoin'
p1135
sg28
Nsg29
S'Specific_Interaction'
p1136
sg31
Nsg32
Nsg33
Nsg34
Nsg35
Nsg36
Nsg37
S'Furosemide'
p1137
sa(dp1138
g2
Nsg3
S'http://bio2rdf.org/drugbank:DB05291'
p1139
sg5
S'http://bio2rdf.org/drugbank:DB00252'
p1140
sg7
Nsg8
Nsg9
Nsg10
Nsg11
Nsg12
Nsg13
Nsg14
Nsg15
Nsg16
g17
sg18
Nsg19
Nsg20
Nsg21
Nsg22
S'true'
p1141
sg24
Nsg25
Nsg26
S'Phenytoin'
p1142
sg28
Nsg29
S'Specific_Interaction'
p1143
sg31
Nsg32
Nsg33
Nsg34
Nsg35
Nsg36
Nsg37
S'lidocaine patch'
p1144
sa(dp1145
g2
Nsg3
S'http://bio2rdf.org/drugbank:DB00451'
p1146
sg5
S'http://bio2rdf.org/drugbank:DB01344'
p1147
sg7
Nsg8
Nsg9
Nsg10
Nsg11
Nsg12
Nsg13
Nsg14
Nsg15
Nsg16
g17
sg18
Nsg19
Nsg20
Nsg21
Nsg22
S'true'
p1148
sg24
Nsg25
Nsg26
S'Polystyrene sulfonate'
p1149
sg28
Nsg29
S'Decrease_Interaction'
p1150
sg31
Nsg32
Nsg33
Nsg34
Nsg35
Nsg36
Nsg37
S'Levothyroxine'
p1151
sa(dp1152
g2
Nsg3
S'http://bio2rdf.org/drugbank:DB00898'
p1153
sg5
S'http://bio2rdf.org/drugbank:DB00457'
p1154
sg7
Nsg8
Nsg9
Nsg10
Nsg11
Nsg12
Nsg13
Nsg14
Nsg15
Nsg16
g17
sg18
Nsg19
Nsg20
Nsg21
Nsg22
S'true'
p1155
sg24
Nsg25
Nsg26
S'Prazosin'
p1156
sg28
Nsg29
S'Caution_Interaction'
p1157
sg31
Nsg32
Nsg33
Nsg34
Nsg35
Nsg36
Nsg37
S'Ethanol'
p1158
sa(dp1159
g2
Nsg3
S'http://bio2rdf.org/drugbank:DB00214'
p1160
sg5
S'http://bio2rdf.org/drugbank:DB01032'
p1161
sg7
Nsg8
Nsg9
Nsg10
Nsg11
Nsg12
Nsg13
Nsg14
Nsg15
Nsg16
g17
sg18
Nsg19
Nsg20
Nsg21
Nsg22
S'true'
p1162
sg24
Nsg25
Nsg26
S'Probenecid'
p1163
sg28
Nsg29
S'Specific_Interaction'
p1164
sg31
Nsg32
Nsg33
Nsg34
Nsg35
Nsg36
Nsg37
S'Torasemide'
p1165
sa(dp1166
g2
Nsg3
S'http://bio2rdf.org/drugbank:DB00390'
p1167
sg5
S'http://bio2rdf.org/drugbank:DB00782'
p1168
sg7
Nsg8
Nsg9
Nsg10
Nsg11
Nsg12
Nsg13
Nsg14
Nsg15
Nsg16
g17
sg18
Nsg19
Nsg20
Nsg21
Nsg22
S'true'
p1169
sg24
Nsg25
Nsg26
S'Propantheline'
p1170
sg28
Nsg29
S'Increase_Interaction'
p1171
sg31
Nsg32
Nsg33
Nsg34
Nsg35
Nsg36
Nsg37
S'Digoxin'
p1172
sa(dp1173
g2
Nsg3
S'http://bio2rdf.org/drugbank:DB00999'
p1174
sg5
S'http://bio2rdf.org/drugbank:DB00782'
p1175
sg7
Nsg8
Nsg9
Nsg10
Nsg11
Nsg12
Nsg13
Nsg14
Nsg15
Nsg16
g17
sg18
Nsg19
Nsg20
Nsg21
Nsg22
S'true'
p1176
sg24
Nsg25
Nsg26
S'Propantheline'
p1177
sg28
Nsg29
S'Increase_Interaction'
p1178
sg31
Nsg32
Nsg33
Nsg34
Nsg35
Nsg36
Nsg37
S'Hydrochlorothiazide'
p1179
sa(dp1180
g2
Nsg3
S'http://bio2rdf.org/drugbank:DB00661'
p1181
sg5
S'http://bio2rdf.org/drugbank:DB00571'
p1182
sg7
Nsg8
Nsg9
Nsg10
Nsg11
Nsg12
Nsg13
Nsg14
Nsg15
Nsg16
g17
sg18
Nsg19
Nsg20
Nsg21
Nsg22
S'true'
p1183
sg24
Nsg25
Nsg26
S'Propranolol'
p1184
sg28
Nsg29
S'Increase_Interaction'
p1185
sg31
Nsg32
Nsg33
Nsg34
Nsg35
Nsg36
Nsg37
S'Verapamil'
p1186
sa(dp1187
g2
Nsg3
S'http://bio2rdf.org/drugbank:DB01118'
p1188
sg5
S'http://bio2rdf.org/drugbank:DB00908'
p1189
sg7
Nsg8
Nsg9
Nsg10
Nsg11
Nsg12
Nsg13
Nsg14
Nsg15
Nsg16
g17
sg18
Nsg19
Nsg20
Nsg21
Nsg22
S'true'
p1190
sg24
Nsg25
Nsg26
S'Quinidine'
p1191
sg28
Nsg29
S'Increase_Interaction'
p1192
sg31
Nsg32
Nsg33
Nsg34
Nsg35
Nsg36
Nsg37
S'AMIODARONE'
p1193
sa(dp1194
g2
Nsg3
S'http://bio2rdf.org/drugbank:DB00501'
p1195
sg5
S'http://bio2rdf.org/drugbank:DB00908'
p1196
sg7
Nsg8
Nsg9
Nsg10
Nsg11
Nsg12
Nsg13
Nsg14
Nsg15
Nsg16
g17
sg18
Nsg19
Nsg20
Nsg21
Nsg22
S'true'
p1197
sg24
Nsg25
Nsg26
S'Quinidine'
p1198
sg28
Nsg29
S'Increase_Interaction'
p1199
sg31
Nsg32
Nsg33
Nsg34
Nsg35
Nsg36
Nsg37
S'Cimetidine'
p1200
sa(dp1201
g2
Nsg3
S'http://bio2rdf.org/drugbank:DB06695'
p1202
sg5
S'http://bio2rdf.org/drugbank:DB00908'
p1203
sg7
Nsg8
Nsg9
Nsg10
Nsg11
Nsg12
Nsg13
Nsg14
Nsg15
Nsg16
g17
sg18
Nsg19
Nsg20
Nsg21
Nsg22
S'true'
p1204
sg24
Nsg25
Nsg26
S'Quinidine'
p1205
sg28
Nsg29
S'Increase_Interaction'
p1206
sg31
Nsg32
Nsg33
Nsg34
Nsg35
Nsg36
Nsg37
S'Dabigatran etexilate'
p1207
sa(dp1208
g2
Nsg3
S'http://bio2rdf.org/drugbank:DB00390'
p1209
sg5
S'http://bio2rdf.org/drugbank:DB00908'
p1210
sg7
Nsg8
Nsg9
Nsg10
Nsg11
Nsg12
Nsg13
Nsg14
Nsg15
Nsg16
g17
sg18
Nsg19
Nsg20
Nsg21
Nsg22
S'true'
p1211
sg24
Nsg25
Nsg26
S'Quinidine'
p1212
sg28
Nsg29
S'Increase_Interaction'
p1213
sg31
Nsg32
Nsg33
Nsg34
Nsg35
Nsg36
Nsg37
S'Digoxin'
p1214
sa(dp1215
g2
Nsg3
S'http://bio2rdf.org/drugbank:DB01115'
p1216
sg5
S'http://bio2rdf.org/drugbank:DB00908'
p1217
sg7
Nsg8
Nsg9
Nsg10
Nsg11
Nsg12
Nsg13
Nsg14
Nsg15
Nsg16
g17
sg18
Nsg19
Nsg20
Nsg21
Nsg22
S'true'
p1218
sg24
Nsg25
Nsg26
S'Quinidine'
p1219
sg28
Nsg29
S'Decrease_Interaction'
p1220
sg31
Nsg32
Nsg33
Nsg34
Nsg35
Nsg36
Nsg37
S'Nifedipine'
p1221
sa(dp1222
g2
Nsg3
S'http://bio2rdf.org/drugbank:DB00661'
p1223
sg5
S'http://bio2rdf.org/drugbank:DB00908'
p1224
sg7
Nsg8
Nsg9
Nsg10
Nsg11
Nsg12
Nsg13
Nsg14
Nsg15
Nsg16
g17
sg18
Nsg19
Nsg20
Nsg21
Nsg22
S'true'
p1225
sg24
Nsg25
Nsg26
S'Quinidine'
p1226
sg28
Nsg29
S'Increase_Interaction'
p1227
sg31
Nsg32
Nsg33
Nsg34
Nsg35
Nsg36
Nsg37
S'Verapamil'
p1228
sa(dp1229
g2
Nsg3
S'http://bio2rdf.org/drugbank:DB00661'
p1230
sg5
S'http://bio2rdf.org/drugbank:DB00908'
p1231
sg7
Nsg8
Nsg9
Nsg10
Nsg11
Nsg12
Nsg13
Nsg14
Nsg15
Nsg16
g17
sg18
Nsg19
Nsg20
Nsg21
Nsg22
S'true'
p1232
sg24
Nsg25
Nsg26
S'Quinidine'
p1233
sg28
Nsg29
S'Specific_Interaction'
p1234
sg31
Nsg32
Nsg33
Nsg34
Nsg35
Nsg36
Nsg37
S'Verapamil'
p1235
sa(dp1236
g2
Nsg3
S'http://bio2rdf.org/drugbank:DB00966'
p1237
sg5
S'http://bio2rdf.org/drugbank:DB00178'
p1238
sg7
Nsg8
Nsg9
Nsg10
Nsg11
Nsg12
Nsg13
Nsg14
Nsg15
Nsg16
g17
sg18
Nsg19
Nsg20
Nsg21
Nsg22
S'true'
p1239
sg24
Nsg25
Nsg26
S'Ramipril'
p1240
sg28
Nsg29
S'Increase_Interaction'
p1241
sg31
Nsg32
Nsg33
Nsg34
Nsg35
Nsg36
Nsg37
S'Telmisartan'
p1242
sa(dp1243
g2
Nsg3
S'http://bio2rdf.org/drugbank:DB00908'
p1244
sg5
S'http://bio2rdf.org/drugbank:DB00206'
p1245
sg7
Nsg8
Nsg9
Nsg10
Nsg11
Nsg12
Nsg13
Nsg14
Nsg15
Nsg16
g17
sg18
Nsg19
Nsg20
Nsg21
Nsg22
S'true'
p1246
sg24
Nsg25
Nsg26
S'Reserpine'
p1247
sg28
Nsg29
S'Caution_Interaction'
p1248
sg31
Nsg32
Nsg33
Nsg34
Nsg35
Nsg36
Nsg37
S'Quinidine'
p1249
sa(dp1250
g2
Nsg3
S'http://bio2rdf.org/drugbank:DB01118'
p1251
sg5
S'http://bio2rdf.org/drugbank:DB01045'
p1252
sg7
Nsg8
Nsg9
Nsg10
Nsg11
Nsg12
Nsg13
Nsg14
Nsg15
Nsg16
g17
sg18
Nsg19
Nsg20
Nsg21
Nsg22
S'true'
p1253
sg24
Nsg25
Nsg26
S'Rifampicin'
p1254
sg28
Nsg29
S'Decrease_Interaction'
p1255
sg31
Nsg32
Nsg33
Nsg34
Nsg35
Nsg36
Nsg37
S'AMIODARONE'
p1256
sa(dp1257
g2
Nsg3
S'http://bio2rdf.org/drugbank:DB00612'
p1258
sg5
S'http://bio2rdf.org/drugbank:DB01045'
p1259
sg7
Nsg8
Nsg9
Nsg10
Nsg11
Nsg12
Nsg13
Nsg14
Nsg15
Nsg16
g17
sg18
Nsg19
Nsg20
Nsg21
Nsg22
S'true'
p1260
sg24
Nsg25
Nsg26
S'Rifampicin'
p1261
sg28
Nsg29
S'Decrease_Interaction'
p1262
sg31
Nsg32
Nsg33
Nsg34
Nsg35
Nsg36
Nsg37
S'Bisoprolol'
p1263
sa(dp1264
g2
Nsg3
S'http://bio2rdf.org/drugbank:DB06695'
p1265
sg5
S'http://bio2rdf.org/drugbank:DB01045'
p1266
sg7
Nsg8
Nsg9
Nsg10
Nsg11
Nsg12
Nsg13
Nsg14
Nsg15
Nsg16
g17
sg18
Nsg19
Nsg20
Nsg21
Nsg22
S'true'
p1267
sg24
Nsg25
Nsg26
S'Rifampicin'
p1268
sg28
Nsg29
S'Decrease_Interaction'
p1269
sg31
Nsg32
Nsg33
Nsg34
Nsg35
Nsg36
Nsg37
S'Dabigatran etexilate'
p1270
sa(dp1271
g2
Nsg3
S'http://bio2rdf.org/drugbank:DB00390'
p1272
sg5
S'http://bio2rdf.org/drugbank:DB01045'
p1273
sg7
Nsg8
Nsg9
Nsg10
Nsg11
Nsg12
Nsg13
Nsg14
Nsg15
Nsg16
g17
sg18
Nsg19
Nsg20
Nsg21
Nsg22
S'true'
p1274
sg24
Nsg25
Nsg26
S'Rifampicin'
p1275
sg28
Nsg29
S'Decrease_Interaction'
p1276
sg31
Nsg32
Nsg33
Nsg34
Nsg35
Nsg36
Nsg37
S'Digoxin'
p1277
sa(dp1278
g2
Nsg3
S'http://bio2rdf.org/drugbank:DB00678'
p1279
sg5
S'http://bio2rdf.org/drugbank:DB01045'
p1280
sg7
Nsg8
Nsg9
Nsg10
Nsg11
Nsg12
Nsg13
Nsg14
Nsg15
Nsg16
g17
sg18
Nsg19
Nsg20
Nsg21
Nsg22
S'true'
p1281
sg24
Nsg25
Nsg26
S'Rifampicin'
p1282
sg28
Nsg29
S'Decrease_Interaction'
p1283
sg31
Nsg32
Nsg33
Nsg34
Nsg35
Nsg36
Nsg37
S'Losartan'
p1284
sa(dp1285
g2
Nsg3
S'http://bio2rdf.org/drugbank:DB00374'
p1286
sg5
S'http://bio2rdf.org/drugbank:DB01045'
p1287
sg7
Nsg8
Nsg9
Nsg10
Nsg11
Nsg12
Nsg13
Nsg14
Nsg15
Nsg16
g17
sg18
Nsg19
Nsg20
Nsg21
Nsg22
S'true'
p1288
sg24
Nsg25
Nsg26
S'Rifampicin'
p1289
sg28
Nsg29
S'Decrease_Interaction'
p1290
sg31
Nsg32
Nsg33
Nsg34
Nsg35
Nsg36
Nsg37
S'Treprostinil'
p1291
sa(dp1292
g2
Nsg3
S'http://bio2rdf.org/drugbank:DB06228'
p1293
sg5
S'http://bio2rdf.org/drugbank:DB00503'
p1294
sg7
Nsg8
Nsg9
Nsg10
Nsg11
Nsg12
Nsg13
Nsg14
Nsg15
Nsg16
g17
sg18
Nsg19
Nsg20
Nsg21
Nsg22
S'true'
p1295
sg24
Nsg25
Nsg26
S'Ritonavir'
p1296
sg28
Nsg29
S'Increase_Interaction'
p1297
sg31
Nsg32
Nsg33
Nsg34
Nsg35
Nsg36
Nsg37
S'RIVAROXABAN'
p1298
sa(dp1299
g2
Nsg3
S'http://bio2rdf.org/drugbank:DB06228'
p1300
sg5
S'http://bio2rdf.org/drugbank:DB00503'
p1301
sg7
Nsg8
Nsg9
Nsg10
Nsg11
Nsg12
Nsg13
Nsg14
Nsg15
Nsg16
g17
sg18
Nsg19
Nsg20
Nsg21
Nsg22
S'true'
p1302
sg24
Nsg25
Nsg26
S'Ritonavir'
p1303
sg28
Nsg29
S'Specific_Interaction'
p1304
sg31
Nsg32
Nsg33
Nsg34
Nsg35
Nsg36
Nsg37
S'RIVAROXABAN'
p1305
sa(dp1306
g2
Nsg3
S'http://bio2rdf.org/drugbank:DB00252'
p1307
sg5
S'http://bio2rdf.org/drugbank:DB00936'
p1308
sg7
Nsg8
Nsg9
Nsg10
Nsg11
Nsg12
Nsg13
Nsg14
Nsg15
Nsg16
g17
sg18
Nsg19
Nsg20
Nsg21
Nsg22
S'true'
p1309
sg24
Nsg25
Nsg26
S'Salicyclic acid'
p1310
sg28
Nsg29
S'Decrease_Interaction'
p1311
sg31
Nsg32
Nsg33
Nsg34
Nsg35
Nsg36
Nsg37
S'Phenytoin'
p1312
sa(dp1313
g2
Nsg3
S'http://bio2rdf.org/drugbank:DB00313'
p1314
sg5
S'http://bio2rdf.org/drugbank:DB00936'
p1315
sg7
Nsg8
Nsg9
Nsg10
Nsg11
Nsg12
Nsg13
Nsg14
Nsg15
Nsg16
g17
sg18
Nsg19
Nsg20
Nsg21
Nsg22
S'true'
p1316
sg24
Nsg25
Nsg26
S'Salicyclic acid'
p1317
sg28
Nsg29
S'Increase_Interaction'
p1318
sg31
Nsg32
Nsg33
Nsg34
Nsg35
Nsg36
Nsg37
S'Valproic Acid'
p1319
sa(dp1320
g2
Nsg3
S'http://bio2rdf.org/drugbank:DB00252'
p1321
sg5
S'http://bio2rdf.org/drugbank:DB00936'
p1322
sg7
Nsg8
Nsg9
Nsg10
Nsg11
Nsg12
Nsg13
Nsg14
Nsg15
Nsg16
g17
sg18
Nsg19
Nsg20
Nsg21
Nsg22
S'true'
p1323
sg24
Nsg25
Nsg26
S'SALICYLIC ACID'
p1324
sg28
Nsg29
S'Decrease_Interaction'
p1325
sg31
Nsg32
Nsg33
Nsg34
Nsg35
Nsg36
Nsg37
S'Phenytoin'
p1326
sa(dp1327
g2
Nsg3
S'http://bio2rdf.org/drugbank:DB00313'
p1328
sg5
S'http://bio2rdf.org/drugbank:DB00936'
p1329
sg7
Nsg8
Nsg9
Nsg10
Nsg11
Nsg12
Nsg13
Nsg14
Nsg15
Nsg16
g17
sg18
Nsg19
Nsg20
Nsg21
Nsg22
S'true'
p1330
sg24
Nsg25
Nsg26
S'SALICYLIC ACID'
p1331
sg28
Nsg29
S'Increase_Interaction'
p1332
sg31
Nsg32
Nsg33
Nsg34
Nsg35
Nsg36
Nsg37
S'Valproic Acid'
p1333
sa(dp1334
g2
Nsg3
S'http://bio2rdf.org/drugbank:DB00537'
p1335
sg5
S'http://bio2rdf.org/drugbank:DB00658'
p1336
sg7
Nsg8
Nsg9
Nsg10
Nsg11
Nsg12
Nsg13
Nsg14
Nsg15
Nsg16
g17
sg18
Nsg19
Nsg20
Nsg21
Nsg22
S'true'
p1337
sg24
Nsg25
Nsg26
S'Sevelamer'
p1338
sg28
Nsg29
S'Decrease_Interaction'
p1339
sg31
Nsg32
Nsg33
Nsg34
Nsg35
Nsg36
Nsg37
S'CIPROFLOXACIN'
p1340
sa(dp1341
g2
Nsg3
S'http://bio2rdf.org/drugbank:DB00503'
p1342
sg5
S'http://bio2rdf.org/drugbank:DB00203'
p1343
sg7
Nsg8
Nsg9
Nsg10
Nsg11
Nsg12
Nsg13
Nsg14
Nsg15
Nsg16
g17
sg18
Nsg19
Nsg20
Nsg21
Nsg22
S'true'
p1344
sg24
Nsg25
Nsg26
S'Sildenafil'
p1345
sg28
Nsg29
S'Caution_Interaction'
p1346
sg31
Nsg32
Nsg33
Nsg34
Nsg35
Nsg36
Nsg37
S'Ritonavir'
p1347
sa(dp1348
g2
Nsg3
S'http://bio2rdf.org/drugbank:DB00203'
p1349
sg5
S'http://bio2rdf.org/drugbank:DB00203'
p1350
sg7
Nsg8
Nsg9
Nsg10
Nsg11
Nsg12
Nsg13
Nsg14
Nsg15
Nsg16
g17
sg18
Nsg19
Nsg20
Nsg21
Nsg22
S'true'
p1351
sg24
Nsg25
Nsg26
S'Sildenafil'
p1352
sg28
Nsg29
S'Caution_Interaction'
p1353
sg31
Nsg32
Nsg33
Nsg34
Nsg35
Nsg36
Nsg37
S'Sildenafil'
p1354
sa(dp1355
g2
Nsg3
S'http://bio2rdf.org/drugbank:DB01118'
p1356
sg5
S'http://bio2rdf.org/drugbank:DB00641'
p1357
sg7
Nsg8
Nsg9
Nsg10
Nsg11
Nsg12
Nsg13
Nsg14
Nsg15
Nsg16
g17
sg18
Nsg19
Nsg20
Nsg21
Nsg22
S'true'
p1358
sg24
Nsg25
Nsg26
S'Simvastatin'
p1359
sg28
Nsg29
S'Caution_Interaction'
p1360
sg31
Nsg32
Nsg33
Nsg34
Nsg35
Nsg36
Nsg37
S'AMIODARONE'
p1361
sa(dp1362
g2
Nsg3
S'http://bio2rdf.org/drugbank:DB00661'
p1363
sg5
S'http://bio2rdf.org/drugbank:DB00641'
p1364
sg7
Nsg8
Nsg9
Nsg10
Nsg11
Nsg12
Nsg13
Nsg14
Nsg15
Nsg16
g17
sg18
Nsg19
Nsg20
Nsg21
Nsg22
S'true'
p1365
sg24
Nsg25
Nsg26
S'Simvastatin'
p1366
sg28
Nsg29
S'Caution_Interaction'
p1367
sg31
Nsg32
Nsg33
Nsg34
Nsg35
Nsg36
Nsg37
S'Verapamil'
p1368
sa(dp1369
g2
Nsg3
S'http://bio2rdf.org/drugbank:DB00390'
p1370
sg5
S'http://bio2rdf.org/drugbank:DB00489'
p1371
sg7
Nsg8
Nsg9
Nsg10
Nsg11
Nsg12
Nsg13
Nsg14
Nsg15
Nsg16
g17
sg18
Nsg19
Nsg20
Nsg21
Nsg22
S'true'
p1372
sg24
Nsg25
Nsg26
S'Sotalol'
p1373
sg28
Nsg29
S'Specific_Interaction'
p1374
sg31
Nsg32
Nsg33
Nsg34
Nsg35
Nsg36
Nsg37
S'Digoxin'
p1375
sa(dp1376
g2
Nsg3
S'http://bio2rdf.org/drugbank:DB00390'
p1377
sg5
S'http://bio2rdf.org/drugbank:DB00421'
p1378
sg7
Nsg8
Nsg9
Nsg10
Nsg11
Nsg12
Nsg13
Nsg14
Nsg15
Nsg16
g17
sg18
Nsg19
Nsg20
Nsg21
Nsg22
S'true'
p1379
sg24
Nsg25
Nsg26
S'Spironolactone'
p1380
sg28
Nsg29
S'Increase_Interaction'
p1381
sg31
Nsg32
Nsg33
Nsg34
Nsg35
Nsg36
Nsg37
S'Digoxin'
p1382
sa(dp1383
g2
Nsg3
S'http://bio2rdf.org/drugbank:DB00328'
p1384
sg5
S'http://bio2rdf.org/drugbank:DB00421'
p1385
sg7
Nsg8
Nsg9
Nsg10
Nsg11
Nsg12
Nsg13
Nsg14
Nsg15
Nsg16
g17
sg18
Nsg19
Nsg20
Nsg21
Nsg22
S'true'
p1386
sg24
Nsg25
Nsg26
S'Spironolactone'
p1387
sg28
Nsg29
S'Specific_Interaction'
p1388
sg31
Nsg32
Nsg33
Nsg34
Nsg35
Nsg36
Nsg37
S'Indomethacin'
p1389
sa(dp1390
g2
Nsg3
S'http://bio2rdf.org/drugbank:DB00384'
p1391
sg5
S'http://bio2rdf.org/drugbank:DB00421'
p1392
sg7
Nsg8
Nsg9
Nsg10
Nsg11
Nsg12
Nsg13
Nsg14
Nsg15
Nsg16
g17
sg18
Nsg19
Nsg20
Nsg21
Nsg22
S'true'
p1393
sg24
Nsg25
Nsg26
S'Spironolactone'
p1394
sg28
Nsg29
S'Specific_Interaction'
p1395
sg31
Nsg32
Nsg33
Nsg34
Nsg35
Nsg36
Nsg37
S'Triamterene'
p1396
sa(dp1397
g2
Nsg3
S'http://bio2rdf.org/drugbank:DB00390'
p1398
sg5
S'http://bio2rdf.org/drugbank:DB00795'
p1399
sg7
Nsg8
Nsg9
Nsg10
Nsg11
Nsg12
Nsg13
Nsg14
Nsg15
Nsg16
g17
sg18
Nsg19
Nsg20
Nsg21
Nsg22
S'true'
p1400
sg24
Nsg25
Nsg26
S'Sulfasalazine'
p1401
sg28
Nsg29
S'Decrease_Interaction'
p1402
sg31
Nsg32
Nsg33
Nsg34
Nsg35
Nsg36
Nsg37
S'Digoxin'
p1403
sa(dp1404
g2
Nsg3
S'http://bio2rdf.org/drugbank:DB00758'
p1405
sg5
S'http://bio2rdf.org/drugbank:DB05351'
p1406
sg7
Nsg8
Nsg9
Nsg10
Nsg11
Nsg12
Nsg13
Nsg14
Nsg15
Nsg16
g17
sg18
Nsg19
Nsg20
Nsg21
Nsg22
S'true'
p1407
sg24
Nsg25
Nsg26
S'TAK-390MR'
p1408
sg28
Nsg29
S'Specific_Interaction'
p1409
sg31
Nsg32
Nsg33
Nsg34
Nsg35
Nsg36
Nsg37
S'Clopidogrel'
p1410
sa(dp1411
g2
Nsg3
S'http://bio2rdf.org/drugbank:DB00390'
p1412
sg5
S'http://bio2rdf.org/drugbank:DB00966'
p1413
sg7
Nsg8
Nsg9
Nsg10
Nsg11
Nsg12
Nsg13
Nsg14
Nsg15
Nsg16
g17
sg18
Nsg19
Nsg20
Nsg21
Nsg22
S'true'
p1414
sg24
Nsg25
Nsg26
S'Telmisartan'
p1415
sg28
Nsg29
S'Increase_Interaction'
p1416
sg31
Nsg32
Nsg33
Nsg34
Nsg35
Nsg36
Nsg37
S'Digoxin'
p1417
sa(dp1418
g2
Nsg3
S'http://bio2rdf.org/drugbank:DB00178'
p1419
sg5
S'http://bio2rdf.org/drugbank:DB00966'
p1420
sg7
Nsg8
Nsg9
Nsg10
Nsg11
Nsg12
Nsg13
Nsg14
Nsg15
Nsg16
g17
sg18
Nsg19
Nsg20
Nsg21
Nsg22
S'true'
p1421
sg24
Nsg25
Nsg26
S'Telmisartan'
p1422
sg28
Nsg29
S'Caution_Interaction'
p1423
sg31
Nsg32
Nsg33
Nsg34
Nsg35
Nsg36
Nsg37
S'Ramipril'
p1424
sa(dp1425
g2
Nsg3
S'http://bio2rdf.org/drugbank:DB00178'
p1426
sg5
S'http://bio2rdf.org/drugbank:DB00966'
p1427
sg7
Nsg8
Nsg9
Nsg10
Nsg11
Nsg12
Nsg13
Nsg14
Nsg15
Nsg16
g17
sg18
Nsg19
Nsg20
Nsg21
Nsg22
S'true'
p1428
sg24
Nsg25
Nsg26
S'Telmisartan'
p1429
sg28
Nsg29
S'Increase_Interaction'
p1430
sg31
Nsg32
Nsg33
Nsg34
Nsg35
Nsg36
Nsg37
S'Ramipril'
p1431
sa(dp1432
g2
Nsg3
S'http://bio2rdf.org/drugbank:DB00178'
p1433
sg5
S'http://bio2rdf.org/drugbank:DB00966'
p1434
sg7
Nsg8
Nsg9
Nsg10
Nsg11
Nsg12
Nsg13
Nsg14
Nsg15
Nsg16
g17
sg18
Nsg19
Nsg20
Nsg21
Nsg22
S'true'
p1435
sg24
Nsg25
Nsg26
S'Telmisartan'
p1436
sg28
Nsg29
S'Specific_Interaction'
p1437
sg31
Nsg32
Nsg33
Nsg34
Nsg35
Nsg36
Nsg37
S'Ramipril'
p1438
sa(dp1439
g2
Nsg3
S'http://bio2rdf.org/drugbank:DB00945'
p1440
sg5
S'http://bio2rdf.org/drugbank:DB00775'
p1441
sg7
Nsg8
Nsg9
Nsg10
Nsg11
Nsg12
Nsg13
Nsg14
Nsg15
Nsg16
g17
sg18
Nsg19
Nsg20
Nsg21
Nsg22
S'true'
p1442
sg24
Nsg25
Nsg26
S'Tirofiban'
p1443
sg28
Nsg29
S'Specific_Interaction'
p1444
sg31
Nsg32
Nsg33
Nsg34
Nsg35
Nsg36
Nsg37
S'Acetylsalicylic acid'
p1445
sa(dp1446
g2
Nsg3
S'http://bio2rdf.org/drugbank:DB00390'
p1447
sg5
S'http://bio2rdf.org/drugbank:DB06212'
p1448
sg7
Nsg8
Nsg9
Nsg10
Nsg11
Nsg12
Nsg13
Nsg14
Nsg15
Nsg16
g17
sg18
Nsg19
Nsg20
Nsg21
Nsg22
S'true'
p1449
sg24
Nsg25
Nsg26
S'Tolvaptan'
p1450
sg28
Nsg29
S'Increase_Interaction'
p1451
sg31
Nsg32
Nsg33
Nsg34
Nsg35
Nsg36
Nsg37
S'Digoxin'
p1452
sa(dp1453
g2
Nsg3
S'http://bio2rdf.org/drugbank:DB00227'
p1454
sg5
S'http://bio2rdf.org/drugbank:DB06212'
p1455
sg7
Nsg8
Nsg9
Nsg10
Nsg11
Nsg12
Nsg13
Nsg14
Nsg15
Nsg16
g17
sg18
Nsg19
Nsg20
Nsg21
Nsg22
S'true'
p1456
sg24
Nsg25
Nsg26
S'Tolvaptan'
p1457
sg28
Nsg29
S'Increase_Interaction'
p1458
sg31
Nsg32
Nsg33
Nsg34
Nsg35
Nsg36
Nsg37
S'Lovastatin'
p1459
sa(dp1460
g2
Nsg3
S'http://bio2rdf.org/drugbank:DB01045'
p1461
sg5
S'http://bio2rdf.org/drugbank:DB06212'
p1462
sg7
Nsg8
Nsg9
Nsg10
Nsg11
Nsg12
Nsg13
Nsg14
Nsg15
Nsg16
g17
sg18
Nsg19
Nsg20
Nsg21
Nsg22
S'true'
p1463
sg24
Nsg25
Nsg26
S'Tolvaptan'
p1464
sg28
Nsg29
S'Specific_Interaction'
p1465
sg31
Nsg32
Nsg33
Nsg34
Nsg35
Nsg36
Nsg37
S'Rifampicin'
p1466
sa(dp1467
g2
Nsg3
S'http://bio2rdf.org/drugbank:DB00328'
p1468
sg5
S'http://bio2rdf.org/drugbank:DB00214'
p1469
sg7
Nsg8
Nsg9
Nsg10
Nsg11
Nsg12
Nsg13
Nsg14
Nsg15
Nsg16
g17
sg18
Nsg19
Nsg20
Nsg21
Nsg22
S'true'
p1470
sg24
Nsg25
Nsg26
S'Torasemide'
p1471
sg28
Nsg29
S'Specific_Interaction'
p1472
sg31
Nsg32
Nsg33
Nsg34
Nsg35
Nsg36
Nsg37
S'Indomethacin'
p1473
sa(dp1474
g2
Nsg3
S'http://bio2rdf.org/drugbank:DB00421'
p1475
sg5
S'http://bio2rdf.org/drugbank:DB00214'
p1476
sg7
Nsg8
Nsg9
Nsg10
Nsg11
Nsg12
Nsg13
Nsg14
Nsg15
Nsg16
g17
sg18
Nsg19
Nsg20
Nsg21
Nsg22
S'true'
p1477
sg24
Nsg25
Nsg26
S'Torasemide'
p1478
sg28
Nsg29
S'Increase_Interaction'
p1479
sg31
Nsg32
Nsg33
Nsg34
Nsg35
Nsg36
Nsg37
S'Spironolactone'
p1480
sa(dp1481
g2
Nsg3
S'http://bio2rdf.org/drugbank:DB01118'
p1482
sg5
S'http://bio2rdf.org/drugbank:DB00656'
p1483
sg7
Nsg8
Nsg9
Nsg10
Nsg11
Nsg12
Nsg13
Nsg14
Nsg15
Nsg16
g17
sg18
Nsg19
Nsg20
Nsg21
Nsg22
S'true'
p1484
sg24
Nsg25
Nsg26
S'TRAZODONE'
p1485
sg28
Nsg29
S'Specific_Interaction'
p1486
sg31
Nsg32
Nsg33
Nsg34
Nsg35
Nsg36
Nsg37
S'AMIODARONE'
p1487
sa(dp1488
g2
Nsg3
S'http://bio2rdf.org/drugbank:DB00672'
p1489
sg5
S'http://bio2rdf.org/drugbank:DB00384'
p1490
sg7
Nsg8
Nsg9
Nsg10
Nsg11
Nsg12
Nsg13
Nsg14
Nsg15
Nsg16
g17
sg18
Nsg19
Nsg20
Nsg21
Nsg22
S'true'
p1491
sg24
Nsg25
Nsg26
S'Triamterene'
p1492
sg28
Nsg29
S'Specific_Interaction'
p1493
sg31
Nsg32
Nsg33
Nsg34
Nsg35
Nsg36
Nsg37
S'CHLORPROPAMIDE'
p1494
sa(dp1495
g2
Nsg3
S'http://bio2rdf.org/drugbank:DB00908'
p1496
sg5
S'http://bio2rdf.org/drugbank:DB00384'
p1497
sg7
Nsg8
Nsg9
Nsg10
Nsg11
Nsg12
Nsg13
Nsg14
Nsg15
Nsg16
g17
sg18
Nsg19
Nsg20
Nsg21
Nsg22
S'true'
p1498
sg24
Nsg25
Nsg26
S'Triamterene'
p1499
sg28
Nsg29
S'Specific_Interaction'
p1500
sg31
Nsg32
Nsg33
Nsg34
Nsg35
Nsg36
Nsg37
S'Quinidine'
p1501
sa(dp1502
g2
Nsg3
S'http://bio2rdf.org/drugbank:DB00204'
p1503
sg5
S'http://bio2rdf.org/drugbank:DB00440'
p1504
sg7
Nsg8
Nsg9
Nsg10
Nsg11
Nsg12
Nsg13
Nsg14
Nsg15
Nsg16
g17
sg18
Nsg19
Nsg20
Nsg21
Nsg22
S'true'
p1505
sg24
Nsg25
Nsg26
S'TRIMETHOPRIM'
p1506
sg28
Nsg29
S'Caution_Interaction'
p1507
sg31
Nsg32
Nsg33
Nsg34
Nsg35
Nsg36
Nsg37
S'Dofetilide'
p1508
sa(dp1509
g2
Nsg3
S'http://bio2rdf.org/drugbank:DB00204'
p1510
sg5
S'http://bio2rdf.org/drugbank:DB00440'
p1511
sg7
Nsg8
Nsg9
Nsg10
Nsg11
Nsg12
Nsg13
Nsg14
Nsg15
Nsg16
g17
sg18
Nsg19
Nsg20
Nsg21
Nsg22
S'true'
p1512
sg24
Nsg25
Nsg26
S'TRIMETHOPRIM'
p1513
sg28
Nsg29
S'Specific_Interaction'
p1514
sg31
Nsg32
Nsg33
Nsg34
Nsg35
Nsg36
Nsg37
S'Dofetilide'
p1515
sa(dp1516
g2
Nsg3
S'http://bio2rdf.org/drugbank:DB00945'
p1517
sg5
S'http://bio2rdf.org/drugbank:DB00661'
p1518
sg7
Nsg8
Nsg9
Nsg10
Nsg11
Nsg12
Nsg13
Nsg14
Nsg15
Nsg16
g17
sg18
Nsg19
Nsg20
Nsg21
Nsg22
S'true'
p1519
sg24
Nsg25
Nsg26
S'Verapamil'
p1520
sg28
Nsg29
S'Specific_Interaction'
p1521
sg31
Nsg32
Nsg33
Nsg34
Nsg35
Nsg36
Nsg37
S'Acetylsalicylic acid'
p1522
sa(dp1523
g2
Nsg3
S'http://bio2rdf.org/drugbank:DB00640'
p1524
sg5
S'http://bio2rdf.org/drugbank:DB00661'
p1525
sg7
Nsg8
Nsg9
Nsg10
Nsg11
Nsg12
Nsg13
Nsg14
Nsg15
Nsg16
g17
sg18
Nsg19
Nsg20
Nsg21
Nsg22
S'true'
p1526
sg24
Nsg25
Nsg26
S'Verapamil'
p1527
sg28
Nsg29
S'Specific_Interaction'
p1528
sg31
Nsg32
Nsg33
Nsg34
Nsg35
Nsg36
Nsg37
S'Adenosine'
p1529
sa(dp1530
g2
Nsg3
S'http://bio2rdf.org/drugbank:DB00918'
p1531
sg5
S'http://bio2rdf.org/drugbank:DB00661'
p1532
sg7
Nsg8
Nsg9
Nsg10
Nsg11
Nsg12
Nsg13
Nsg14
Nsg15
Nsg16
g17
sg18
Nsg19
Nsg20
Nsg21
Nsg22
S'true'
p1533
sg24
Nsg25
Nsg26
S'Verapamil'
p1534
sg28
Nsg29
S'Increase_Interaction'
p1535
sg31
Nsg32
Nsg33
Nsg34
Nsg35
Nsg36
Nsg37
S'Almotriptan'
p1536
sa(dp1537
g2
Nsg3
S'http://bio2rdf.org/drugbank:DB00490'
p1538
sg5
S'http://bio2rdf.org/drugbank:DB00661'
p1539
sg7
Nsg8
Nsg9
Nsg10
Nsg11
Nsg12
Nsg13
Nsg14
Nsg15
Nsg16
g17
sg18
Nsg19
Nsg20
Nsg21
Nsg22
S'true'
p1540
sg24
Nsg25
Nsg26
S'Verapamil'
p1541
sg28
Nsg29
S'Increase_Interaction'
p1542
sg31
Nsg32
Nsg33
Nsg34
Nsg35
Nsg36
Nsg37
S'Buspirone'
p1543
sa(dp1544
g2
Nsg3
S'http://bio2rdf.org/drugbank:DB00564'
p1545
sg5
S'http://bio2rdf.org/drugbank:DB00661'
p1546
sg7
Nsg8
Nsg9
Nsg10
Nsg11
Nsg12
Nsg13
Nsg14
Nsg15
Nsg16
g17
sg18
Nsg19
Nsg20
Nsg21
Nsg22
S'true'
p1547
sg24
Nsg25
Nsg26
S'Verapamil'
p1548
sg28
Nsg29
S'Increase_Interaction'
p1549
sg31
Nsg32
Nsg33
Nsg34
Nsg35
Nsg36
Nsg37
S'Carbamazepine'
p1550
sa(dp1551
g2
Nsg3
S'http://bio2rdf.org/drugbank:DB00575'
p1552
sg5
S'http://bio2rdf.org/drugbank:DB00661'
p1553
sg7
Nsg8
Nsg9
Nsg10
Nsg11
Nsg12
Nsg13
Nsg14
Nsg15
Nsg16
g17
sg18
Nsg19
Nsg20
Nsg21
Nsg22
S'true'
p1554
sg24
Nsg25
Nsg26
S'Verapamil'
p1555
sg28
Nsg29
S'Caution_Interaction'
p1556
sg31
Nsg32
Nsg33
Nsg34
Nsg35
Nsg36
Nsg37
S'Clonidine'
p1557
sa(dp1558
g2
Nsg3
S'http://bio2rdf.org/drugbank:DB06695'
p1559
sg5
S'http://bio2rdf.org/drugbank:DB00661'
p1560
sg7
Nsg8
Nsg9
Nsg10
Nsg11
Nsg12
Nsg13
Nsg14
Nsg15
Nsg16
g17
sg18
Nsg19
Nsg20
Nsg21
Nsg22
S'true'
p1561
sg24
Nsg25
Nsg26
S'Verapamil'
p1562
sg28
Nsg29
S'Increase_Interaction'
p1563
sg31
Nsg32
Nsg33
Nsg34
Nsg35
Nsg36
Nsg37
S'Dabigatran etexilate'
p1564
sa(dp1565
g2
Nsg3
S'http://bio2rdf.org/drugbank:DB01396'
p1566
sg5
S'http://bio2rdf.org/drugbank:DB00661'
p1567
sg7
Nsg8
Nsg9
Nsg10
Nsg11
Nsg12
Nsg13
Nsg14
Nsg15
Nsg16
g17
sg18
Nsg19
Nsg20
Nsg21
Nsg22
S'true'
p1568
sg24
Nsg25
Nsg26
S'Verapamil'
p1569
sg28
Nsg29
S'Increase_Interaction'
p1570
sg31
Nsg32
Nsg33
Nsg34
Nsg35
Nsg36
Nsg37
S'Digitoxin'
p1571
sa(dp1572
g2
Nsg3
S'http://bio2rdf.org/drugbank:DB00390'
p1573
sg5
S'http://bio2rdf.org/drugbank:DB00661'
p1574
sg7
Nsg8
Nsg9
Nsg10
Nsg11
Nsg12
Nsg13
Nsg14
Nsg15
Nsg16
g17
sg18
Nsg19
Nsg20
Nsg21
Nsg22
S'true'
p1575
sg24
Nsg25
Nsg26
S'Verapamil'
p1576
sg28
Nsg29
S'Increase_Interaction'
p1577
sg31
Nsg32
Nsg33
Nsg34
Nsg35
Nsg36
Nsg37
S'Digoxin'
p1578
sa(dp1579
g2
Nsg3
S'http://bio2rdf.org/drugbank:DB00390'
p1580
sg5
S'http://bio2rdf.org/drugbank:DB00661'
p1581
sg7
Nsg8
Nsg9
Nsg10
Nsg11
Nsg12
Nsg13
Nsg14
Nsg15
Nsg16
g17
sg18
Nsg19
Nsg20
Nsg21
Nsg22
S'true'
p1582
sg24
Nsg25
Nsg26
S'Verapamil'
p1583
sg28
Nsg29
S'Specific_Interaction'
p1584
sg31
Nsg32
Nsg33
Nsg34
Nsg35
Nsg36
Nsg37
S'Digoxin'
p1585
sa(dp1586
g2
Nsg3
S'http://bio2rdf.org/drugbank:DB00204'
p1587
sg5
S'http://bio2rdf.org/drugbank:DB00661'
p1588
sg7
Nsg8
Nsg9
Nsg10
Nsg11
Nsg12
Nsg13
Nsg14
Nsg15
Nsg16
g17
sg18
Nsg19
Nsg20
Nsg21
Nsg22
S'true'
p1589
sg24
Nsg25
Nsg26
S'Verapamil'
p1590
sg28
Nsg29
S'Increase_Interaction'
p1591
sg31
Nsg32
Nsg33
Nsg34
Nsg35
Nsg36
Nsg37
S'Dofetilide'
p1592
sa(dp1593
g2
Nsg3
S'http://bio2rdf.org/drugbank:DB00204'
p1594
sg5
S'http://bio2rdf.org/drugbank:DB00661'
p1595
sg7
Nsg8
Nsg9
Nsg10
Nsg11
Nsg12
Nsg13
Nsg14
Nsg15
Nsg16
g17
sg18
Nsg19
Nsg20
Nsg21
Nsg22
S'true'
p1596
sg24
Nsg25
Nsg26
S'Verapamil'
p1597
sg28
Nsg29
S'Specific_Interaction'
p1598
sg31
Nsg32
Nsg33
Nsg34
Nsg35
Nsg36
Nsg37
S'Dofetilide'
p1599
sa(dp1600
g2
Nsg3
S'http://bio2rdf.org/drugbank:DB04855'
p1601
sg5
S'http://bio2rdf.org/drugbank:DB00661'
p1602
sg7
Nsg8
Nsg9
Nsg10
Nsg11
Nsg12
Nsg13
Nsg14
Nsg15
Nsg16
g17
sg18
Nsg19
Nsg20
Nsg21
Nsg22
S'true'
p1603
sg24
Nsg25
Nsg26
S'Verapamil'
p1604
sg28
Nsg29
S'Increase_Interaction'
p1605
sg31
Nsg32
Nsg33
Nsg34
Nsg35
Nsg36
Nsg37
S'Dronedarone'
p1606
sa(dp1607
g2
Nsg3
S'http://bio2rdf.org/drugbank:DB00898'
p1608
sg5
S'http://bio2rdf.org/drugbank:DB00661'
p1609
sg7
Nsg8
Nsg9
Nsg10
Nsg11
Nsg12
Nsg13
Nsg14
Nsg15
Nsg16
g17
sg18
Nsg19
Nsg20
Nsg21
Nsg22
S'true'
p1610
sg24
Nsg25
Nsg26
S'Verapamil'
p1611
sg28
Nsg29
S'Increase_Interaction'
p1612
sg31
Nsg32
Nsg33
Nsg34
Nsg35
Nsg36
Nsg37
S'Ethanol'
p1613
sa(dp1614
g2
Nsg3
S'http://bio2rdf.org/drugbank:DB00898'
p1615
sg5
S'http://bio2rdf.org/drugbank:DB00661'
p1616
sg7
Nsg8
Nsg9
Nsg10
Nsg11
Nsg12
Nsg13
Nsg14
Nsg15
Nsg16
g17
sg18
Nsg19
Nsg20
Nsg21
Nsg22
S'true'
p1617
sg24
Nsg25
Nsg26
S'Verapamil'
p1618
sg28
Nsg29
S'Specific_Interaction'
p1619
sg31
Nsg32
Nsg33
Nsg34
Nsg35
Nsg36
Nsg37
S'Ethanol'
p1620
sa(dp1621
g2
Nsg3
S'http://bio2rdf.org/drugbank:DB01195'
p1622
sg5
S'http://bio2rdf.org/drugbank:DB00661'
p1623
sg7
Nsg8
Nsg9
Nsg10
Nsg11
Nsg12
Nsg13
Nsg14
Nsg15
Nsg16
g17
sg18
Nsg19
Nsg20
Nsg21
Nsg22
S'true'
p1624
sg24
Nsg25
Nsg26
S'Verapamil'
p1625
sg28
Nsg29
S'Caution_Interaction'
p1626
sg31
Nsg32
Nsg33
Nsg34
Nsg35
Nsg36
Nsg37
S'Flecainide'
p1627
sa(dp1628
g2
Nsg3
S'http://bio2rdf.org/drugbank:DB00458'
p1629
sg5
S'http://bio2rdf.org/drugbank:DB00661'
p1630
sg7
Nsg8
Nsg9
Nsg10
Nsg11
Nsg12
Nsg13
Nsg14
Nsg15
Nsg16
g17
sg18
Nsg19
Nsg20
Nsg21
Nsg22
S'true'
p1631
sg24
Nsg25
Nsg26
S'Verapamil'
p1632
sg28
Nsg29
S'Increase_Interaction'
p1633
sg31
Nsg32
Nsg33
Nsg34
Nsg35
Nsg36
Nsg37
S'IMIPRAMINE'
p1634
sa(dp1635
g2
Nsg3
S'http://bio2rdf.org/drugbank:DB00683'
p1636
sg5
S'http://bio2rdf.org/drugbank:DB00661'
p1637
sg7
Nsg8
Nsg9
Nsg10
Nsg11
Nsg12
Nsg13
Nsg14
Nsg15
Nsg16
g17
sg18
Nsg19
Nsg20
Nsg21
Nsg22
S'true'
p1638
sg24
Nsg25
Nsg26
S'Verapamil'
p1639
sg28
Nsg29
S'Increase_Interaction'
p1640
sg31
Nsg32
Nsg33
Nsg34
Nsg35
Nsg36
Nsg37
S'MIDAZOLAM'
p1641
sa(dp1642
g2
Nsg3
S'http://bio2rdf.org/drugbank:DB01229'
p1643
sg5
S'http://bio2rdf.org/drugbank:DB00661'
p1644
sg7
Nsg8
Nsg9
Nsg10
Nsg11
Nsg12
Nsg13
Nsg14
Nsg15
Nsg16
g17
sg18
Nsg19
Nsg20
Nsg21
Nsg22
S'true'
p1645
sg24
Nsg25
Nsg26
S'Verapamil'
p1646
sg28
Nsg29
S'Increase_Interaction'
p1647
sg31
Nsg32
Nsg33
Nsg34
Nsg35
Nsg36
Nsg37
S'Paclitaxel'
p1648
sa(dp1649
g2
Nsg3
S'http://bio2rdf.org/drugbank:DB00457'
p1650
sg5
S'http://bio2rdf.org/drugbank:DB00661'
p1651
sg7
Nsg8
Nsg9
Nsg10
Nsg11
Nsg12
Nsg13
Nsg14
Nsg15
Nsg16
g17
sg18
Nsg19
Nsg20
Nsg21
Nsg22
S'true'
p1652
sg24
Nsg25
Nsg26
S'Verapamil'
p1653
sg28
Nsg29
S'Increase_Interaction'
p1654
sg31
Nsg32
Nsg33
Nsg34
Nsg35
Nsg36
Nsg37
S'Prazosin'
p1655
sa(dp1656
g2
Nsg3
S'http://bio2rdf.org/drugbank:DB00457'
p1657
sg5
S'http://bio2rdf.org/drugbank:DB00661'
p1658
sg7
Nsg8
Nsg9
Nsg10
Nsg11
Nsg12
Nsg13
Nsg14
Nsg15
Nsg16
g17
sg18
Nsg19
Nsg20
Nsg21
Nsg22
S'true'
p1659
sg24
Nsg25
Nsg26
S'Verapamil'
p1660
sg28
Nsg29
S'Specific_Interaction'
p1661
sg31
Nsg32
Nsg33
Nsg34
Nsg35
Nsg36
Nsg37
S'Prazosin'
p1662
sa(dp1663
g2
Nsg3
S'http://bio2rdf.org/drugbank:DB00908'
p1664
sg5
S'http://bio2rdf.org/drugbank:DB00661'
p1665
sg7
Nsg8
Nsg9
Nsg10
Nsg11
Nsg12
Nsg13
Nsg14
Nsg15
Nsg16
g17
sg18
Nsg19
Nsg20
Nsg21
Nsg22
S'true'
p1666
sg24
Nsg25
Nsg26
S'Verapamil'
p1667
sg28
Nsg29
S'Caution_Interaction'
p1668
sg31
Nsg32
Nsg33
Nsg34
Nsg35
Nsg36
Nsg37
S'Quinidine'
p1669
sa(dp1670
g2
Nsg3
S'http://bio2rdf.org/drugbank:DB00908'
p1671
sg5
S'http://bio2rdf.org/drugbank:DB00661'
p1672
sg7
Nsg8
Nsg9
Nsg10
Nsg11
Nsg12
Nsg13
Nsg14
Nsg15
Nsg16
g17
sg18
Nsg19
Nsg20
Nsg21
Nsg22
S'true'
p1673
sg24
Nsg25
Nsg26
S'Verapamil'
p1674
sg28
Nsg29
S'Specific_Interaction'
p1675
sg31
Nsg32
Nsg33
Nsg34
Nsg35
Nsg36
Nsg37
S'Quinidine'
p1676
sa(dp1677
g2
Nsg3
S'http://bio2rdf.org/drugbank:DB00641'
p1678
sg5
S'http://bio2rdf.org/drugbank:DB00661'
p1679
sg7
Nsg8
Nsg9
Nsg10
Nsg11
Nsg12
Nsg13
Nsg14
Nsg15
Nsg16
g17
sg18
Nsg19
Nsg20
Nsg21
Nsg22
S'true'
p1680
sg24
Nsg25
Nsg26
S'Verapamil'
p1681
sg28
Nsg29
S'Caution_Interaction'
p1682
sg31
Nsg32
Nsg33
Nsg34
Nsg35
Nsg36
Nsg37
S'Simvastatin'
p1683
sa(dp1684
g2
Nsg3
S'http://bio2rdf.org/drugbank:DB00641'
p1685
sg5
S'http://bio2rdf.org/drugbank:DB00661'
p1686
sg7
Nsg8
Nsg9
Nsg10
Nsg11
Nsg12
Nsg13
Nsg14
Nsg15
Nsg16
g17
sg18
Nsg19
Nsg20
Nsg21
Nsg22
S'true'
p1687
sg24
Nsg25
Nsg26
S'Verapamil'
p1688
sg28
Nsg29
S'Increase_Interaction'
p1689
sg31
Nsg32
Nsg33
Nsg34
Nsg35
Nsg36
Nsg37
S'Simvastatin'
p1690
sa(dp1691
g2
Nsg3
S'http://bio2rdf.org/drugbank:DB01339'
p1692
sg5
S'http://bio2rdf.org/drugbank:DB00661'
p1693
sg7
Nsg8
Nsg9
Nsg10
Nsg11
Nsg12
Nsg13
Nsg14
Nsg15
Nsg16
g17
sg18
Nsg19
Nsg20
Nsg21
Nsg22
S'true'
p1694
sg24
Nsg25
Nsg26
S'Verapamil'
p1695
sg28
Nsg29
S'Increase_Interaction'
p1696
sg31
Nsg32
Nsg33
Nsg34
Nsg35
Nsg36
Nsg37
S'Vecuronium'
p1697
sa.