(lp0
(dp1
S'contVal'
p2
NsS'drug2'
p3
S'http://bio2rdf.org/drugbank:DB00454'
p4
sS'drug1'
p5
S'http://bio2rdf.org/drugbank:DB00787'
p6
sS'objectUri'
p7
NsS'evidence'
p8
NsS'ddiPkMechanism'
p9
NsS'whoAnnotated'
p10
S'consensus set annotator team'
p11
sS'contraindication'
p12
NsS'researchStatementLabel'
p13
NsS'severity'
p14
NsS'label'
p15
NsS'effectConcept'
p16
NsS'source'
p17
S'PK-Corpus'
p18
sS'ddiPkEffect'
p19
NsS'homepage'
p20
NsS'pathway'
p21
NsS'ddiType'
p22
NsS'researchStatement'
p23
NsS'dateAnnotated'
p24
NsS'object'
p25
S'\xef\xbb\xbfACICLOVIR'
p26
sS'evidenceSource'
p27
NsS'evidenceStatement'
p28
S'Plasma concentrations of meperidine and its metabolite, normeperidine, may be increased | \r'
p29
sS'precipUri'
p30
NsS'certainty'
p31
NsS'uri'
p32
NsS'evidenceType'
p33
NsS'numericVal'
p34
NsS'precaution'
p35
NsS'precipitant'
p36
S'PETHIDINE'
p37
sa(dp38
g2
Nsg3
S'http://bio2rdf.org/drugbank:DB00695'
p39
sg5
S'http://bio2rdf.org/drugbank:DB01258'
p40
sg7
Nsg8
Nsg9
Nsg10
S'consensus set annotator team'
p41
sg12
Nsg13
Nsg14
Nsg15
Nsg16
Nsg17
g18
sg19
Nsg20
Nsg21
Nsg22
Nsg23
Nsg24
Nsg25
S'Aliskiren'
p42
sg27
Nsg28
S'AUC and Cmax of furosemide were reduced by about 30% and 50 | \r'
p43
sg30
Nsg31
Nsg32
Nsg33
Nsg34
Nsg35
Nsg36
S'FUROSEMIDE'
p44
sa(dp45
g2
Nsg3
S'http://bio2rdf.org/drugbank:DB00993'
p46
sg5
S'http://bio2rdf.org/drugbank:DB00437'
p47
sg7
Nsg8
Nsg9
Nsg10
S'consensus set annotator team'
p48
sg12
Nsg13
Nsg14
Nsg15
Nsg16
Nsg17
g18
sg19
Nsg20
Nsg21
Nsg22
Nsg23
Nsg24
Nsg25
S'Allopurinol'
p49
sg27
Nsg28
S'a reduction in dose to approximately one-third to one-fourth of the usual dose | \r'
p50
sg30
Nsg31
Nsg32
Nsg33
Nsg34
Nsg35
Nsg36
S'Azathioprine'
p51
sa(dp52
g2
Nsg3
S'http://bio2rdf.org/drugbank:DB01033'
p53
sg5
S'http://bio2rdf.org/drugbank:DB00437'
p54
sg7
Nsg8
Nsg9
Nsg10
S'consensus set annotator team'
p55
sg12
Nsg13
Nsg14
Nsg15
Nsg16
Nsg17
g18
sg19
Nsg20
Nsg21
Nsg22
Nsg23
Nsg24
Nsg25
S'Allopurinol'
p56
sg27
Nsg28
S'a reduction in dose to approximately one-third to one-fourth of the usual dose | \r'
p57
sg30
Nsg31
Nsg32
Nsg33
Nsg34
Nsg35
Nsg36
S'MERCAPTOPURINE'
p58
sa(dp59
g2
Nsg3
S'http://bio2rdf.org/drugbank:DB01151'
p60
sg5
S'http://bio2rdf.org/drugbank:DB00404'
p61
sg7
Nsg8
Nsg9
Nsg10
S'consensus set annotator team'
p62
sg12
Nsg13
Nsg14
Nsg15
Nsg16
Nsg17
g18
sg19
Nsg20
Nsg21
Nsg22
Nsg23
Nsg24
Nsg25
S'Alprazolam'
p63
sg27
Nsg28
S'increased an average of 31% and 20% | \r'
p64
sg30
Nsg31
Nsg32
Nsg33
Nsg34
Nsg35
Nsg36
S'DESIPRAMINE'
p65
sa(dp66
g2
Nsg3
S'http://bio2rdf.org/drugbank:DB00458'
p67
sg5
S'http://bio2rdf.org/drugbank:DB00404'
p68
sg7
Nsg8
Nsg9
Nsg10
S'consensus set annotator team'
p69
sg12
Nsg13
Nsg14
Nsg15
Nsg16
Nsg17
g18
sg19
Nsg20
Nsg21
Nsg22
Nsg23
Nsg24
Nsg25
S'Alprazolam'
p70
sg27
Nsg28
S'increased an average of 31% and 20% | \r'
p71
sg30
Nsg31
Nsg32
Nsg33
Nsg34
Nsg35
Nsg36
S'IMIPRAMINE'
p72
sa(dp73
g2
Nsg3
S'http://bio2rdf.org/drugbank:DB00390'
p74
sg5
S'http://bio2rdf.org/drugbank:DB01370'
p75
sg7
Nsg8
Nsg9
Nsg10
S'consensus set annotator team'
p76
sg12
Nsg13
Nsg14
Nsg15
Nsg16
Nsg17
g18
sg19
Nsg20
Nsg21
Nsg22
Nsg23
Nsg24
Nsg25
S'Aluminium'
p77
sg27
Nsg28
S'been reported to lower serum digoxin levels | \r'
p78
sg30
Nsg31
Nsg32
Nsg33
Nsg34
Nsg35
Nsg36
S'Digoxin'
p79
sa(dp80
g2
Nsg3
S'http://bio2rdf.org/drugbank:DB00489'
p81
sg5
S'http://bio2rdf.org/drugbank:DB01370'
p82
sg7
Nsg8
Nsg9
Nsg10
S'consensus set annotator team'
p83
sg12
Nsg13
Nsg14
Nsg15
Nsg16
Nsg17
g18
sg19
Nsg20
Nsg21
Nsg22
Nsg23
Nsg24
Nsg25
S'Aluminium'
p84
sg27
Nsg28
S'reduction in Cmax and AUC of 26% and 20% | \r'
p85
sg30
Nsg31
Nsg32
Nsg33
Nsg34
Nsg35
Nsg36
S'Sotalol'
p86
sa(dp87
g2
Nsg3
S'http://bio2rdf.org/drugbank:DB00343'
p88
sg5
S'http://bio2rdf.org/drugbank:DB01072'
p89
sg7
Nsg8
Nsg9
Nsg10
S'consensus set annotator team'
p90
sg12
Nsg13
Nsg14
Nsg15
Nsg16
Nsg17
g18
sg19
Nsg20
Nsg21
Nsg22
Nsg23
Nsg24
Nsg25
S'Atazanavir'
p91
sg27
Nsg28
S'there was a 2-fold increase in the diltiazem plasma concentration and an additive effect on the PR interval | \r'
p92
sg30
Nsg31
Nsg32
Nsg33
Nsg34
Nsg35
Nsg36
S'Diltiazem'
p93
sa(dp94
g2
Nsg3
S'http://bio2rdf.org/drugbank:DB01229'
p95
sg5
S'http://bio2rdf.org/drugbank:DB01072'
p96
sg7
Nsg8
Nsg9
Nsg10
S'consensus set annotator team'
p97
sg12
Nsg13
Nsg14
Nsg15
Nsg16
Nsg17
g18
sg19
Nsg20
Nsg21
Nsg22
Nsg23
Nsg24
Nsg25
S'Atazanavir'
p98
sg27
Nsg28
S'Caution should be used | \r'
p99
sg30
Nsg31
Nsg32
Nsg33
Nsg34
Nsg35
Nsg36
S'Paclitaxel'
p100
sa(dp101
g2
Nsg3
S'http://bio2rdf.org/drugbank:DB00912'
p102
sg5
S'http://bio2rdf.org/drugbank:DB01072'
p103
sg7
Nsg8
Nsg9
Nsg10
S'consensus set annotator team'
p104
sg12
Nsg13
Nsg14
Nsg15
Nsg16
Nsg17
g18
sg19
Nsg20
Nsg21
Nsg22
Nsg23
Nsg24
Nsg25
S'Atazanavir'
p105
sg27
Nsg28
S'Caution should be used | \r'
p106
sg30
Nsg31
Nsg32
Nsg33
Nsg34
Nsg35
Nsg36
S'Repaglinide'
p107
sa(dp108
g2
Nsg3
S'http://bio2rdf.org/drugbank:DB00683'
p109
sg5
S'http://bio2rdf.org/drugbank:DB00289'
p110
sg7
Nsg8
Nsg9
Nsg10
S'consensus set annotator team'
p111
sg12
Nsg13
Nsg14
Nsg15
Nsg16
Nsg17
g18
sg19
Nsg20
Nsg21
Nsg22
Nsg23
Nsg24
Nsg25
S'Atomoxetine'
p112
sg27
Nsg28
S'15% increase in AUC | \r'
p113
sg30
Nsg31
Nsg32
Nsg33
Nsg34
Nsg35
Nsg36
S'MIDAZOLAM'
p114
sa(dp115
g2
Nsg3
S'http://bio2rdf.org/drugbank:DB01258'
p116
sg5
S'http://bio2rdf.org/drugbank:DB01076'
p117
sg7
Nsg8
Nsg9
Nsg10
S'consensus set annotator team'
p118
sg12
Nsg13
Nsg14
Nsg15
Nsg16
Nsg17
g18
sg19
Nsg20
Nsg21
Nsg22
Nsg23
Nsg24
Nsg25
S'ATORVASTATIN'
p119
sg27
Nsg28
S'50% increase in aliskiren Cmax and AUC | \r'
p120
sg30
Nsg31
Nsg32
Nsg33
Nsg34
Nsg35
Nsg36
S'Aliskiren'
p121
sa(dp122
g2
Nsg3
S'http://bio2rdf.org/drugbank:DB00390'
p123
sg5
S'http://bio2rdf.org/drugbank:DB01076'
p124
sg7
Nsg8
Nsg9
Nsg10
S'consensus set annotator team'
p125
sg12
Nsg13
Nsg14
Nsg15
Nsg16
Nsg17
g18
sg19
Nsg20
Nsg21
Nsg22
Nsg23
Nsg24
Nsg25
S'Atorvastatin'
p126
sg27
Nsg28
S'concentrations increased by approximately 20% | \r'
p127
sg30
Nsg31
Nsg32
Nsg33
Nsg34
Nsg35
Nsg36
S'Digoxin'
p128
sa(dp129
g2
Nsg3
S'http://bio2rdf.org/drugbank:DB00977'
p130
sg5
S'http://bio2rdf.org/drugbank:DB01076'
p131
sg7
Nsg8
Nsg9
Nsg10
S'consensus set annotator team'
p132
sg12
Nsg13
Nsg14
Nsg15
Nsg16
Nsg17
g18
sg19
Nsg20
Nsg21
Nsg22
Nsg23
Nsg24
Nsg25
S'Atorvastatin'
p133
sg27
Nsg28
S'increased AUC | \r'
p134
sg30
Nsg31
Nsg32
Nsg33
Nsg34
Nsg35
Nsg36
S'ETHINYL ESTRADIOL'
p135
sa(dp136
g2
Nsg3
S'http://bio2rdf.org/drugbank:DB00717'
p137
sg5
S'http://bio2rdf.org/drugbank:DB01076'
p138
sg7
Nsg8
Nsg9
Nsg10
S'consensus set annotator team'
p139
sg12
Nsg13
Nsg14
Nsg15
Nsg16
Nsg17
g18
sg19
Nsg20
Nsg21
Nsg22
Nsg23
Nsg24
Nsg25
S'Atorvastatin'
p140
sg27
Nsg28
S'increased AUC | \r'
p141
sg30
Nsg31
Nsg32
Nsg33
Nsg34
Nsg35
Nsg36
S'NORETHINDRONE'
p142
sa(dp143
g2
Nsg3
S'http://bio2rdf.org/drugbank:DB00203'
p144
sg5
S'http://bio2rdf.org/drugbank:DB00559'
p145
sg7
Nsg8
Nsg9
Nsg10
S'consensus set annotator team'
p146
sg12
Nsg13
Nsg14
Nsg15
Nsg16
Nsg17
g18
sg19
Nsg20
Nsg21
Nsg22
Nsg23
Nsg24
Nsg25
S'BOSENTAN'
p147
sg27
Nsg28
S'55% decrease in sildenafil Cmax | 63% decrease of sildenafil AUC | \r'
p148
sg30
Nsg31
Nsg32
Nsg33
Nsg34
Nsg35
Nsg36
S'Sildenafil'
p149
sa(dp150
g2
Nsg3
S'http://bio2rdf.org/drugbank:DB00404'
p151
sg5
S'http://bio2rdf.org/drugbank:DB00564'
p152
sg7
Nsg8
Nsg9
Nsg10
S'consensus set annotator team'
p153
sg12
Nsg13
Nsg14
Nsg15
Nsg16
Nsg17
g18
sg19
Nsg20
Nsg21
Nsg22
Nsg23
Nsg24
Nsg25
S'Carbamazepine'
p154
sg27
Nsg28
S'increase alprazolam metabolism | \r'
p155
sg30
Nsg31
Nsg32
Nsg33
Nsg34
Nsg35
Nsg36
S'Alprazolam'
p156
sa(dp157
g2
Nsg3
S'http://bio2rdf.org/drugbank:DB00949'
p158
sg5
S'http://bio2rdf.org/drugbank:DB00564'
p159
sg7
Nsg8
Nsg9
Nsg10
S'consensus set annotator team'
p160
sg12
Nsg13
Nsg14
Nsg15
Nsg16
Nsg17
g18
sg19
Nsg20
Nsg21
Nsg22
Nsg23
Nsg24
Nsg25
S'Carbamazepine'
p161
sg27
Nsg28
S'causes an approximate 50% increase in the clearance | 40% decrease in the steady-state trough concentrations | \r'
p162
sg30
Nsg31
Nsg32
Nsg33
Nsg34
Nsg35
Nsg36
S'Felbamate'
p163
sa(dp164
g2
Nsg3
S'http://bio2rdf.org/drugbank:DB01149'
p165
sg5
S'http://bio2rdf.org/drugbank:DB00564'
p166
sg7
Nsg8
Nsg9
Nsg10
S'consensus set annotator team'
p167
sg12
Nsg13
Nsg14
Nsg15
Nsg16
Nsg17
g18
sg19
Nsg20
Nsg21
Nsg22
Nsg23
Nsg24
Nsg25
S'Carbamazepine'
p168
sg27
Nsg28
S'results in insufficient plasma concentrations | \r'
p169
sg30
Nsg31
Nsg32
Nsg33
Nsg34
Nsg35
Nsg36
S'Nefazodone'
p170
sa(dp171
g2
Nsg3
S'http://bio2rdf.org/drugbank:DB01267'
p172
sg5
S'http://bio2rdf.org/drugbank:DB00564'
p173
sg7
Nsg8
Nsg9
Nsg10
S'consensus set annotator team'
p174
sg12
Nsg13
Nsg14
Nsg15
Nsg16
Nsg17
g18
sg19
Nsg20
Nsg21
Nsg22
Nsg23
Nsg24
Nsg25
S'Carbamazepine'
p175
sg27
Nsg28
S'decreased the steady-state plasma concentrations of risperidone and 9-hydroxyrisperidone by about 50% | \r'
p176
sg30
Nsg31
Nsg32
Nsg33
Nsg34
Nsg35
Nsg36
S'Paliperidone'
p177
sa(dp178
g2
Nsg3
S'http://bio2rdf.org/drugbank:DB00734'
p179
sg5
S'http://bio2rdf.org/drugbank:DB00564'
p180
sg7
Nsg8
Nsg9
Nsg10
S'consensus set annotator team'
p181
sg12
Nsg13
Nsg14
Nsg15
Nsg16
Nsg17
g18
sg19
Nsg20
Nsg21
Nsg22
Nsg23
Nsg24
Nsg25
S'Carbamazepine'
p182
sg27
Nsg28
S'may cause a decrease in the combined plasma concentrations | decreased the steady-state plasma concentrations of risperidone and 9-hydroxyrisperidone by about 50% | \r'
p183
sg30
Nsg31
Nsg32
Nsg33
Nsg34
Nsg35
Nsg36
S'Risperidone'
p184
sa(dp185
g2
Nsg3
S'http://bio2rdf.org/drugbank:DB00656'
p186
sg5
S'http://bio2rdf.org/drugbank:DB00564'
p187
sg7
Nsg8
Nsg9
Nsg10
S'consensus set annotator team'
p188
sg12
Nsg13
Nsg14
Nsg15
Nsg16
Nsg17
g18
sg19
Nsg20
Nsg21
Nsg22
Nsg23
Nsg24
Nsg25
S'Carbamazepine'
p189
sg27
Nsg28
S'reduced plasma concentrations of trazodone (as well as mCPP) by 76 and 60%, respectively | \r'
p190
sg30
Nsg31
Nsg32
Nsg33
Nsg34
Nsg35
Nsg36
S'TRAZODONE'
p191
sa(dp192
g2
Nsg3
S'http://bio2rdf.org/drugbank:DB00404'
p193
sg5
S'http://bio2rdf.org/drugbank:DB00501'
p194
sg7
Nsg8
Nsg9
Nsg10
S'consensus set annotator team'
p195
sg12
Nsg13
Nsg14
Nsg15
Nsg16
Nsg17
g18
sg19
Nsg20
Nsg21
Nsg22
Nsg23
Nsg24
Nsg25
S'Cimetidine'
p196
sg27
Nsg28
S'increased the maximum plasma concentration of alprazolam by 86%, decreased clearance by 42%, and increased half-life by 16% | \r'
p197
sg30
Nsg31
Nsg32
Nsg33
Nsg34
Nsg35
Nsg36
S'Alprazolam'
p198
sa(dp199
g2
Nsg3
S'http://bio2rdf.org/drugbank:DB00829'
p200
sg5
S'http://bio2rdf.org/drugbank:DB00501'
p201
sg7
Nsg8
Nsg9
Nsg10
S'consensus set annotator team'
p202
sg12
Nsg13
Nsg14
Nsg15
Nsg16
Nsg17
g18
sg19
Nsg20
Nsg21
Nsg22
Nsg23
Nsg24
Nsg25
S'Cimetidine'
p203
sg27
Nsg28
S'influence the pharmacokinetics | \r'
p204
sg30
Nsg31
Nsg32
Nsg33
Nsg34
Nsg35
Nsg36
S'DIAZEPAM'
p205
sa(dp206
g2
Nsg3
S'http://bio2rdf.org/drugbank:DB00196'
p207
sg5
S'http://bio2rdf.org/drugbank:DB00501'
p208
sg7
Nsg8
Nsg9
Nsg10
S'consensus set annotator team'
p209
sg12
Nsg13
Nsg14
Nsg15
Nsg16
Nsg17
g18
sg19
Nsg20
Nsg21
Nsg22
Nsg23
Nsg24
Nsg25
S'Cimetidine'
p210
sg27
Nsg28
S'decrease in fluconazole AUC of 13% ? 11% (range: -3.4 to -31%) and Cmax decreased 19% ? 14% (range: -5 to -40% | \r'
p211
sg30
Nsg31
Nsg32
Nsg33
Nsg34
Nsg35
Nsg36
S'Fluconazole'
p212
sa(dp213
g2
Nsg3
S'http://bio2rdf.org/drugbank:DB01115'
p214
sg5
S'http://bio2rdf.org/drugbank:DB00501'
p215
sg7
Nsg8
Nsg9
Nsg10
S'consensus set annotator team'
p216
sg12
Nsg13
Nsg14
Nsg15
Nsg16
Nsg17
g18
sg19
Nsg20
Nsg21
Nsg22
Nsg23
Nsg24
Nsg25
S'Cimetidine'
p217
sg27
Nsg28
S'AUC values of nifedipine in the presence of cimetidine were between 1.52 and 2.01 times those in the absence | Cmax values of nifedipine in the presence of cimetidine were increased by factors ranging between 1.60 and 2.02 | \r'
p218
sg30
Nsg31
Nsg32
Nsg33
Nsg34
Nsg35
Nsg36
S'Nifedipine'
p219
sa(dp220
g2
Nsg3
S'http://bio2rdf.org/drugbank:DB00454'
p221
sg5
S'http://bio2rdf.org/drugbank:DB00501'
p222
sg7
Nsg8
Nsg9
Nsg10
S'consensus set annotator team'
p223
sg12
Nsg13
Nsg14
Nsg15
Nsg16
Nsg17
g18
sg19
Nsg20
Nsg21
Nsg22
Nsg23
Nsg24
Nsg25
S'Cimetidine'
p224
sg27
Nsg28
S'reduced the clearance and volume of distribution | \r'
p225
sg30
Nsg31
Nsg32
Nsg33
Nsg34
Nsg35
Nsg36
S'PETHIDINE'
p226
sa(dp227
g2
Nsg3
S'http://bio2rdf.org/drugbank:DB00734'
p228
sg5
S'http://bio2rdf.org/drugbank:DB00501'
p229
sg7
Nsg8
Nsg9
Nsg10
S'consensus set annotator team'
p230
sg12
Nsg13
Nsg14
Nsg15
Nsg16
Nsg17
g18
sg19
Nsg20
Nsg21
Nsg22
Nsg23
Nsg24
Nsg25
S'Cimetidine'
p231
sg27
Nsg28
S'increased the bioavailability of risperidone by 64% and 26 | \r'
p232
sg30
Nsg31
Nsg32
Nsg33
Nsg34
Nsg35
Nsg36
S'Risperidone'
p233
sa(dp234
g2
Nsg3
S'http://bio2rdf.org/drugbank:DB01104'
p235
sg5
S'http://bio2rdf.org/drugbank:DB00501'
p236
sg7
Nsg8
Nsg9
Nsg10
S'consensus set annotator team'
p237
sg12
Nsg13
Nsg14
Nsg15
Nsg16
Nsg17
g18
sg19
Nsg20
Nsg21
Nsg22
Nsg23
Nsg24
Nsg25
S'Cimetidine'
p238
sg27
Nsg28
S'increases in sertraline mean AUC (50%), C max (24%) and half-life (26 | \r'
p239
sg30
Nsg31
Nsg32
Nsg33
Nsg34
Nsg35
Nsg36
S'SERTRALINE'
p240
sa(dp241
g2
Nsg3
S'http://bio2rdf.org/drugbank:DB00203'
p242
sg5
S'http://bio2rdf.org/drugbank:DB00501'
p243
sg7
Nsg8
Nsg9
Nsg10
S'consensus set annotator team'
p244
sg12
Nsg13
Nsg14
Nsg15
Nsg16
Nsg17
g18
sg19
Nsg20
Nsg21
Nsg22
Nsg23
Nsg24
Nsg25
S'Cimetidine'
p245
sg27
Nsg28
S'caused a 56% increase in plasma sildenafil concentrations | \r'
p246
sg30
Nsg31
Nsg32
Nsg33
Nsg34
Nsg35
Nsg36
S'Sildenafil'
p247
sa(dp248
g2
Nsg3
S'http://bio2rdf.org/drugbank:DB00382'
p249
sg5
S'http://bio2rdf.org/drugbank:DB00501'
p250
sg7
Nsg8
Nsg9
Nsg10
S'consensus set annotator team'
p251
sg12
Nsg13
Nsg14
Nsg15
Nsg16
Nsg17
g18
sg19
Nsg20
Nsg21
Nsg22
Nsg23
Nsg24
Nsg25
S'Cimetidine'
p252
sg27
Nsg28
S'increased the Cmax and AUC of tacrine by approximately 54% and 64% | \r'
p253
sg30
Nsg31
Nsg32
Nsg33
Nsg34
Nsg35
Nsg36
S'Tacrine'
p254
sa(dp255
g2
Nsg3
S'http://bio2rdf.org/drugbank:DB00661'
p256
sg5
S'http://bio2rdf.org/drugbank:DB00501'
p257
sg7
Nsg8
Nsg9
Nsg10
S'consensus set annotator team'
p258
sg12
Nsg13
Nsg14
Nsg15
Nsg16
Nsg17
g18
sg19
Nsg20
Nsg21
Nsg22
Nsg23
Nsg24
Nsg25
S'Cimetidine'
p259
sg27
Nsg28
S'clearance of verapamil was either reduced or unchanged | \r'
p260
sg30
Nsg31
Nsg32
Nsg33
Nsg34
Nsg35
Nsg36
S'Verapamil'
p261
sa(dp262
g2
Nsg3
S'http://bio2rdf.org/drugbank:DB00661'
p263
sg5
S'http://bio2rdf.org/drugbank:DB00515'
p264
sg7
Nsg8
Nsg9
Nsg10
S'consensus set annotator team'
p265
sg12
Nsg13
Nsg14
Nsg15
Nsg16
Nsg17
g18
sg19
Nsg20
Nsg21
Nsg22
Nsg23
Nsg24
Nsg25
S'CISPLATIN'
p266
sg27
Nsg28
S'absorption of verapamil can be reduced | \r'
p267
sg30
Nsg31
Nsg32
Nsg33
Nsg34
Nsg35
Nsg36
S'Verapamil'
p268
sa(dp269
g2
Nsg3
S'http://bio2rdf.org/drugbank:DB01076'
p270
sg5
S'http://bio2rdf.org/drugbank:DB01211'
p271
sg7
Nsg8
Nsg9
Nsg10
S'consensus set annotator team'
p272
sg12
Nsg13
Nsg14
Nsg15
Nsg16
Nsg17
g18
sg19
Nsg20
Nsg21
Nsg22
Nsg23
Nsg24
Nsg25
S'CLARITHROMYCIN'
p273
sg27
Nsg28
S'AUC was significantly increased | AUC was significantly increased | \r'
p274
sg30
Nsg31
Nsg32
Nsg33
Nsg34
Nsg35
Nsg36
S'ATORVASTATIN'
p275
sa(dp276
g2
Nsg3
S'http://bio2rdf.org/drugbank:DB01076'
p277
sg5
S'http://bio2rdf.org/drugbank:DB01211'
p278
sg7
Nsg8
Nsg9
Nsg10
S'consensus set annotator team'
p279
sg12
Nsg13
Nsg14
Nsg15
Nsg16
Nsg17
g18
sg19
Nsg20
Nsg21
Nsg22
Nsg23
Nsg24
Nsg25
S'CLARITHROMYCIN'
p280
sg27
Nsg28
S'AUC was significantly increased | AUC was significantly increased | \r'
p281
sg30
Nsg31
Nsg32
Nsg33
Nsg34
Nsg35
Nsg36
S'Atorvastatin'
p282
sa(dp283
g2
Nsg3
S'http://bio2rdf.org/drugbank:DB00734'
p284
sg5
S'http://bio2rdf.org/drugbank:DB00363'
p285
sg7
Nsg8
Nsg9
Nsg10
S'consensus set annotator team'
p286
sg12
Nsg13
Nsg14
Nsg15
Nsg16
Nsg17
g18
sg19
Nsg20
Nsg21
Nsg22
Nsg23
Nsg24
Nsg25
S'CLOZAPINE'
p287
sg27
Nsg28
S'may decrease the clearance | \r'
p288
sg30
Nsg31
Nsg32
Nsg33
Nsg34
Nsg35
Nsg36
S'Risperidone'
p289
sa(dp290
g2
Nsg3
S'http://bio2rdf.org/drugbank:DB00390'
p291
sg5
S'http://bio2rdf.org/drugbank:DB00872'
p292
sg7
Nsg8
Nsg9
Nsg10
S'consensus set annotator team'
p293
sg12
Nsg13
Nsg14
Nsg15
Nsg16
Nsg17
g18
sg19
Nsg20
Nsg21
Nsg22
Nsg23
Nsg24
Nsg25
S'Conivaptan'
p294
sg27
Nsg28
S'a 30% reduction in clearance and 79% and 43% increases in digoxin Cmax and AUC | \r'
p295
sg30
Nsg31
Nsg32
Nsg33
Nsg34
Nsg35
Nsg36
S'Digoxin'
p296
sa(dp297
g2
Nsg3
S'http://bio2rdf.org/drugbank:DB00683'
p298
sg5
S'http://bio2rdf.org/drugbank:DB00872'
p299
sg7
Nsg8
Nsg9
Nsg10
S'consensus set annotator team'
p300
sg12
Nsg13
Nsg14
Nsg15
Nsg16
Nsg17
g18
sg19
Nsg20
Nsg21
Nsg22
Nsg23
Nsg24
Nsg25
S'Conivaptan'
p301
sg27
Nsg28
S'increased the mean AUC values by approximately 2- and 3-fold | \r'
p302
sg30
Nsg31
Nsg32
Nsg33
Nsg34
Nsg35
Nsg36
S'MIDAZOLAM'
p303
sa(dp304
g2
Nsg3
S'http://bio2rdf.org/drugbank:DB00641'
p305
sg5
S'http://bio2rdf.org/drugbank:DB00872'
p306
sg7
Nsg8
Nsg9
Nsg10
S'consensus set annotator team'
p307
sg12
Nsg13
Nsg14
Nsg15
Nsg16
Nsg17
g18
sg19
Nsg20
Nsg21
Nsg22
Nsg23
Nsg24
Nsg25
S'Conivaptan'
p308
sg27
Nsg28
S'resulted in a 3-fold increase in the AUC of simvastatin | \r'
p309
sg30
Nsg31
Nsg32
Nsg33
Nsg34
Nsg35
Nsg36
S'SIMVASTATIN'
p310
sa(dp311
g2
Nsg3
S'http://bio2rdf.org/drugbank:DB00661'
p312
sg5
S'http://bio2rdf.org/drugbank:DB00531'
p313
sg7
Nsg8
Nsg9
Nsg10
S'consensus set annotator team'
p314
sg12
Nsg13
Nsg14
Nsg15
Nsg16
Nsg17
g18
sg19
Nsg20
Nsg21
Nsg22
Nsg23
Nsg24
Nsg25
S'Cyclophosphamide'
p315
sg27
Nsg28
S'absorption of verapamil can be reduced | \r'
p316
sg30
Nsg31
Nsg32
Nsg33
Nsg34
Nsg35
Nsg36
S'Verapamil'
p317
sa(dp318
g2
Nsg3
S'http://bio2rdf.org/drugbank:DB01258'
p319
sg5
S'http://bio2rdf.org/drugbank:DB00091'
p320
sg7
Nsg8
Nsg9
Nsg10
S'consensus set annotator team'
p321
sg12
Nsg13
Nsg14
Nsg15
Nsg16
Nsg17
g18
sg19
Nsg20
Nsg21
Nsg22
Nsg23
Nsg24
Nsg25
S'CYCLOSPORINE'
p322
sg27
Nsg28
S'2.5-fold increase in Cmax and 5-fold increase in AUC | \r'
p323
sg30
Nsg31
Nsg32
Nsg33
Nsg34
Nsg35
Nsg36
S'Aliskiren'
p324
sa(dp325
g2
Nsg3
S'http://bio2rdf.org/drugbank:DB01076'
p326
sg5
S'http://bio2rdf.org/drugbank:DB00091'
p327
sg7
Nsg8
Nsg9
Nsg10
S'consensus set annotator team'
p328
sg12
Nsg13
Nsg14
Nsg15
Nsg16
Nsg17
g18
sg19
Nsg20
Nsg21
Nsg22
Nsg23
Nsg24
Nsg25
S'CYCLOSPORINE'
p329
sg27
Nsg28
S'AUC was significantly increased | \r'
p330
sg30
Nsg31
Nsg32
Nsg33
Nsg34
Nsg35
Nsg36
S'ATORVASTATIN'
p331
sa(dp332
g2
Nsg3
S'http://bio2rdf.org/drugbank:DB00641'
p333
sg5
S'http://bio2rdf.org/drugbank:DB00091'
p334
sg7
Nsg8
Nsg9
Nsg10
S'consensus set annotator team'
p335
sg12
Nsg13
Nsg14
Nsg15
Nsg16
Nsg17
g18
sg19
Nsg20
Nsg21
Nsg22
Nsg23
Nsg24
Nsg25
S'CYCLOSPORINE'
p336
sg27
Nsg28
S'increase the AUC | \r'
p337
sg30
Nsg31
Nsg32
Nsg33
Nsg34
Nsg35
Nsg36
S'Simvastatin'
p338
sa(dp339
g2
Nsg3
S'http://bio2rdf.org/drugbank:DB01115'
p340
sg5
S'http://bio2rdf.org/drugbank:DB01764'
p341
sg7
Nsg8
Nsg9
Nsg10
S'consensus set annotator team'
p342
sg12
Nsg13
Nsg14
Nsg15
Nsg16
Nsg17
g18
sg19
Nsg20
Nsg21
Nsg22
Nsg23
Nsg24
Nsg25
S'DALFOPRISTIN'
p343
sg27
Nsg28
S'increased AUC and Cmax for nifedipine by factors of 1.44 and 1.18 | \r'
p344
sg30
Nsg31
Nsg32
Nsg33
Nsg34
Nsg35
Nsg36
S'Nifedipine'
p345
sa(dp346
g2
Nsg3
S'http://bio2rdf.org/drugbank:DB00404'
p347
sg5
S'http://bio2rdf.org/drugbank:DB00647'
p348
sg7
Nsg8
Nsg9
Nsg10
S'consensus set annotator team'
p349
sg12
Nsg13
Nsg14
Nsg15
Nsg16
Nsg17
g18
sg19
Nsg20
Nsg21
Nsg22
Nsg23
Nsg24
Nsg25
S'DEXTROPROPOXYPHENE'
p350
sg27
Nsg28
S'decreased the maximum plasma concentration of alprazolam by 6%, decreased clearance by 38%, and increased half-life by 58% | \r'
p351
sg30
Nsg31
Nsg32
Nsg33
Nsg34
Nsg35
Nsg36
S'Alprazolam'
p352
sa(dp353
g2
Nsg3
S'http://bio2rdf.org/drugbank:DB01115'
p354
sg5
S'http://bio2rdf.org/drugbank:DB00343'
p355
sg7
Nsg8
Nsg9
Nsg10
S'consensus set annotator team'
p356
sg12
Nsg13
Nsg14
Nsg15
Nsg16
Nsg17
g18
sg19
Nsg20
Nsg21
Nsg22
Nsg23
Nsg24
Nsg25
S'Diltiazem'
p357
sg27
Nsg28
S'Cmax values of nifedipine increased by factors of 2.0 and 1.7 | \r'
p358
sg30
Nsg31
Nsg32
Nsg33
Nsg34
Nsg35
Nsg36
S'Nifedipine'
p359
sa(dp360
g2
Nsg3
S'http://bio2rdf.org/drugbank:DB00908'
p361
sg5
S'http://bio2rdf.org/drugbank:DB00343'
p362
sg7
Nsg8
Nsg9
Nsg10
S'consensus set annotator team'
p363
sg12
Nsg13
Nsg14
Nsg15
Nsg16
Nsg17
g18
sg19
Nsg20
Nsg21
Nsg22
Nsg23
Nsg24
Nsg25
S'Diltiazem'
p364
sg27
Nsg28
S'decreases the clearance and increases the t1/2 of quinidine | \r'
p365
sg30
Nsg31
Nsg32
Nsg33
Nsg34
Nsg35
Nsg36
S'QUINIDINE'
p366
sa(dp367
g2
Nsg3
S'http://bio2rdf.org/drugbank:DB00661'
p368
sg5
S'http://bio2rdf.org/drugbank:DB00997'
p369
sg7
Nsg8
Nsg9
Nsg10
S'consensus set annotator team'
p370
sg12
Nsg13
Nsg14
Nsg15
Nsg16
Nsg17
g18
sg19
Nsg20
Nsg21
Nsg22
Nsg23
Nsg24
Nsg25
S'Doxorubicin'
p371
sg27
Nsg28
S'absorption of verapamil can be reduced | absorption of verapamil can be reduced | \r'
p372
sg30
Nsg31
Nsg32
Nsg33
Nsg34
Nsg35
Nsg36
S'Verapamil'
p373
sa(dp374
g2
Nsg3
S'http://bio2rdf.org/drugbank:DB00661'
p375
sg5
S'http://bio2rdf.org/drugbank:DB00997'
p376
sg7
Nsg8
Nsg9
Nsg10
S'consensus set annotator team'
p377
sg12
Nsg13
Nsg14
Nsg15
Nsg16
Nsg17
g18
sg19
Nsg20
Nsg21
Nsg22
Nsg23
Nsg24
Nsg25
S'Doxorubicin'
p378
sg27
Nsg28
S'absorption of verapamil can be reduced | absorption of verapamil can be reduced | \r'
p379
sg30
Nsg31
Nsg32
Nsg33
Nsg34
Nsg35
Nsg36
S'Verapamil'
p380
sa(dp381
g2
Nsg3
S'http://bio2rdf.org/drugbank:DB01076'
p382
sg5
S'http://bio2rdf.org/drugbank:DB00625'
p383
sg7
Nsg8
Nsg9
Nsg10
S'consensus set annotator team'
p384
sg12
Nsg13
Nsg14
Nsg15
Nsg16
Nsg17
g18
sg19
Nsg20
Nsg21
Nsg22
Nsg23
Nsg24
Nsg25
S'Efavirenz'
p385
sg27
Nsg28
S'can lead to variable reductions in plasma concentrations | \r'
p386
sg30
Nsg31
Nsg32
Nsg33
Nsg34
Nsg35
Nsg36
S'Atorvastatin'
p387
sa(dp388
g2
Nsg3
S'http://bio2rdf.org/drugbank:DB00203'
p389
sg5
S'http://bio2rdf.org/drugbank:DB01240'
p390
sg7
Nsg8
Nsg9
Nsg10
S'consensus set annotator team'
p391
sg12
Nsg13
Nsg14
Nsg15
Nsg16
Nsg17
g18
sg19
Nsg20
Nsg21
Nsg22
Nsg23
Nsg24
Nsg25
S'EPOPROSTENOL'
p392
sg27
Nsg28
S'22% lower mean average steady state concentrations | \r'
p393
sg30
Nsg31
Nsg32
Nsg33
Nsg34
Nsg35
Nsg36
S'Sildenafil'
p394
sa(dp395
g2
Nsg3
S'http://bio2rdf.org/drugbank:DB00404'
p396
sg5
S'http://bio2rdf.org/drugbank:DB00199'
p397
sg7
Nsg8
Nsg9
Nsg10
S'consensus set annotator team'
p398
sg12
Nsg13
Nsg14
Nsg15
Nsg16
Nsg17
g18
sg19
Nsg20
Nsg21
Nsg22
Nsg23
Nsg24
Nsg25
S'Erythromycin'
p399
sg27
Nsg28
S'increasing alprazolam AUC, are as follows: ketoconazole, 3.98 fold; itraconazole, 2.70 fold; nefazodone, 1.98 fold; fluvoxamine, 1.96 fold; and erythromycin, 1.61 fold | ketoconazole, 3.98 fold; itraconazole, 2.70 fold; nefazodone, 1.98 fold; fluvoxamine, 1.96 fold; and erythromycin, 1.61 fold | \r'
p400
sg30
Nsg31
Nsg32
Nsg33
Nsg34
Nsg35
Nsg36
S'Alprazolam'
p401
sa(dp402
g2
Nsg3
S'http://bio2rdf.org/drugbank:DB00203'
p403
sg5
S'http://bio2rdf.org/drugbank:DB00199'
p404
sg7
Nsg8
Nsg9
Nsg10
S'consensus set annotator team'
p405
sg12
Nsg13
Nsg14
Nsg15
Nsg16
Nsg17
g18
sg19
Nsg20
Nsg21
Nsg22
Nsg23
Nsg24
Nsg25
S'Erythromycin'
p406
sg27
Nsg28
S'182% increase in sildenafil systemic exposure (AUC | \r'
p407
sg30
Nsg31
Nsg32
Nsg33
Nsg34
Nsg35
Nsg36
S'Sildenafil'
p408
sa(dp409
g2
Nsg3
S'http://bio2rdf.org/drugbank:DB00661'
p410
sg5
S'http://bio2rdf.org/drugbank:DB00199'
p411
sg7
Nsg8
Nsg9
Nsg10
S'consensus set annotator team'
p412
sg12
Nsg13
Nsg14
Nsg15
Nsg16
Nsg17
g18
sg19
Nsg20
Nsg21
Nsg22
Nsg23
Nsg24
Nsg25
S'Erythromycin'
p413
sg27
Nsg28
S'causing elevation of plasma levels | \r'
p414
sg30
Nsg31
Nsg32
Nsg33
Nsg34
Nsg35
Nsg36
S'Verapamil'
p415
sa(dp416
g2
Nsg3
S'http://bio2rdf.org/drugbank:DB00564'
p417
sg5
S'http://bio2rdf.org/drugbank:DB00949'
p418
sg7
Nsg8
Nsg9
Nsg10
S'consensus set annotator team'
p419
sg12
Nsg13
Nsg14
Nsg15
Nsg16
Nsg17
g18
sg19
Nsg20
Nsg21
Nsg22
Nsg23
Nsg24
Nsg25
S'Felbamate'
p420
sg27
Nsg28
S'Cmin decreased 31% | decrease in the steady-state carbamazepine plasma concentrations | \r'
p421
sg30
Nsg31
Nsg32
Nsg33
Nsg34
Nsg35
Nsg36
S'Carbamazepine'
p422
sa(dp423
g2
Nsg3
S'http://bio2rdf.org/drugbank:DB06730'
p424
sg5
S'http://bio2rdf.org/drugbank:DB00949'
p425
sg7
Nsg8
Nsg9
Nsg10
S'consensus set annotator team'
p426
sg12
Nsg13
Nsg14
Nsg15
Nsg16
Nsg17
g18
sg19
Nsg20
Nsg21
Nsg22
Nsg23
Nsg24
Nsg25
S'Felbamate'
p427
sg27
Nsg28
S'42% decrease in the gestodene AUC 0-24 | \r'
p428
sg30
Nsg31
Nsg32
Nsg33
Nsg34
Nsg35
Nsg36
S'Gestodene'
p429
sa(dp430
g2
Nsg3
S'http://bio2rdf.org/drugbank:DB01174'
p431
sg5
S'http://bio2rdf.org/drugbank:DB00949'
p432
sg7
Nsg8
Nsg9
Nsg10
S'consensus set annotator team'
p433
sg12
Nsg13
Nsg14
Nsg15
Nsg16
Nsg17
g18
sg19
Nsg20
Nsg21
Nsg22
Nsg23
Nsg24
Nsg25
S'Felbamate'
p434
sg27
Nsg28
S'Cmin concentration increased to 17.8 micrograms/mL | \r'
p435
sg30
Nsg31
Nsg32
Nsg33
Nsg34
Nsg35
Nsg36
S'Phenobarbital'
p436
sa(dp437
g2
Nsg3
S'http://bio2rdf.org/drugbank:DB00252'
p438
sg5
S'http://bio2rdf.org/drugbank:DB00949'
p439
sg7
Nsg8
Nsg9
Nsg10
S'consensus set annotator team'
p440
sg12
Nsg13
Nsg14
Nsg15
Nsg16
Nsg17
g18
sg19
Nsg20
Nsg21
Nsg22
Nsg23
Nsg24
Nsg25
S'Felbamate'
p441
sg27
Nsg28
S'increased the steady-state phenytoin Cmin to 25?7 micrograms/mL | increased the steady-state phenytoin Cmin to 25?7 micrograms/mL | \r'
p442
sg30
Nsg31
Nsg32
Nsg33
Nsg34
Nsg35
Nsg36
S'PHENYTOIN'
p443
sa(dp444
g2
Nsg3
S'http://bio2rdf.org/drugbank:DB00313'
p445
sg5
S'http://bio2rdf.org/drugbank:DB00949'
p446
sg7
Nsg8
Nsg9
Nsg10
S'consensus set annotator team'
p447
sg12
Nsg13
Nsg14
Nsg15
Nsg16
Nsg17
g18
sg19
Nsg20
Nsg21
Nsg22
Nsg23
Nsg24
Nsg25
S'Felbamate'
p448
sg27
Nsg28
S'increase in steady-state valproate concentrations | increased the steady-state valproate Cmin to 96?25 micrograms/mL | \r'
p449
sg30
Nsg31
Nsg32
Nsg33
Nsg34
Nsg35
Nsg36
S'Valproic Acid'
p450
sa(dp451
g2
Nsg3
S'http://bio2rdf.org/drugbank:DB00564'
p452
sg5
S'http://bio2rdf.org/drugbank:DB00949'
p453
sg7
Nsg8
Nsg9
Nsg10
S'consensus set annotator team'
p454
sg12
Nsg13
Nsg14
Nsg15
Nsg16
Nsg17
g18
sg19
Nsg20
Nsg21
Nsg22
Nsg23
Nsg24
Nsg25
S'Felbamate'
p455
sg27
Nsg28
S'Cmin decreased 31% | decrease in the steady-state carbamazepine plasma concentrations | \r'
p456
sg30
Nsg31
Nsg32
Nsg33
Nsg34
Nsg35
Nsg36
S'Carbamazepine'
p457
sa(dp458
g2
Nsg3
S'http://bio2rdf.org/drugbank:DB00252'
p459
sg5
S'http://bio2rdf.org/drugbank:DB00949'
p460
sg7
Nsg8
Nsg9
Nsg10
S'consensus set annotator team'
p461
sg12
Nsg13
Nsg14
Nsg15
Nsg16
Nsg17
g18
sg19
Nsg20
Nsg21
Nsg22
Nsg23
Nsg24
Nsg25
S'Felbamate'
p462
sg27
Nsg28
S'increased the steady-state phenytoin Cmin to 25?7 micrograms/mL | increased the steady-state phenytoin Cmin to 25?7 micrograms/mL | \r'
p463
sg30
Nsg31
Nsg32
Nsg33
Nsg34
Nsg35
Nsg36
S'Phenytoin'
p464
sa(dp465
g2
Nsg3
S'http://bio2rdf.org/drugbank:DB00313'
p466
sg5
S'http://bio2rdf.org/drugbank:DB00949'
p467
sg7
Nsg8
Nsg9
Nsg10
S'consensus set annotator team'
p468
sg12
Nsg13
Nsg14
Nsg15
Nsg16
Nsg17
g18
sg19
Nsg20
Nsg21
Nsg22
Nsg23
Nsg24
Nsg25
S'Felbamate'
p469
sg27
Nsg28
S'increase in steady-state valproate concentrations | increased the steady-state valproate Cmin to 96?25 micrograms/mL | \r'
p470
sg30
Nsg31
Nsg32
Nsg33
Nsg34
Nsg35
Nsg36
S'Valproic Acid'
p471
sa(dp472
g2
Nsg3
S'http://bio2rdf.org/drugbank:DB00091'
p473
sg5
S'http://bio2rdf.org/drugbank:DB00196'
p474
sg7
Nsg8
Nsg9
Nsg10
S'consensus set annotator team'
p475
sg12
Nsg13
Nsg14
Nsg15
Nsg16
Nsg17
g18
sg19
Nsg20
Nsg21
Nsg22
Nsg23
Nsg24
Nsg25
S'Fluconazole'
p476
sg27
Nsg28
S'significant increase in cyclosporine AUC, Cmax, Cmin | \r'
p477
sg30
Nsg31
Nsg32
Nsg33
Nsg34
Nsg35
Nsg36
S'CYCLOSPORINE'
p478
sa(dp479
g2
Nsg3
S'http://bio2rdf.org/drugbank:DB00977'
p480
sg5
S'http://bio2rdf.org/drugbank:DB00196'
p481
sg7
Nsg8
Nsg9
Nsg10
S'consensus set annotator team'
p482
sg12
Nsg13
Nsg14
Nsg15
Nsg16
Nsg17
g18
sg19
Nsg20
Nsg21
Nsg22
Nsg23
Nsg24
Nsg25
S'Fluconazole'
p483
sg27
Nsg28
S'resulted in small increases in the mean AUCs | \r'
p484
sg30
Nsg31
Nsg32
Nsg33
Nsg34
Nsg35
Nsg36
S'ETHINYL ESTRADIOL'
p485
sa(dp486
g2
Nsg3
S'http://bio2rdf.org/drugbank:DB01067'
p487
sg5
S'http://bio2rdf.org/drugbank:DB00196'
p488
sg7
Nsg8
Nsg9
Nsg10
S'consensus set annotator team'
p489
sg12
Nsg13
Nsg14
Nsg15
Nsg16
Nsg17
g18
sg19
Nsg20
Nsg21
Nsg22
Nsg23
Nsg24
Nsg25
S'Fluconazole'
p490
sg27
Nsg28
S'The AUC and Cmax of glipizide (2.5 mg single dose) were significantly increased | percentage increase in the glipizide AUC after fluconazole administration was 56.9% | \r'
p491
sg30
Nsg31
Nsg32
Nsg33
Nsg34
Nsg35
Nsg36
S'Glipizide'
p492
sa(dp493
g2
Nsg3
S'http://bio2rdf.org/drugbank:DB01016'
p494
sg5
S'http://bio2rdf.org/drugbank:DB00196'
p495
sg7
Nsg8
Nsg9
Nsg10
S'consensus set annotator team'
p496
sg12
Nsg13
Nsg14
Nsg15
Nsg16
Nsg17
g18
sg19
Nsg20
Nsg21
Nsg22
Nsg23
Nsg24
Nsg25
S'Fluconazole'
p497
sg27
Nsg28
S'The AUC and Cmax of glyburide (5 mg single dose) were significantly increased | \r'
p498
sg30
Nsg31
Nsg32
Nsg33
Nsg34
Nsg35
Nsg36
S'GLYBURIDE'
p499
sa(dp500
g2
Nsg3
S'http://bio2rdf.org/drugbank:DB00683'
p501
sg5
S'http://bio2rdf.org/drugbank:DB00196'
p502
sg7
Nsg8
Nsg9
Nsg10
S'consensus set annotator team'
p503
sg12
Nsg13
Nsg14
Nsg15
Nsg16
Nsg17
g18
sg19
Nsg20
Nsg21
Nsg22
Nsg23
Nsg24
Nsg25
S'Fluconazole'
p504
sg27
Nsg28
S'reduced the clearance of IV midazolam by 51% | increased the midazolam AUC and Cmax by 259% and 74% | increased the midazolam AUC and Cmax by 259% and 150% | \r'
p505
sg30
Nsg31
Nsg32
Nsg33
Nsg34
Nsg35
Nsg36
S'Midazolam'
p506
sa(dp507
g2
Nsg3
S'http://bio2rdf.org/drugbank:DB00717'
p508
sg5
S'http://bio2rdf.org/drugbank:DB00196'
p509
sg7
Nsg8
Nsg9
Nsg10
S'consensus set annotator team'
p510
sg12
Nsg13
Nsg14
Nsg15
Nsg16
Nsg17
g18
sg19
Nsg20
Nsg21
Nsg22
Nsg23
Nsg24
Nsg25
S'Fluconazole'
p511
sg27
Nsg28
S'resulted in small increases in the mean AUCs | \r'
p512
sg30
Nsg31
Nsg32
Nsg33
Nsg34
Nsg35
Nsg36
S'NORETHINDRONE'
p513
sa(dp514
g2
Nsg3
S'http://bio2rdf.org/drugbank:DB00252'
p515
sg5
S'http://bio2rdf.org/drugbank:DB00196'
p516
sg7
Nsg8
Nsg9
Nsg10
S'consensus set annotator team'
p517
sg12
Nsg13
Nsg14
Nsg15
Nsg16
Nsg17
g18
sg19
Nsg20
Nsg21
Nsg22
Nsg23
Nsg24
Nsg25
S'Fluconazole'
p518
sg27
Nsg28
S'increase in phenytoin AUC was 88% | \r'
p519
sg30
Nsg31
Nsg32
Nsg33
Nsg34
Nsg35
Nsg36
S'PHENYTOIN'
p520
sa(dp521
g2
Nsg3
S'http://bio2rdf.org/drugbank:DB00277'
p522
sg5
S'http://bio2rdf.org/drugbank:DB00196'
p523
sg7
Nsg8
Nsg9
Nsg10
S'consensus set annotator team'
p524
sg12
Nsg13
Nsg14
Nsg15
Nsg16
Nsg17
g18
sg19
Nsg20
Nsg21
Nsg22
Nsg23
Nsg24
Nsg25
S'Fluconazole'
p525
sg27
Nsg28
S'significant increases in theophylline AUC, Cmax, and half-life | \r'
p526
sg30
Nsg31
Nsg32
Nsg33
Nsg34
Nsg35
Nsg36
S'THEOPHYLLINE'
p527
sa(dp528
g2
Nsg3
S'http://bio2rdf.org/drugbank:DB01124'
p529
sg5
S'http://bio2rdf.org/drugbank:DB00196'
p530
sg7
Nsg8
Nsg9
Nsg10
S'consensus set annotator team'
p531
sg12
Nsg13
Nsg14
Nsg15
Nsg16
Nsg17
g18
sg19
Nsg20
Nsg21
Nsg22
Nsg23
Nsg24
Nsg25
S'Fluconazole'
p532
sg27
Nsg28
S'Tolbutamide Cmax increased 11% | increase in tolbutamide AUC of 26% | \r'
p533
sg30
Nsg31
Nsg32
Nsg33
Nsg34
Nsg35
Nsg36
S'TOLBUTAMIDE'
p534
sa(dp535
g2
Nsg3
S'http://bio2rdf.org/drugbank:DB00495'
p536
sg5
S'http://bio2rdf.org/drugbank:DB00196'
p537
sg7
Nsg8
Nsg9
Nsg10
S'consensus set annotator team'
p538
sg12
Nsg13
Nsg14
Nsg15
Nsg16
Nsg17
g18
sg19
Nsg20
Nsg21
Nsg22
Nsg23
Nsg24
Nsg25
S'Fluconazole'
p539
sg27
Nsg28
S'significant increase in zidovudine AUC | \r'
p540
sg30
Nsg31
Nsg32
Nsg33
Nsg34
Nsg35
Nsg36
S'ZIDOVUDINE'
p541
sa(dp542
g2
Nsg3
S'http://bio2rdf.org/drugbank:DB00404'
p543
sg5
S'http://bio2rdf.org/drugbank:DB00176'
p544
sg7
Nsg8
Nsg9
Nsg10
S'consensus set annotator team'
p545
sg12
Nsg13
Nsg14
Nsg15
Nsg16
Nsg17
g18
sg19
Nsg20
Nsg21
Nsg22
Nsg23
Nsg24
Nsg25
S'Fluvoxamine'
p546
sg27
Nsg28
S'doubled the maximum plasma concentration of alprazolam, decreased clearance by 49%, increased half-life by 71 | ketoconazole, 3.98 fold; itraconazole, 2.70 fold; nefazodone, 1.98 fold; fluvoxamine, 1.96 fold; and erythromycin, 1.61 fold | increasing alprazolam AUC, are as follows: ketoconazole, 3.98 fold; itraconazole, 2.70 fold; nefazodone, 1.98 fold; fluvoxamine, 1.96 fold; and erythromycin, 1.61 fold | \r'
p547
sg30
Nsg31
Nsg32
Nsg33
Nsg34
Nsg35
Nsg36
S'Alprazolam'
p548
sa(dp549
g2
Nsg3
S'http://bio2rdf.org/drugbank:DB00321'
p550
sg5
S'http://bio2rdf.org/drugbank:DB00176'
p551
sg7
Nsg8
Nsg9
Nsg10
S'consensus set annotator team'
p552
sg12
Nsg13
Nsg14
Nsg15
Nsg16
Nsg17
g18
sg19
Nsg20
Nsg21
Nsg22
Nsg23
Nsg24
Nsg25
S'Fluvoxamine'
p553
sg27
Nsg28
S'Significantly increased plasma TCA levels have been reported | \r'
p554
sg30
Nsg31
Nsg32
Nsg33
Nsg34
Nsg35
Nsg36
S'Amitriptyline'
p555
sa(dp556
g2
Nsg3
S'http://bio2rdf.org/drugbank:DB00564'
p557
sg5
S'http://bio2rdf.org/drugbank:DB00176'
p558
sg7
Nsg8
Nsg9
Nsg10
S'consensus set annotator team'
p559
sg12
Nsg13
Nsg14
Nsg15
Nsg16
Nsg17
g18
sg19
Nsg20
Nsg21
Nsg22
Nsg23
Nsg24
Nsg25
S'Fluvoxamine'
p560
sg27
Nsg28
S'Elevated carbamazepine levels | \r'
p561
sg30
Nsg31
Nsg32
Nsg33
Nsg34
Nsg35
Nsg36
S'Carbamazepine'
p562
sa(dp563
g2
Nsg3
S'http://bio2rdf.org/drugbank:DB01242'
p564
sg5
S'http://bio2rdf.org/drugbank:DB00176'
p565
sg7
Nsg8
Nsg9
Nsg10
S'consensus set annotator team'
p566
sg12
Nsg13
Nsg14
Nsg15
Nsg16
Nsg17
g18
sg19
Nsg20
Nsg21
Nsg22
Nsg23
Nsg24
Nsg25
S'Fluvoxamine'
p567
sg27
Nsg28
S'Significantly increased plasma TCA levels | Significantly increased plasma TCA levels have been reported | \r'
p568
sg30
Nsg31
Nsg32
Nsg33
Nsg34
Nsg35
Nsg36
S'Clomipramine'
p569
sa(dp570
g2
Nsg3
S'http://bio2rdf.org/drugbank:DB00829'
p571
sg5
S'http://bio2rdf.org/drugbank:DB00176'
p572
sg7
Nsg8
Nsg9
Nsg10
S'consensus set annotator team'
p573
sg12
Nsg13
Nsg14
Nsg15
Nsg16
Nsg17
g18
sg19
Nsg20
Nsg21
Nsg22
Nsg23
Nsg24
Nsg25
S'Fluvoxamine'
p574
sg27
Nsg28
S'influence the pharmacokinetics | \r'
p575
sg30
Nsg31
Nsg32
Nsg33
Nsg34
Nsg35
Nsg36
S'DIAZEPAM'
p576
sa(dp577
g2
Nsg3
S'http://bio2rdf.org/drugbank:DB00458'
p578
sg5
S'http://bio2rdf.org/drugbank:DB00176'
p579
sg7
Nsg8
Nsg9
Nsg10
S'consensus set annotator team'
p580
sg12
Nsg13
Nsg14
Nsg15
Nsg16
Nsg17
g18
sg19
Nsg20
Nsg21
Nsg22
Nsg23
Nsg24
Nsg25
S'Fluvoxamine'
p581
sg27
Nsg28
S'Significantly increased plasma TCA levels have been reported | \r'
p582
sg30
Nsg31
Nsg32
Nsg33
Nsg34
Nsg35
Nsg36
S'IMIPRAMINE'
p583
sa(dp584
g2
Nsg3
S'http://bio2rdf.org/drugbank:DB00382'
p585
sg5
S'http://bio2rdf.org/drugbank:DB00176'
p586
sg7
Nsg8
Nsg9
Nsg10
S'consensus set annotator team'
p587
sg12
Nsg13
Nsg14
Nsg15
Nsg16
Nsg17
g18
sg19
Nsg20
Nsg21
Nsg22
Nsg23
Nsg24
Nsg25
S'Fluvoxamine'
p588
sg27
Nsg28
S'five- and eight-fold increases in tacrine Cmax and AUC | \r'
p589
sg30
Nsg31
Nsg32
Nsg33
Nsg34
Nsg35
Nsg36
S'Tacrine'
p590
sa(dp591
g2
Nsg3
S'http://bio2rdf.org/drugbank:DB01356'
p592
sg5
S'http://bio2rdf.org/drugbank:DB00999'
p593
sg7
Nsg8
Nsg9
Nsg10
S'consensus set annotator team'
p594
sg12
Nsg13
Nsg14
Nsg15
Nsg16
Nsg17
g18
sg19
Nsg20
Nsg21
Nsg22
Nsg23
Nsg24
Nsg25
S'Hydrochlorothiazide'
p595
sg27
Nsg28
S'reduce the renal clearance of lithium | \r'
p596
sg30
Nsg31
Nsg32
Nsg33
Nsg34
Nsg35
Nsg36
S'LITHIUM'
p597
sa(dp598
g2
Nsg3
S'http://bio2rdf.org/drugbank:DB00656'
p599
sg5
S'http://bio2rdf.org/drugbank:DB00224'
p600
sg7
Nsg8
Nsg9
Nsg10
S'consensus set annotator team'
p601
sg12
Nsg13
Nsg14
Nsg15
Nsg16
Nsg17
g18
sg19
Nsg20
Nsg21
Nsg22
Nsg23
Nsg24
Nsg25
S'INDINAVIR'
p602
sg27
Nsg28
S'can be inhibited | \r'
p603
sg30
Nsg31
Nsg32
Nsg33
Nsg34
Nsg35
Nsg36
S'TRAZODONE'
p604
sa(dp605
g2
Nsg3
S'http://bio2rdf.org/drugbank:DB00454'
p606
sg5
S'http://bio2rdf.org/drugbank:DB05347'
p607
sg7
Nsg8
Nsg9
Nsg10
S'consensus set annotator team'
p608
sg12
Nsg13
Nsg14
Nsg15
Nsg16
Nsg17
g18
sg19
Nsg20
Nsg21
Nsg22
Nsg23
Nsg24
Nsg25
S'iontophoretic acyclovir'
p609
sg27
Nsg28
S'Plasma concentrations of meperidine and its metabolite, normeperidine, may be increased | \r'
p610
sg30
Nsg31
Nsg32
Nsg33
Nsg34
Nsg35
Nsg36
S'PETHIDINE'
p611
sa(dp612
g2
Nsg3
S'http://bio2rdf.org/drugbank:DB01258'
p613
sg5
S'http://bio2rdf.org/drugbank:DB01029'
p614
sg7
Nsg8
Nsg9
Nsg10
S'consensus set annotator team'
p615
sg12
Nsg13
Nsg14
Nsg15
Nsg16
Nsg17
g18
sg19
Nsg20
Nsg21
Nsg22
Nsg23
Nsg24
Nsg25
S'IRBESARTAN'
p616
sg27
Nsg28
S'reduced aliskiren Cmax up to 50 | \r'
p617
sg30
Nsg31
Nsg32
Nsg33
Nsg34
Nsg35
Nsg36
S'Aliskiren'
p618
sa(dp619
g2
Nsg3
S'http://bio2rdf.org/drugbank:DB00564'
p620
sg5
S'http://bio2rdf.org/drugbank:DB00951'
p621
sg7
Nsg8
Nsg9
Nsg10
S'consensus set annotator team'
p622
sg12
Nsg13
Nsg14
Nsg15
Nsg16
Nsg17
g18
sg19
Nsg20
Nsg21
Nsg22
Nsg23
Nsg24
Nsg25
S'Isoniazid'
p623
sg27
Nsg28
S'increase its serum levels | \r'
p624
sg30
Nsg31
Nsg32
Nsg33
Nsg34
Nsg35
Nsg36
S'CARBAMAZEPINE'
p625
sa(dp626
g2
Nsg3
S'http://bio2rdf.org/drugbank:DB01258'
p627
sg5
S'http://bio2rdf.org/drugbank:DB01026'
p628
sg7
Nsg8
Nsg9
Nsg10
S'consensus set annotator team'
p629
sg12
Nsg13
Nsg14
Nsg15
Nsg16
Nsg17
g18
sg19
Nsg20
Nsg21
Nsg22
Nsg23
Nsg24
Nsg25
S'Ketoconazole'
p630
sg27
Nsg28
S'80% increase in plasma levels of aliskiren | \r'
p631
sg30
Nsg31
Nsg32
Nsg33
Nsg34
Nsg35
Nsg36
S'Aliskiren'
p632
sa(dp633
g2
Nsg3
S'http://bio2rdf.org/drugbank:DB00404'
p634
sg5
S'http://bio2rdf.org/drugbank:DB01026'
p635
sg7
Nsg8
Nsg9
Nsg10
S'consensus set annotator team'
p636
sg12
Nsg13
Nsg14
Nsg15
Nsg16
Nsg17
g18
sg19
Nsg20
Nsg21
Nsg22
Nsg23
Nsg24
Nsg25
S'Ketoconazole'
p637
sg27
Nsg28
S'ketoconazole, 3.98 fold; itraconazole, 2.70 fold; nefazodone, 1.98 fold; fluvoxamine, 1.96 fold; and erythromycin, 1.61 fold | increasing alprazolam AUC, are as follows: ketoconazole, 3.98 fold; itraconazole, 2.70 fold; nefazodone, 1.98 fold; fluvoxamine, 1.96 fold; and erythromycin, 1.61 fold | \r'
p638
sg30
Nsg31
Nsg32
Nsg33
Nsg34
Nsg35
Nsg36
S'Alprazolam'
p639
sa(dp640
g2
Nsg3
S'http://bio2rdf.org/drugbank:DB00872'
p641
sg5
S'http://bio2rdf.org/drugbank:DB01026'
p642
sg7
Nsg8
Nsg9
Nsg10
S'consensus set annotator team'
p643
sg12
Nsg13
Nsg14
Nsg15
Nsg16
Nsg17
g18
sg19
Nsg20
Nsg21
Nsg22
Nsg23
Nsg24
Nsg25
S'Ketoconazole'
p644
sg27
Nsg28
S'resulted in 4- and 11-fold increases in Cmax and AUC | \r'
p645
sg30
Nsg31
Nsg32
Nsg33
Nsg34
Nsg35
Nsg36
S'Conivaptan'
p646
sa(dp647
g2
Nsg3
S'http://bio2rdf.org/drugbank:DB06700'
p648
sg5
S'http://bio2rdf.org/drugbank:DB01026'
p649
sg7
Nsg8
Nsg9
Nsg10
S'consensus set annotator team'
p650
sg12
Nsg13
Nsg14
Nsg15
Nsg16
Nsg17
g18
sg19
Nsg20
Nsg21
Nsg22
Nsg23
Nsg24
Nsg25
S'Ketoconazole'
p651
sg27
Nsg28
S'AUC increased by 21% in EM subjects and 70% in PM subjects | Cmax increased by 26% in EM subjects and 48% in PM subjects | resulted in higher plasma concentrations | \r'
p652
sg30
Nsg31
Nsg32
Nsg33
Nsg34
Nsg35
Nsg36
S'Desvenlafaxine'
p653
sa(dp654
g2
Nsg3
S'http://bio2rdf.org/drugbank:DB00829'
p655
sg5
S'http://bio2rdf.org/drugbank:DB01026'
p656
sg7
Nsg8
Nsg9
Nsg10
S'consensus set annotator team'
p657
sg12
Nsg13
Nsg14
Nsg15
Nsg16
Nsg17
g18
sg19
Nsg20
Nsg21
Nsg22
Nsg23
Nsg24
Nsg25
S'Ketoconazole'
p658
sg27
Nsg28
S'influence the pharmacokinetics | \r'
p659
sg30
Nsg31
Nsg32
Nsg33
Nsg34
Nsg35
Nsg36
S'DIAZEPAM'
p660
sa(dp661
g2
Nsg3
S'http://bio2rdf.org/drugbank:DB00908'
p662
sg5
S'http://bio2rdf.org/drugbank:DB01026'
p663
sg7
Nsg8
Nsg9
Nsg10
S'consensus set annotator team'
p664
sg12
Nsg13
Nsg14
Nsg15
Nsg16
Nsg17
g18
sg19
Nsg20
Nsg21
Nsg22
Nsg23
Nsg24
Nsg25
S'Ketoconazole'
p665
sg27
Nsg28
S'quinidine levels rise when ketoconazole is coadministered | \r'
p666
sg30
Nsg31
Nsg32
Nsg33
Nsg34
Nsg35
Nsg36
S'QUINIDINE'
p667
sa(dp668
g2
Nsg3
S'http://bio2rdf.org/drugbank:DB00415'
p669
sg5
S'http://bio2rdf.org/drugbank:DB00448'
p670
sg7
Nsg8
Nsg9
Nsg10
S'consensus set annotator team'
p671
sg12
Nsg13
Nsg14
Nsg15
Nsg16
Nsg17
g18
sg19
Nsg20
Nsg21
Nsg22
Nsg23
Nsg24
Nsg25
S'Lansoprazole'
p672
sg27
Nsg28
S'may interfere with the absorption | \r'
p673
sg30
Nsg31
Nsg32
Nsg33
Nsg34
Nsg35
Nsg36
S'AMPICILLIN'
p674
sa(dp675
g2
Nsg3
S'http://bio2rdf.org/drugbank:DB01072'
p676
sg5
S'http://bio2rdf.org/drugbank:DB00448'
p677
sg7
Nsg8
Nsg9
Nsg10
S'consensus set annotator team'
p678
sg12
Nsg13
Nsg14
Nsg15
Nsg16
Nsg17
g18
sg19
Nsg20
Nsg21
Nsg22
Nsg23
Nsg24
Nsg25
S'Lansoprazole'
p679
sg27
Nsg28
S'decrease the systemic concentrations | \r'
p680
sg30
Nsg31
Nsg32
Nsg33
Nsg34
Nsg35
Nsg36
S'Atazanavir'
p681
sa(dp682
g2
Nsg3
S'http://bio2rdf.org/drugbank:DB00390'
p683
sg5
S'http://bio2rdf.org/drugbank:DB00448'
p684
sg7
Nsg8
Nsg9
Nsg10
S'consensus set annotator team'
p685
sg12
Nsg13
Nsg14
Nsg15
Nsg16
Nsg17
g18
sg19
Nsg20
Nsg21
Nsg22
Nsg23
Nsg24
Nsg25
S'Lansoprazole'
p686
sg27
Nsg28
S'may interfere with the absorption | \r'
p687
sg30
Nsg31
Nsg32
Nsg33
Nsg34
Nsg35
Nsg36
S'Digoxin'
p688
sa(dp689
g2
Nsg3
S'http://bio2rdf.org/drugbank:DB01592'
p690
sg5
S'http://bio2rdf.org/drugbank:DB00448'
p691
sg7
Nsg8
Nsg9
Nsg10
S'consensus set annotator team'
p692
sg12
Nsg13
Nsg14
Nsg15
Nsg16
Nsg17
g18
sg19
Nsg20
Nsg21
Nsg22
Nsg23
Nsg24
Nsg25
S'Lansoprazole'
p693
sg27
Nsg28
S'may interfere with the absorption | \r'
p694
sg30
Nsg31
Nsg32
Nsg33
Nsg34
Nsg35
Nsg36
S'IRON'
p695
sa(dp696
g2
Nsg3
S'http://bio2rdf.org/drugbank:DB01026'
p697
sg5
S'http://bio2rdf.org/drugbank:DB00448'
p698
sg7
Nsg8
Nsg9
Nsg10
S'consensus set annotator team'
p699
sg12
Nsg13
Nsg14
Nsg15
Nsg16
Nsg17
g18
sg19
Nsg20
Nsg21
Nsg22
Nsg23
Nsg24
Nsg25
S'Lansoprazole'
p700
sg27
Nsg28
S'may interfere with the absorption | \r'
p701
sg30
Nsg31
Nsg32
Nsg33
Nsg34
Nsg35
Nsg36
S'Ketoconazole'
p702
sa(dp703
g2
Nsg3
S'http://bio2rdf.org/drugbank:DB00864'
p704
sg5
S'http://bio2rdf.org/drugbank:DB00448'
p705
sg7
Nsg8
Nsg9
Nsg10
S'consensus set annotator team'
p706
sg12
Nsg13
Nsg14
Nsg15
Nsg16
Nsg17
g18
sg19
Nsg20
Nsg21
Nsg22
Nsg23
Nsg24
Nsg25
S'Lansoprazole'
p707
sg27
Nsg28
S'may increase whole blood levels | \r'
p708
sg30
Nsg31
Nsg32
Nsg33
Nsg34
Nsg35
Nsg36
S'TACROLIMUS'
p709
sa(dp710
g2
Nsg3
S'http://bio2rdf.org/drugbank:DB00277'
p711
sg5
S'http://bio2rdf.org/drugbank:DB00448'
p712
sg7
Nsg8
Nsg9
Nsg10
S'consensus set annotator team'
p713
sg12
Nsg13
Nsg14
Nsg15
Nsg16
Nsg17
g18
sg19
Nsg20
Nsg21
Nsg22
Nsg23
Nsg24
Nsg25
S'Lansoprazole'
p714
sg27
Nsg28
S'increase (10%) in the clearance | a minor increase (10%) in the clearance | \r'
p715
sg30
Nsg31
Nsg32
Nsg33
Nsg34
Nsg35
Nsg36
S'THEOPHYLLINE'
p716
sa(dp717
g2
Nsg3
S'http://bio2rdf.org/drugbank:DB01076'
p718
sg5
S'http://bio2rdf.org/drugbank:DB01601'
p719
sg7
Nsg8
Nsg9
Nsg10
S'consensus set annotator team'
p720
sg12
Nsg13
Nsg14
Nsg15
Nsg16
Nsg17
g18
sg19
Nsg20
Nsg21
Nsg22
Nsg23
Nsg24
Nsg25
S'Lopinavir'
p721
sg27
Nsg28
S'AUC was significantly increased | AUC was significantly increased | \r'
p722
sg30
Nsg31
Nsg32
Nsg33
Nsg34
Nsg35
Nsg36
S'ATORVASTATIN'
p723
sa(dp724
g2
Nsg3
S'http://bio2rdf.org/drugbank:DB01076'
p725
sg5
S'http://bio2rdf.org/drugbank:DB01601'
p726
sg7
Nsg8
Nsg9
Nsg10
S'consensus set annotator team'
p727
sg12
Nsg13
Nsg14
Nsg15
Nsg16
Nsg17
g18
sg19
Nsg20
Nsg21
Nsg22
Nsg23
Nsg24
Nsg25
S'Lopinavir'
p728
sg27
Nsg28
S'AUC was significantly increased | AUC was significantly increased | \r'
p729
sg30
Nsg31
Nsg32
Nsg33
Nsg34
Nsg35
Nsg36
S'Atorvastatin'
p730
sa(dp731
g2
Nsg3
S'http://bio2rdf.org/drugbank:DB00390'
p732
sg5
S'http://bio2rdf.org/drugbank:DB01378'
p733
sg7
Nsg8
Nsg9
Nsg10
S'consensus set annotator team'
p734
sg12
Nsg13
Nsg14
Nsg15
Nsg16
Nsg17
g18
sg19
Nsg20
Nsg21
Nsg22
Nsg23
Nsg24
Nsg25
S'MAGNESIUM'
p735
sg27
Nsg28
S'been reported to lower serum digoxin levels | \r'
p736
sg30
Nsg31
Nsg32
Nsg33
Nsg34
Nsg35
Nsg36
S'Digoxin'
p737
sa(dp738
g2
Nsg3
S'http://bio2rdf.org/drugbank:DB00698'
p739
sg5
S'http://bio2rdf.org/drugbank:DB01378'
p740
sg7
Nsg8
Nsg9
Nsg10
S'consensus set annotator team'
p741
sg12
Nsg13
Nsg14
Nsg15
Nsg16
Nsg17
g18
sg19
Nsg20
Nsg21
Nsg22
Nsg23
Nsg24
Nsg25
S'MAGNESIUM'
p742
sg27
Nsg28
S'reduce both the rate and extent of absorption | \r'
p743
sg30
Nsg31
Nsg32
Nsg33
Nsg34
Nsg35
Nsg36
S'NITROFURANTOIN'
p744
sa(dp745
g2
Nsg3
S'http://bio2rdf.org/drugbank:DB00489'
p746
sg5
S'http://bio2rdf.org/drugbank:DB01378'
p747
sg7
Nsg8
Nsg9
Nsg10
S'consensus set annotator team'
p748
sg12
Nsg13
Nsg14
Nsg15
Nsg16
Nsg17
g18
sg19
Nsg20
Nsg21
Nsg22
Nsg23
Nsg24
Nsg25
S'MAGNESIUM'
p749
sg27
Nsg28
S'reduction in Cmax and AUC of 26% and 20% | \r'
p750
sg30
Nsg31
Nsg32
Nsg33
Nsg34
Nsg35
Nsg36
S'Sotalol'
p751
sa(dp752
g2
Nsg3
S'http://bio2rdf.org/drugbank:DB00316'
p753
sg5
S'http://bio2rdf.org/drugbank:DB01233'
p754
sg7
Nsg8
Nsg9
Nsg10
S'consensus set annotator team'
p755
sg12
Nsg13
Nsg14
Nsg15
Nsg16
Nsg17
g18
sg19
Nsg20
Nsg21
Nsg22
Nsg23
Nsg24
Nsg25
S'METOCLOPRAMIDE'
p756
sg27
Nsg28
S'the rate and/or extent of absorption of drugs from the small bowel may be increased | \r'
p757
sg30
Nsg31
Nsg32
Nsg33
Nsg34
Nsg35
Nsg36
S'ACETAMINOPHEN'
p758
sa(dp759
g2
Nsg3
S'http://bio2rdf.org/drugbank:DB00091'
p760
sg5
S'http://bio2rdf.org/drugbank:DB01233'
p761
sg7
Nsg8
Nsg9
Nsg10
S'consensus set annotator team'
p762
sg12
Nsg13
Nsg14
Nsg15
Nsg16
Nsg17
g18
sg19
Nsg20
Nsg21
Nsg22
Nsg23
Nsg24
Nsg25
S'METOCLOPRAMIDE'
p763
sg27
Nsg28
S'the rate and/or extent of absorption of drugs from the small bowel may be increased | \r'
p764
sg30
Nsg31
Nsg32
Nsg33
Nsg34
Nsg35
Nsg36
S'CYCLOSPORINE'
p765
sa(dp766
g2
Nsg3
S'http://bio2rdf.org/drugbank:DB00390'
p767
sg5
S'http://bio2rdf.org/drugbank:DB01233'
p768
sg7
Nsg8
Nsg9
Nsg10
S'consensus set annotator team'
p769
sg12
Nsg13
Nsg14
Nsg15
Nsg16
Nsg17
g18
sg19
Nsg20
Nsg21
Nsg22
Nsg23
Nsg24
Nsg25
S'METOCLOPRAMIDE'
p770
sg27
Nsg28
S'Absorption of drugs from the stomach may be diminished | \r'
p771
sg30
Nsg31
Nsg32
Nsg33
Nsg34
Nsg35
Nsg36
S'Digoxin'
p772
sa(dp773
g2
Nsg3
S'http://bio2rdf.org/drugbank:DB00898'
p774
sg5
S'http://bio2rdf.org/drugbank:DB01233'
p775
sg7
Nsg8
Nsg9
Nsg10
S'consensus set annotator team'
p776
sg12
Nsg13
Nsg14
Nsg15
Nsg16
Nsg17
g18
sg19
Nsg20
Nsg21
Nsg22
Nsg23
Nsg24
Nsg25
S'Metoclopramide'
p777
sg27
Nsg28
S'the rate and/or extent of absorption of drugs from the small bowel may be increased | \r'
p778
sg30
Nsg31
Nsg32
Nsg33
Nsg34
Nsg35
Nsg36
S'ETHANOL'
p779
sa(dp780
g2
Nsg3
S'http://bio2rdf.org/drugbank:DB01235'
p781
sg5
S'http://bio2rdf.org/drugbank:DB01233'
p782
sg7
Nsg8
Nsg9
Nsg10
S'consensus set annotator team'
p783
sg12
Nsg13
Nsg14
Nsg15
Nsg16
Nsg17
g18
sg19
Nsg20
Nsg21
Nsg22
Nsg23
Nsg24
Nsg25
S'METOCLOPRAMIDE'
p784
sg27
Nsg28
S'the rate and/or extent of absorption of drugs from the small bowel may be increased | \r'
p785
sg30
Nsg31
Nsg32
Nsg33
Nsg34
Nsg35
Nsg36
S'L-DOPA'
p786
sa(dp787
g2
Nsg3
S'http://bio2rdf.org/drugbank:DB00759'
p788
sg5
S'http://bio2rdf.org/drugbank:DB01233'
p789
sg7
Nsg8
Nsg9
Nsg10
S'consensus set annotator team'
p790
sg12
Nsg13
Nsg14
Nsg15
Nsg16
Nsg17
g18
sg19
Nsg20
Nsg21
Nsg22
Nsg23
Nsg24
Nsg25
S'METOCLOPRAMIDE'
p791
sg27
Nsg28
S'the rate and/or extent of absorption of drugs from the small bowel may be increased | \r'
p792
sg30
Nsg31
Nsg32
Nsg33
Nsg34
Nsg35
Nsg36
S'Tetracycline'
p793
sa(dp794
g2
Nsg3
S'http://bio2rdf.org/drugbank:DB00404'
p795
sg5
S'http://bio2rdf.org/drugbank:DB01149'
p796
sg7
Nsg8
Nsg9
Nsg10
S'consensus set annotator team'
p797
sg12
Nsg13
Nsg14
Nsg15
Nsg16
Nsg17
g18
sg19
Nsg20
Nsg21
Nsg22
Nsg23
Nsg24
Nsg25
S'Nefazodone'
p798
sg27
Nsg28
S'ketoconazole, 3.98 fold; itraconazole, 2.70 fold; nefazodone, 1.98 fold; fluvoxamine, 1.96 fold; and erythromycin, 1.61 fold | peak concentrations, AUC and half-life values for alprazolam increased by approximately 2-fold | increased alprazolam concentration two-fold | increasing alprazolam AUC, are as follows: ketoconazole, 3.98 fold; itraconazole, 2.70 fold; nefazodone, 1.98 fold; fluvoxamine, 1.96 fold; and erythromycin, 1.61 fold | \r'
p799
sg30
Nsg31
Nsg32
Nsg33
Nsg34
Nsg35
Nsg36
S'Alprazolam'
p800
sa(dp801
g2
Nsg3
S'http://bio2rdf.org/drugbank:DB00897'
p802
sg5
S'http://bio2rdf.org/drugbank:DB01149'
p803
sg7
Nsg8
Nsg9
Nsg10
S'consensus set annotator team'
p804
sg12
Nsg13
Nsg14
Nsg15
Nsg16
Nsg17
g18
sg19
Nsg20
Nsg21
Nsg22
Nsg23
Nsg24
Nsg25
S'Nefazodone'
p805
sg27
Nsg28
S'half-life and AUC increased 4-fold and peak concentrations increased 1.7-fold | \r'
p806
sg30
Nsg31
Nsg32
Nsg33
Nsg34
Nsg35
Nsg36
S'Triazolam'
p807
sa(dp808
g2
Nsg3
S'http://bio2rdf.org/drugbank:DB00289'
p809
sg5
S'http://bio2rdf.org/drugbank:DB00715'
p810
sg7
Nsg8
Nsg9
Nsg10
S'consensus set annotator team'
p811
sg12
Nsg13
Nsg14
Nsg15
Nsg16
Nsg17
g18
sg19
Nsg20
Nsg21
Nsg22
Nsg23
Nsg24
Nsg25
S'PAROXETINE'
p812
sg27
Nsg28
S'increase atomoxetine steady-state plasma concentrations | atomoxetine Cmax values that were 3- to 4-fold greater | increase in atomoxetine plasma exposure | cause similar increases in exposure | the AUC of atomoxetine is approximately 6- to 8-fold and Css,max is about 3- to 4-fold greater | increases in steady state atomoxetine AUC values that were 6- to 8-fold greater | \r'
p813
sg30
Nsg31
Nsg32
Nsg33
Nsg34
Nsg35
Nsg36
S'Atomoxetine'
p814
sa(dp815
g2
Nsg3
S'http://bio2rdf.org/drugbank:DB01151'
p816
sg5
S'http://bio2rdf.org/drugbank:DB00715'
p817
sg7
Nsg8
Nsg9
Nsg10
S'consensus set annotator team'
p818
sg12
Nsg13
Nsg14
Nsg15
Nsg16
Nsg17
g18
sg19
Nsg20
Nsg21
Nsg22
Nsg23
Nsg24
Nsg25
S'PAROXETINE'
p819
sg27
Nsg28
S'increased single-dose desipramine (100 mg) Cmax, AUC, and T? by an average of approximately 2-, 5-, and 3-fold | \r'
p820
sg30
Nsg31
Nsg32
Nsg33
Nsg34
Nsg35
Nsg36
S'DESIPRAMINE'
p821
sa(dp822
g2
Nsg3
S'http://bio2rdf.org/drugbank:DB01267'
p823
sg5
S'http://bio2rdf.org/drugbank:DB00715'
p824
sg7
Nsg8
Nsg9
Nsg10
S'consensus set annotator team'
p825
sg12
Nsg13
Nsg14
Nsg15
Nsg16
Nsg17
g18
sg19
Nsg20
Nsg21
Nsg22
Nsg23
Nsg24
Nsg25
S'PAROXETINE'
p826
sg27
Nsg28
S'decreased 9-hydroxyrisperidone concentrations approximately 10% | lowered the concentration of 9-hydroxyrisperidone by about 10% | \r'
p827
sg30
Nsg31
Nsg32
Nsg33
Nsg34
Nsg35
Nsg36
S'Paliperidone'
p828
sa(dp829
g2
Nsg3
S'http://bio2rdf.org/drugbank:DB00252'
p830
sg5
S'http://bio2rdf.org/drugbank:DB00715'
p831
sg7
Nsg8
Nsg9
Nsg10
S'consensus set annotator team'
p832
sg12
Nsg13
Nsg14
Nsg15
Nsg16
Nsg17
g18
sg19
Nsg20
Nsg21
Nsg22
Nsg23
Nsg24
Nsg25
S'Paroxetine'
p833
sg27
Nsg28
S'AUC was slightly reduced (12% on average) | \r'
p834
sg30
Nsg31
Nsg32
Nsg33
Nsg34
Nsg35
Nsg36
S'Phenytoin'
p835
sa(dp836
g2
Nsg3
S'http://bio2rdf.org/drugbank:DB01100'
p837
sg5
S'http://bio2rdf.org/drugbank:DB00715'
p838
sg7
Nsg8
Nsg9
Nsg10
S'consensus set annotator team'
p839
sg12
Nsg13
Nsg14
Nsg15
Nsg16
Nsg17
g18
sg19
Nsg20
Nsg21
Nsg22
Nsg23
Nsg24
Nsg25
S'PAROXETINE'
p840
sg27
Nsg28
S'increases in pimozide AUC of 151% and Cmax of 62% | \r'
p841
sg30
Nsg31
Nsg32
Nsg33
Nsg34
Nsg35
Nsg36
S'Pimozide'
p842
sa(dp843
g2
Nsg3
S'http://bio2rdf.org/drugbank:DB00734'
p844
sg5
S'http://bio2rdf.org/drugbank:DB00715'
p845
sg7
Nsg8
Nsg9
Nsg10
S'consensus set annotator team'
p846
sg12
Nsg13
Nsg14
Nsg15
Nsg16
Nsg17
g18
sg19
Nsg20
Nsg21
Nsg22
Nsg23
Nsg24
Nsg25
S'Paroxetine'
p847
sg27
Nsg28
S'increased mean plasma concentrations of risperidone approximately 4-fold | increase the plasma concentration of risperidone 2.5 to 2.8 fold and 3 to 9 fold | increased concentrations of the active moiety (the sum of risperidone plus 9-hydroxyrisperidone) approximately 1.4-fold | \r'
p848
sg30
Nsg31
Nsg32
Nsg33
Nsg34
Nsg35
Nsg36
S'Risperidone'
p849
sa(dp850
g2
Nsg3
S'http://bio2rdf.org/drugbank:DB00715'
p851
sg5
S'http://bio2rdf.org/drugbank:DB01174'
p852
sg7
Nsg8
Nsg9
Nsg10
S'consensus set annotator team'
p853
sg12
Nsg13
Nsg14
Nsg15
Nsg16
Nsg17
g18
sg19
Nsg20
Nsg21
Nsg22
Nsg23
Nsg24
Nsg25
S'Phenobarbital'
p854
sg27
Nsg28
S'AUC and T? were reduced (by an average of 25% and 38% | \r'
p855
sg30
Nsg31
Nsg32
Nsg33
Nsg34
Nsg35
Nsg36
S'Paroxetine'
p856
sa(dp857
g2
Nsg3
S'http://bio2rdf.org/drugbank:DB00734'
p858
sg5
S'http://bio2rdf.org/drugbank:DB01174'
p859
sg7
Nsg8
Nsg9
Nsg10
S'consensus set annotator team'
p860
sg12
Nsg13
Nsg14
Nsg15
Nsg16
Nsg17
g18
sg19
Nsg20
Nsg21
Nsg22
Nsg23
Nsg24
Nsg25
S'PHENOBARBITAL'
p861
sg27
Nsg28
S'may cause similar decreases in the combined plasma concentrations | may cause a decrease in the combined plasma concentrations | \r'
p862
sg30
Nsg31
Nsg32
Nsg33
Nsg34
Nsg35
Nsg36
S'Risperidone'
p863
sa(dp864
g2
Nsg3
S'http://bio2rdf.org/drugbank:DB00661'
p865
sg5
S'http://bio2rdf.org/drugbank:DB01174'
p866
sg7
Nsg8
Nsg9
Nsg10
S'consensus set annotator team'
p867
sg12
Nsg13
Nsg14
Nsg15
Nsg16
Nsg17
g18
sg19
Nsg20
Nsg21
Nsg22
Nsg23
Nsg24
Nsg25
S'PHENOBARBITAL'
p868
sg27
Nsg28
S'may increase verapamil clearance | \r'
p869
sg30
Nsg31
Nsg32
Nsg33
Nsg34
Nsg35
Nsg36
S'Verapamil'
p870
sa(dp871
g2
Nsg3
S'http://bio2rdf.org/drugbank:DB00949'
p872
sg5
S'http://bio2rdf.org/drugbank:DB00252'
p873
sg7
Nsg8
Nsg9
Nsg10
S'consensus set annotator team'
p874
sg12
Nsg13
Nsg14
Nsg15
Nsg16
Nsg17
g18
sg19
Nsg20
Nsg21
Nsg22
Nsg23
Nsg24
Nsg25
S'PHENYTOIN'
p875
sg27
Nsg28
S'causes an approximate doubling of the clearance | 45% decrease in the steady-state trough concentrations | \r'
p876
sg30
Nsg31
Nsg32
Nsg33
Nsg34
Nsg35
Nsg36
S'Felbamate'
p877
sa(dp878
g2
Nsg3
S'http://bio2rdf.org/drugbank:DB00949'
p879
sg5
S'http://bio2rdf.org/drugbank:DB00252'
p880
sg7
Nsg8
Nsg9
Nsg10
S'consensus set annotator team'
p881
sg12
Nsg13
Nsg14
Nsg15
Nsg16
Nsg17
g18
sg19
Nsg20
Nsg21
Nsg22
Nsg23
Nsg24
Nsg25
S'PHENYTOIN'
p882
sg27
Nsg28
S'causes an approximate doubling of the clearance | 45% decrease in the steady-state trough concentrations | \r'
p883
sg30
Nsg31
Nsg32
Nsg33
Nsg34
Nsg35
Nsg36
S'Felbamate'
p884
sa(dp885
g2
Nsg3
S'http://bio2rdf.org/drugbank:DB00176'
p886
sg5
S'http://bio2rdf.org/drugbank:DB00252'
p887
sg7
Nsg8
Nsg9
Nsg10
S'consensus set annotator team'
p888
sg12
Nsg13
Nsg14
Nsg15
Nsg16
Nsg17
g18
sg19
Nsg20
Nsg21
Nsg22
Nsg23
Nsg24
Nsg25
S'Phenytoin'
p889
sg27
Nsg28
S'A clinically significant fluvoxamine interaction | \r'
p890
sg30
Nsg31
Nsg32
Nsg33
Nsg34
Nsg35
Nsg36
S'Fluvoxamine'
p891
sa(dp892
g2
Nsg3
S'http://bio2rdf.org/drugbank:DB01115'
p893
sg5
S'http://bio2rdf.org/drugbank:DB00252'
p894
sg7
Nsg8
Nsg9
Nsg10
S'consensus set annotator team'
p895
sg12
Nsg13
Nsg14
Nsg15
Nsg16
Nsg17
g18
sg19
Nsg20
Nsg21
Nsg22
Nsg23
Nsg24
Nsg25
S'PHENYTOIN'
p896
sg27
Nsg28
S'lowered the AUC and Cmax of nifedipine by approximately 70% | \r'
p897
sg30
Nsg31
Nsg32
Nsg33
Nsg34
Nsg35
Nsg36
S'Nifedipine'
p898
sa(dp899
g2
Nsg3
S'http://bio2rdf.org/drugbank:DB00715'
p900
sg5
S'http://bio2rdf.org/drugbank:DB00252'
p901
sg7
Nsg8
Nsg9
Nsg10
S'consensus set annotator team'
p902
sg12
Nsg13
Nsg14
Nsg15
Nsg16
Nsg17
g18
sg19
Nsg20
Nsg21
Nsg22
Nsg23
Nsg24
Nsg25
S'PHENYTOIN'
p903
sg27
Nsg28
S'AUC and T? were reduced (by an average of 50% and 35% | \r'
p904
sg30
Nsg31
Nsg32
Nsg33
Nsg34
Nsg35
Nsg36
S'PAROXETINE'
p905
sa(dp906
g2
Nsg3
S'http://bio2rdf.org/drugbank:DB00734'
p907
sg5
S'http://bio2rdf.org/drugbank:DB00252'
p908
sg7
Nsg8
Nsg9
Nsg10
S'consensus set annotator team'
p909
sg12
Nsg13
Nsg14
Nsg15
Nsg16
Nsg17
g18
sg19
Nsg20
Nsg21
Nsg22
Nsg23
Nsg24
Nsg25
S'Phenytoin'
p910
sg27
Nsg28
S'may cause similar decreases in the combined plasma concentrations | may cause a decrease in the combined plasma concentrations | \r'
p911
sg30
Nsg31
Nsg32
Nsg33
Nsg34
Nsg35
Nsg36
S'Risperidone'
p912
sa(dp913
g2
Nsg3
S'http://bio2rdf.org/drugbank:DB00495'
p914
sg5
S'http://bio2rdf.org/drugbank:DB00252'
p915
sg7
Nsg8
Nsg9
Nsg10
S'consensus set annotator team'
p916
sg12
Nsg13
Nsg14
Nsg15
Nsg16
Nsg17
g18
sg19
Nsg20
Nsg21
Nsg22
Nsg23
Nsg24
Nsg25
S'PHENYTOIN'
p917
sg27
Nsg28
S'30% decrease in oral zidovudine clearance was observed | \r'
p918
sg30
Nsg31
Nsg32
Nsg33
Nsg34
Nsg35
Nsg36
S'ZIDOVUDINE'
p919
sa(dp920
g2
Nsg3
S'http://bio2rdf.org/drugbank:DB00176'
p921
sg5
S'http://bio2rdf.org/drugbank:DB01100'
p922
sg7
Nsg8
Nsg9
Nsg10
S'consensus set annotator team'
p923
sg12
Nsg13
Nsg14
Nsg15
Nsg16
Nsg17
g18
sg19
Nsg20
Nsg21
Nsg22
Nsg23
Nsg24
Nsg25
S'Pimozide'
p924
sg27
Nsg28
S'A clinically significant fluvoxamine interaction | \r'
p925
sg30
Nsg31
Nsg32
Nsg33
Nsg34
Nsg35
Nsg36
S'Fluvoxamine'
p926
sa(dp927
g2
Nsg3
S'http://bio2rdf.org/drugbank:DB00661'
p928
sg5
S'http://bio2rdf.org/drugbank:DB00635'
p929
sg7
Nsg8
Nsg9
Nsg10
S'consensus set annotator team'
p930
sg12
Nsg13
Nsg14
Nsg15
Nsg16
Nsg17
g18
sg19
Nsg20
Nsg21
Nsg22
Nsg23
Nsg24
Nsg25
S'Prednisone'
p931
sg27
Nsg28
S'absorption of verapamil can be reduced | \r'
p932
sg30
Nsg31
Nsg32
Nsg33
Nsg34
Nsg35
Nsg36
S'Verapamil'
p933
sa(dp934
g2
Nsg3
S'http://bio2rdf.org/drugbank:DB00698'
p935
sg5
S'http://bio2rdf.org/drugbank:DB01032'
p936
sg7
Nsg8
Nsg9
Nsg10
S'consensus set annotator team'
p937
sg12
Nsg13
Nsg14
Nsg15
Nsg16
Nsg17
g18
sg19
Nsg20
Nsg21
Nsg22
Nsg23
Nsg24
Nsg25
S'Probenecid'
p938
sg27
Nsg28
S'increase in nitrofurantoin serum levels | \r'
p939
sg30
Nsg31
Nsg32
Nsg33
Nsg34
Nsg35
Nsg36
S'NITROFURANTOIN'
p940
sa(dp941
g2
Nsg3
S'http://bio2rdf.org/drugbank:DB00661'
p942
sg5
S'http://bio2rdf.org/drugbank:DB01168'
p943
sg7
Nsg8
Nsg9
Nsg10
S'consensus set annotator team'
p944
sg12
Nsg13
Nsg14
Nsg15
Nsg16
Nsg17
g18
sg19
Nsg20
Nsg21
Nsg22
Nsg23
Nsg24
Nsg25
S'Procarbazine'
p945
sg27
Nsg28
S'absorption of verapamil can be reduced | \r'
p946
sg30
Nsg31
Nsg32
Nsg33
Nsg34
Nsg35
Nsg36
S'Verapamil'
p947
sa(dp948
g2
Nsg3
S'http://bio2rdf.org/drugbank:DB00289'
p949
sg5
S'http://bio2rdf.org/drugbank:DB00908'
p950
sg7
Nsg8
Nsg9
Nsg10
S'consensus set annotator team'
p951
sg12
Nsg13
Nsg14
Nsg15
Nsg16
Nsg17
g18
sg19
Nsg20
Nsg21
Nsg22
Nsg23
Nsg24
Nsg25
S'Quinidine'
p952
sg27
Nsg28
S'cause similar increases in exposure | increase atomoxetine steady-state plasma concentrations | results in a substantial increase in atomoxetine plasma exposure | increase in atomoxetine plasma exposure | \r'
p953
sg30
Nsg31
Nsg32
Nsg33
Nsg34
Nsg35
Nsg36
S'Atomoxetine'
p954
sa(dp955
g2
Nsg3
S'http://bio2rdf.org/drugbank:DB01115'
p956
sg5
S'http://bio2rdf.org/drugbank:DB00908'
p957
sg7
Nsg8
Nsg9
Nsg10
S'consensus set annotator team'
p958
sg12
Nsg13
Nsg14
Nsg15
Nsg16
Nsg17
g18
sg19
Nsg20
Nsg21
Nsg22
Nsg23
Nsg24
Nsg25
S'QUINIDINE'
p959
sg27
Nsg28
S'increased Cmax and AUC of nifedipine in healthy volunteers by factors of 2.30 and 1.37 | \r'
p960
sg30
Nsg31
Nsg32
Nsg33
Nsg34
Nsg35
Nsg36
S'NIFEDIPINE'
p961
sa(dp962
g2
Nsg3
S'http://bio2rdf.org/drugbank:DB01115'
p963
sg5
S'http://bio2rdf.org/drugbank:DB01369'
p964
sg7
Nsg8
Nsg9
Nsg10
S'consensus set annotator team'
p965
sg12
Nsg13
Nsg14
Nsg15
Nsg16
Nsg17
g18
sg19
Nsg20
Nsg21
Nsg22
Nsg23
Nsg24
Nsg25
S'QUINUPRISTIN'
p966
sg27
Nsg28
S'increased AUC and Cmax for nifedipine by factors of 1.44 and 1.18 | \r'
p967
sg30
Nsg31
Nsg32
Nsg33
Nsg34
Nsg35
Nsg36
S'NIFEDIPINE'
p968
sa(dp969
g2
Nsg3
S'http://bio2rdf.org/drugbank:DB00734'
p970
sg5
S'http://bio2rdf.org/drugbank:DB00863'
p971
sg7
Nsg8
Nsg9
Nsg10
S'consensus set annotator team'
p972
sg12
Nsg13
Nsg14
Nsg15
Nsg16
Nsg17
g18
sg19
Nsg20
Nsg21
Nsg22
Nsg23
Nsg24
Nsg25
S'RANITIDINE'
p973
sg27
Nsg28
S'increased the AUC of risperidone and 9-hydroxyrisperidone combined by 20% | increased the bioavailability of risperidone by 64% and 26 | \r'
p974
sg30
Nsg31
Nsg32
Nsg33
Nsg34
Nsg35
Nsg36
S'Risperidone'
p975
sa(dp976
g2
Nsg3
S'http://bio2rdf.org/drugbank:DB01076'
p977
sg5
S'http://bio2rdf.org/drugbank:DB01045'
p978
sg7
Nsg8
Nsg9
Nsg10
S'consensus set annotator team'
p979
sg12
Nsg13
Nsg14
Nsg15
Nsg16
Nsg17
g18
sg19
Nsg20
Nsg21
Nsg22
Nsg23
Nsg24
Nsg25
S'RIFAMPICIN'
p980
sg27
Nsg28
S'significant reduction in atorvastatin plasma concentrations | can lead to variable reductions in plasma concentrations | \r'
p981
sg30
Nsg31
Nsg32
Nsg33
Nsg34
Nsg35
Nsg36
S'ATORVASTATIN'
p982
sa(dp983
g2
Nsg3
S'http://bio2rdf.org/drugbank:DB01076'
p984
sg5
S'http://bio2rdf.org/drugbank:DB01045'
p985
sg7
Nsg8
Nsg9
Nsg10
S'consensus set annotator team'
p986
sg12
Nsg13
Nsg14
Nsg15
Nsg16
Nsg17
g18
sg19
Nsg20
Nsg21
Nsg22
Nsg23
Nsg24
Nsg25
S'RIFAMPICIN'
p987
sg27
Nsg28
S'significant reduction in atorvastatin plasma concentrations | can lead to variable reductions in plasma concentrations | \r'
p988
sg30
Nsg31
Nsg32
Nsg33
Nsg34
Nsg35
Nsg36
S'Atorvastatin'
p989
sa(dp990
g2
Nsg3
S'http://bio2rdf.org/drugbank:DB00612'
p991
sg5
S'http://bio2rdf.org/drugbank:DB01045'
p992
sg7
Nsg8
Nsg9
Nsg10
S'consensus set annotator team'
p993
sg12
Nsg13
Nsg14
Nsg15
Nsg16
Nsg17
g18
sg19
Nsg20
Nsg21
Nsg22
Nsg23
Nsg24
Nsg25
S'RIFAMPICIN'
p994
sg27
Nsg28
S'increases the metabolic clearance of bisoprolol fumarate shortening its elimination half-life | \r'
p995
sg30
Nsg31
Nsg32
Nsg33
Nsg34
Nsg35
Nsg36
S'Bisoprolol'
p996
sa(dp997
g2
Nsg3
S'http://bio2rdf.org/drugbank:DB00196'
p998
sg5
S'http://bio2rdf.org/drugbank:DB01045'
p999
sg7
Nsg8
Nsg9
Nsg10
S'consensus set annotator team'
p1000
sg12
Nsg13
Nsg14
Nsg15
Nsg16
Nsg17
g18
sg19
Nsg20
Nsg21
Nsg22
Nsg23
Nsg24
Nsg25
S'RIFAMPICIN'
p1001
sg27
Nsg28
S'half-life decreased from 33.4 ? 4.4 hours to 26.8 ? 3.9 hours | significant decrease in fluconazole AUC | \r'
p1002
sg30
Nsg31
Nsg32
Nsg33
Nsg34
Nsg35
Nsg36
S'Fluconazole'
p1003
sa(dp1004
g2
Nsg3
S'http://bio2rdf.org/drugbank:DB00497'
p1005
sg5
S'http://bio2rdf.org/drugbank:DB01045'
p1006
sg7
Nsg8
Nsg9
Nsg10
S'consensus set annotator team'
p1007
sg12
Nsg13
Nsg14
Nsg15
Nsg16
Nsg17
g18
sg19
Nsg20
Nsg21
Nsg22
Nsg23
Nsg24
Nsg25
S'RIFAMPICIN'
p1008
sg27
Nsg28
S'decreased plasma oxycodone concentrations | decreased oxycodone AUC and Cmax values by 86% and 63% | \r'
p1009
sg30
Nsg31
Nsg32
Nsg33
Nsg34
Nsg35
Nsg36
S'Oxycodone'
p1010
sa(dp1011
g2
Nsg3
S'http://bio2rdf.org/drugbank:DB00734'
p1012
sg5
S'http://bio2rdf.org/drugbank:DB01045'
p1013
sg7
Nsg8
Nsg9
Nsg10
S'consensus set annotator team'
p1014
sg12
Nsg13
Nsg14
Nsg15
Nsg16
Nsg17
g18
sg19
Nsg20
Nsg21
Nsg22
Nsg23
Nsg24
Nsg25
S'RIFAMPICIN'
p1015
sg27
Nsg28
S'may cause similar decreases in the combined plasma concentrations | may cause a decrease in the combined plasma concentrations | \r'
p1016
sg30
Nsg31
Nsg32
Nsg33
Nsg34
Nsg35
Nsg36
S'Risperidone'
p1017
sa(dp1018
g2
Nsg3
S'http://bio2rdf.org/drugbank:DB00864'
p1019
sg5
S'http://bio2rdf.org/drugbank:DB01045'
p1020
sg7
Nsg8
Nsg9
Nsg10
S'consensus set annotator team'
p1021
sg12
Nsg13
Nsg14
Nsg15
Nsg16
Nsg17
g18
sg19
Nsg20
Nsg21
Nsg22
Nsg23
Nsg24
Nsg25
S'RIFAMPICIN'
p1022
sg27
Nsg28
S'increase in tacrolimus clearance (0.036?0.008 L/hr/kg vs. 0.053?0.010 L/hr/kg | decrease in tacrolimus oral bioavailability (14?6% vs. 7?3%) | \r'
p1023
sg30
Nsg31
Nsg32
Nsg33
Nsg34
Nsg35
Nsg36
S'TACROLIMUS'
p1024
sa(dp1025
g2
Nsg3
S'http://bio2rdf.org/drugbank:DB00661'
p1026
sg5
S'http://bio2rdf.org/drugbank:DB01045'
p1027
sg7
Nsg8
Nsg9
Nsg10
S'consensus set annotator team'
p1028
sg12
Nsg13
Nsg14
Nsg15
Nsg16
Nsg17
g18
sg19
Nsg20
Nsg21
Nsg22
Nsg23
Nsg24
Nsg25
S'RIFAMPICIN'
p1029
sg27
Nsg28
S'lowering of plasma levels | reduce oral verapamil bioavailability | \r'
p1030
sg30
Nsg31
Nsg32
Nsg33
Nsg34
Nsg35
Nsg36
S'Verapamil'
p1031
sa(dp1032
g2
Nsg3
S'http://bio2rdf.org/drugbank:DB00313'
p1033
sg5
S'http://bio2rdf.org/drugbank:DB00734'
p1034
sg7
Nsg8
Nsg9
Nsg10
S'consensus set annotator team'
p1035
sg12
Nsg13
Nsg14
Nsg15
Nsg16
Nsg17
g18
sg19
Nsg20
Nsg21
Nsg22
Nsg23
Nsg24
Nsg25
S'Risperidone'
p1036
sg27
Nsg28
S'there was a 20% increase in valproate peak plasma concentration (Cmax | \r'
p1037
sg30
Nsg31
Nsg32
Nsg33
Nsg34
Nsg35
Nsg36
S'Valproic Acid'
p1038
sa(dp1039
g2
Nsg3
S'http://bio2rdf.org/drugbank:DB01076'
p1040
sg5
S'http://bio2rdf.org/drugbank:DB00503'
p1041
sg7
Nsg8
Nsg9
Nsg10
S'consensus set annotator team'
p1042
sg12
Nsg13
Nsg14
Nsg15
Nsg16
Nsg17
g18
sg19
Nsg20
Nsg21
Nsg22
Nsg23
Nsg24
Nsg25
S'Ritonavir'
p1043
sg27
Nsg28
S'AUC was significantly increased | AUC was significantly increased | \r'
p1044
sg30
Nsg31
Nsg32
Nsg33
Nsg34
Nsg35
Nsg36
S'ATORVASTATIN'
p1045
sa(dp1046
g2
Nsg3
S'http://bio2rdf.org/drugbank:DB01076'
p1047
sg5
S'http://bio2rdf.org/drugbank:DB00503'
p1048
sg7
Nsg8
Nsg9
Nsg10
S'consensus set annotator team'
p1049
sg12
Nsg13
Nsg14
Nsg15
Nsg16
Nsg17
g18
sg19
Nsg20
Nsg21
Nsg22
Nsg23
Nsg24
Nsg25
S'Ritonavir'
p1050
sg27
Nsg28
S'AUC was significantly increased | AUC was significantly increased | \r'
p1051
sg30
Nsg31
Nsg32
Nsg33
Nsg34
Nsg35
Nsg36
S'Atorvastatin'
p1052
sa(dp1053
g2
Nsg3
S'http://bio2rdf.org/drugbank:DB00203'
p1054
sg5
S'http://bio2rdf.org/drugbank:DB00503'
p1055
sg7
Nsg8
Nsg9
Nsg10
S'consensus set annotator team'
p1056
sg12
Nsg13
Nsg14
Nsg15
Nsg16
Nsg17
g18
sg19
Nsg20
Nsg21
Nsg22
Nsg23
Nsg24
Nsg25
S'Ritonavir'
p1057
sg27
Nsg28
S'resulted in a 300% (4-fold) increase in sildenafil Cmax | 1000% (11-fold) increase in sildenafil plasma AUC | \r'
p1058
sg30
Nsg31
Nsg32
Nsg33
Nsg34
Nsg35
Nsg36
S'Sildenafil'
p1059
sa(dp1060
g2
Nsg3
S'http://bio2rdf.org/drugbank:DB00656'
p1061
sg5
S'http://bio2rdf.org/drugbank:DB00503'
p1062
sg7
Nsg8
Nsg9
Nsg10
S'consensus set annotator team'
p1063
sg12
Nsg13
Nsg14
Nsg15
Nsg16
Nsg17
g18
sg19
Nsg20
Nsg21
Nsg22
Nsg23
Nsg24
Nsg25
S'Ritonavir'
p1064
sg27
Nsg28
S'can be inhibited | Cmax of trazodone increased by 34%, the AUC increased 2.4 fold, the half-life increased by 2.2 fold, and the clearance decreased by 52% | \r'
p1065
sg30
Nsg31
Nsg32
Nsg33
Nsg34
Nsg35
Nsg36
S'TRAZODONE'
p1066
sa(dp1067
g2
Nsg3
S'http://bio2rdf.org/drugbank:DB00661'
p1068
sg5
S'http://bio2rdf.org/drugbank:DB00503'
p1069
sg7
Nsg8
Nsg9
Nsg10
S'consensus set annotator team'
p1070
sg12
Nsg13
Nsg14
Nsg15
Nsg16
Nsg17
g18
sg19
Nsg20
Nsg21
Nsg22
Nsg23
Nsg24
Nsg25
S'Ritonavir'
p1071
sg27
Nsg28
S'causing elevation of plasma levels | \r'
p1072
sg30
Nsg31
Nsg32
Nsg33
Nsg34
Nsg35
Nsg36
S'Verapamil'
p1073
sa(dp1074
g2
Nsg3
S'http://bio2rdf.org/drugbank:DB01016'
p1075
sg5
S'http://bio2rdf.org/drugbank:DB00412'
p1076
sg7
Nsg8
Nsg9
Nsg10
S'consensus set annotator team'
p1077
sg12
Nsg13
Nsg14
Nsg15
Nsg16
Nsg17
g18
sg19
Nsg20
Nsg21
Nsg22
Nsg23
Nsg24
Nsg25
S'Rosiglitazone'
p1078
sg27
Nsg28
S'AUC and Cmax slightly increased | decrease in glyburide AUC and Cmax of approximately 30% | \r'
p1079
sg30
Nsg31
Nsg32
Nsg33
Nsg34
Nsg35
Nsg36
S'Glyburide'
p1080
sa(dp1081
g2
Nsg3
S'http://bio2rdf.org/drugbank:DB01076'
p1082
sg5
S'http://bio2rdf.org/drugbank:DB01232'
p1083
sg7
Nsg8
Nsg9
Nsg10
S'consensus set annotator team'
p1084
sg12
Nsg13
Nsg14
Nsg15
Nsg16
Nsg17
g18
sg19
Nsg20
Nsg21
Nsg22
Nsg23
Nsg24
Nsg25
S'SAQUINAVIR'
p1085
sg27
Nsg28
S'AUC was significantly increased | AUC was significantly increased | \r'
p1086
sg30
Nsg31
Nsg32
Nsg33
Nsg34
Nsg35
Nsg36
S'ATORVASTATIN'
p1087
sa(dp1088
g2
Nsg3
S'http://bio2rdf.org/drugbank:DB01076'
p1089
sg5
S'http://bio2rdf.org/drugbank:DB01232'
p1090
sg7
Nsg8
Nsg9
Nsg10
S'consensus set annotator team'
p1091
sg12
Nsg13
Nsg14
Nsg15
Nsg16
Nsg17
g18
sg19
Nsg20
Nsg21
Nsg22
Nsg23
Nsg24
Nsg25
S'SAQUINAVIR'
p1092
sg27
Nsg28
S'AUC was significantly increased | AUC was significantly increased | \r'
p1093
sg30
Nsg31
Nsg32
Nsg33
Nsg34
Nsg35
Nsg36
S'Atorvastatin'
p1094
sa(dp1095
g2
Nsg3
S'http://bio2rdf.org/drugbank:DB00203'
p1096
sg5
S'http://bio2rdf.org/drugbank:DB01232'
p1097
sg7
Nsg8
Nsg9
Nsg10
S'consensus set annotator team'
p1098
sg12
Nsg13
Nsg14
Nsg15
Nsg16
Nsg17
g18
sg19
Nsg20
Nsg21
Nsg22
Nsg23
Nsg24
Nsg25
S'SAQUINAVIR'
p1099
sg27
Nsg28
S'expected to increase sildenafil levels | resulted in a 140% increase in sildenafil Cmax and a 210% increase in sildenafil AUC | 210% increase in sildenafil AUC | \r'
p1100
sg30
Nsg31
Nsg32
Nsg33
Nsg34
Nsg35
Nsg36
S'Sildenafil'
p1101
sa(dp1102
g2
Nsg3
S'http://bio2rdf.org/drugbank:DB00604'
p1103
sg5
S'http://bio2rdf.org/drugbank:DB01104'
p1104
sg7
Nsg8
Nsg9
Nsg10
S'consensus set annotator team'
p1105
sg12
Nsg13
Nsg14
Nsg15
Nsg16
Nsg17
g18
sg19
Nsg20
Nsg21
Nsg22
Nsg23
Nsg24
Nsg25
S'SERTRALINE'
p1106
sg27
Nsg28
S'induces the metabolism of cisapride (cisapride AUC and Cmax were reduced by about 35% | \r'
p1107
sg30
Nsg31
Nsg32
Nsg33
Nsg34
Nsg35
Nsg36
S'Cisapride'
p1108
sa(dp1109
g2
Nsg3
S'http://bio2rdf.org/drugbank:DB00829'
p1110
sg5
S'http://bio2rdf.org/drugbank:DB01104'
p1111
sg7
Nsg8
Nsg9
Nsg10
S'consensus set annotator team'
p1112
sg12
Nsg13
Nsg14
Nsg15
Nsg16
Nsg17
g18
sg19
Nsg20
Nsg21
Nsg22
Nsg23
Nsg24
Nsg25
S'SERTRALINE'
p1113
sg27
Nsg28
S'32% decrease relative to baseline in diazepam clearance | \r'
p1114
sg30
Nsg31
Nsg32
Nsg33
Nsg34
Nsg35
Nsg36
S'DIAZEPAM'
p1115
sa(dp1116
g2
Nsg3
S'http://bio2rdf.org/drugbank:DB01100'
p1117
sg5
S'http://bio2rdf.org/drugbank:DB01104'
p1118
sg7
Nsg8
Nsg9
Nsg10
S'consensus set annotator team'
p1119
sg12
Nsg13
Nsg14
Nsg15
Nsg16
Nsg17
g18
sg19
Nsg20
Nsg21
Nsg22
Nsg23
Nsg24
Nsg25
S'SERTRALINE'
p1120
sg27
Nsg28
S'increase in pimozide AUC and C max of about 40% | \r'
p1121
sg30
Nsg31
Nsg32
Nsg33
Nsg34
Nsg35
Nsg36
S'Pimozide'
p1122
sa(dp1123
g2
Nsg3
S'http://bio2rdf.org/drugbank:DB01124'
p1124
sg5
S'http://bio2rdf.org/drugbank:DB01104'
p1125
sg7
Nsg8
Nsg9
Nsg10
S'consensus set annotator team'
p1126
sg12
Nsg13
Nsg14
Nsg15
Nsg16
Nsg17
g18
sg19
Nsg20
Nsg21
Nsg22
Nsg23
Nsg24
Nsg25
S'SERTRALINE'
p1127
sg27
Nsg28
S'16% decrease from baseline in the clearance | \r'
p1128
sg30
Nsg31
Nsg32
Nsg33
Nsg34
Nsg35
Nsg36
S'TOLBUTAMIDE'
p1129
sa(dp1130
g2
Nsg3
S'http://bio2rdf.org/drugbank:DB00559'
p1131
sg5
S'http://bio2rdf.org/drugbank:DB00203'
p1132
sg7
Nsg8
Nsg9
Nsg10
S'consensus set annotator team'
p1133
sg12
Nsg13
Nsg14
Nsg15
Nsg16
Nsg17
g18
sg19
Nsg20
Nsg21
Nsg22
Nsg23
Nsg24
Nsg25
S'Sildenafil'
p1134
sg27
Nsg28
S'50% increase in AUC of bosentan | \r'
p1135
sg30
Nsg31
Nsg32
Nsg33
Nsg34
Nsg35
Nsg36
S'BOSENTAN'
p1136
sa(dp1137
g2
Nsg3
S'http://bio2rdf.org/drugbank:DB00390'
p1138
sg5
S'http://bio2rdf.org/drugbank:DB00641'
p1139
sg7
Nsg8
Nsg9
Nsg10
S'consensus set annotator team'
p1140
sg12
Nsg13
Nsg14
Nsg15
Nsg16
Nsg17
g18
sg19
Nsg20
Nsg21
Nsg22
Nsg23
Nsg24
Nsg25
S'SIMVASTATIN'
p1141
sg27
Nsg28
S'increase in the maximum mean levels of cardioactive digoxin (given as a single 0.4 mg dose on day 10) by approximately 0.3 ng/mL | slight elevation in digoxin concentrations | \r'
p1142
sg30
Nsg31
Nsg32
Nsg33
Nsg34
Nsg35
Nsg36
S'Digoxin'
p1143
sa(dp1144
g2
Nsg3
S'http://bio2rdf.org/drugbank:DB00252'
p1145
sg5
S'http://bio2rdf.org/drugbank:DB01015'
p1146
sg7
Nsg8
Nsg9
Nsg10
S'consensus set annotator team'
p1147
sg12
Nsg13
Nsg14
Nsg15
Nsg16
Nsg17
g18
sg19
Nsg20
Nsg21
Nsg22
Nsg23
Nsg24
Nsg25
S'Sulfamethoxazole'
p1148
sg27
Nsg28
S'may inhibit the hepatic metabolism | increased the phenytoin half-life by 39% and decreased the phenytoin metabolic clearance rate by 27% | \r'
p1149
sg30
Nsg31
Nsg32
Nsg33
Nsg34
Nsg35
Nsg36
S'PHENYTOIN'
p1150
sa(dp1151
g2
Nsg3
S'http://bio2rdf.org/drugbank:DB00277'
p1152
sg5
S'http://bio2rdf.org/drugbank:DB00382'
p1153
sg7
Nsg8
Nsg9
Nsg10
S'consensus set annotator team'
p1154
sg12
Nsg13
Nsg14
Nsg15
Nsg16
Nsg17
g18
sg19
Nsg20
Nsg21
Nsg22
Nsg23
Nsg24
Nsg25
S'Tacrine'
p1155
sg27
Nsg28
S'increased theophylline elimination half-life and average plasma theophylline concentrations by approximately 2-fold | \r'
p1156
sg30
Nsg31
Nsg32
Nsg33
Nsg34
Nsg35
Nsg36
S'THEOPHYLLINE'
p1157
sa(dp1158
g2
Nsg3
S'http://bio2rdf.org/drugbank:DB00252'
p1159
sg5
S'http://bio2rdf.org/drugbank:DB00864'
p1160
sg7
Nsg8
Nsg9
Nsg10
S'consensus set annotator team'
p1161
sg12
Nsg13
Nsg14
Nsg15
Nsg16
Nsg17
g18
sg19
Nsg20
Nsg21
Nsg22
Nsg23
Nsg24
Nsg25
S'TACROLIMUS'
p1162
sg27
Nsg28
S'may affect the pharmacokinetics of other drugs (e.g., phenytoin) and increase their concentration | \r'
p1163
sg30
Nsg31
Nsg32
Nsg33
Nsg34
Nsg35
Nsg36
S'Phenytoin'
p1164
sa(dp1165
g2
Nsg3
S'http://bio2rdf.org/drugbank:DB00900'
p1166
sg5
S'http://bio2rdf.org/drugbank:DB00300'
p1167
sg7
Nsg8
Nsg9
Nsg10
S'consensus set annotator team'
p1168
sg12
Nsg13
Nsg14
Nsg15
Nsg16
Nsg17
g18
sg19
Nsg20
Nsg21
Nsg22
Nsg23
Nsg24
Nsg25
S'TENOFOVIR'
p1169
sg27
Nsg28
S'Exposure to didanosine is increased | \r'
p1170
sg30
Nsg31
Nsg32
Nsg33
Nsg34
Nsg35
Nsg36
S'DIDANOSINE'
p1171
sa(dp1172
g2
Nsg3
S'http://bio2rdf.org/drugbank:DB00176'
p1173
sg5
S'http://bio2rdf.org/drugbank:DB00277'
p1174
sg7
Nsg8
Nsg9
Nsg10
S'consensus set annotator team'
p1175
sg12
Nsg13
Nsg14
Nsg15
Nsg16
Nsg17
g18
sg19
Nsg20
Nsg21
Nsg22
Nsg23
Nsg24
Nsg25
S'THEOPHYLLINE'
p1176
sg27
Nsg28
S'A clinically significant fluvoxamine interaction | \r'
p1177
sg30
Nsg31
Nsg32
Nsg33
Nsg34
Nsg35
Nsg36
S'Fluvoxamine'
p1178
sa(dp1179
g2
Nsg3
S'http://bio2rdf.org/drugbank:DB00949'
p1180
sg5
S'http://bio2rdf.org/drugbank:DB00313'
p1181
sg7
Nsg8
Nsg9
Nsg10
S'consensus set annotator team'
p1182
sg12
Nsg13
Nsg14
Nsg15
Nsg16
Nsg17
g18
sg19
Nsg20
Nsg21
Nsg22
Nsg23
Nsg24
Nsg25
S'Valproic Acid'
p1183
sg27
Nsg28
S'not expected to cause a clinically important effect on Felbatol\xc3\xaf\xc2\xbe\xc2\xab (felbamate) plasma concentrations | \r'
p1184
sg30
Nsg31
Nsg32
Nsg33
Nsg34
Nsg35
Nsg36
S'Felbamate'
p1185
sa(dp1186
g2
Nsg3
S'http://bio2rdf.org/drugbank:DB01258'
p1187
sg5
S'http://bio2rdf.org/drugbank:DB00661'
p1188
sg7
Nsg8
Nsg9
Nsg10
S'consensus set annotator team'
p1189
sg12
Nsg13
Nsg14
Nsg15
Nsg16
Nsg17
g18
sg19
Nsg20
Nsg21
Nsg22
Nsg23
Nsg24
Nsg25
S'Verapamil'
p1190
sg27
Nsg28
S'2-fold increase in Cmax and AUC | \r'
p1191
sg30
Nsg31
Nsg32
Nsg33
Nsg34
Nsg35
Nsg36
S'Aliskiren'
p1192
sa(dp1193
g2
Nsg3
S'http://bio2rdf.org/drugbank:DB00564'
p1194
sg5
S'http://bio2rdf.org/drugbank:DB00661'
p1195
sg7
Nsg8
Nsg9
Nsg10
S'consensus set annotator team'
p1196
sg12
Nsg13
Nsg14
Nsg15
Nsg16
Nsg17
g18
sg19
Nsg20
Nsg21
Nsg22
Nsg23
Nsg24
Nsg25
S'Verapamil'
p1197
sg27
Nsg28
S'increase carbamazepine concentrations | \r'
p1198
sg30
Nsg31
Nsg32
Nsg33
Nsg34
Nsg35
Nsg36
S'Carbamazepine'
p1199
sa(dp1200
g2
Nsg3
S'http://bio2rdf.org/drugbank:DB00091'
p1201
sg5
S'http://bio2rdf.org/drugbank:DB00661'
p1202
sg7
Nsg8
Nsg9
Nsg10
S'consensus set annotator team'
p1203
sg12
Nsg13
Nsg14
Nsg15
Nsg16
Nsg17
g18
sg19
Nsg20
Nsg21
Nsg22
Nsg23
Nsg24
Nsg25
S'Verapamil'
p1204
sg27
Nsg28
S'may increase serum levels | \r'
p1205
sg30
Nsg31
Nsg32
Nsg33
Nsg34
Nsg35
Nsg36
S'CYCLOSPORINE'
p1206
sa(dp1207
g2
Nsg3
S'http://bio2rdf.org/drugbank:DB01396'
p1208
sg5
S'http://bio2rdf.org/drugbank:DB00661'
p1209
sg7
Nsg8
Nsg9
Nsg10
S'consensus set annotator team'
p1210
sg12
Nsg13
Nsg14
Nsg15
Nsg16
Nsg17
g18
sg19
Nsg20
Nsg21
Nsg22
Nsg23
Nsg24
Nsg25
S'Verapamil'
p1211
sg27
Nsg28
S'reduce total body clearance and extrarenal clearance of digitoxin by 27% and 29 | \r'
p1212
sg30
Nsg31
Nsg32
Nsg33
Nsg34
Nsg35
Nsg36
S'Digitoxin'
p1213
sa(dp1214
g2
Nsg3
S'http://bio2rdf.org/drugbank:DB00390'
p1215
sg5
S'http://bio2rdf.org/drugbank:DB00661'
p1216
sg7
Nsg8
Nsg9
Nsg10
S'consensus set annotator team'
p1217
sg12
Nsg13
Nsg14
Nsg15
Nsg16
Nsg17
g18
sg19
Nsg20
Nsg21
Nsg22
Nsg23
Nsg24
Nsg25
S'Verapamil'
p1218
sg27
Nsg28
S'increase serum digoxin levels by 50% to 75 | \r'
p1219
sg30
Nsg31
Nsg32
Nsg33
Nsg34
Nsg35
Nsg36
S'Digoxin'
p1220
sa(dp1221
g2
Nsg3
S'http://bio2rdf.org/drugbank:DB00997'
p1222
sg5
S'http://bio2rdf.org/drugbank:DB00661'
p1223
sg7
Nsg8
Nsg9
Nsg10
S'consensus set annotator team'
p1224
sg12
Nsg13
Nsg14
Nsg15
Nsg16
Nsg17
g18
sg19
Nsg20
Nsg21
Nsg22
Nsg23
Nsg24
Nsg25
S'Verapamil'
p1225
sg27
Nsg28
S'increase doxorubicin levels | \r'
p1226
sg30
Nsg31
Nsg32
Nsg33
Nsg34
Nsg35
Nsg36
S'Doxorubicin'
p1227
sa(dp1228
g2
Nsg3
S'http://bio2rdf.org/drugbank:DB00898'
p1229
sg5
S'http://bio2rdf.org/drugbank:DB00661'
p1230
sg7
Nsg8
Nsg9
Nsg10
S'consensus set annotator team'
p1231
sg12
Nsg13
Nsg14
Nsg15
Nsg16
Nsg17
g18
sg19
Nsg20
Nsg21
Nsg22
Nsg23
Nsg24
Nsg25
S'Verapamil'
p1232
sg27
Nsg28
S'inhibit ethanol elimination resulting in elevated blood ethanol concentrations | \r'
p1233
sg30
Nsg31
Nsg32
Nsg33
Nsg34
Nsg35
Nsg36
S'ETHANOL'
p1234
sa(dp1235
g2
Nsg3
S'http://bio2rdf.org/drugbank:DB01356'
p1236
sg5
S'http://bio2rdf.org/drugbank:DB00661'
p1237
sg7
Nsg8
Nsg9
Nsg10
S'consensus set annotator team'
p1238
sg12
Nsg13
Nsg14
Nsg15
Nsg16
Nsg17
g18
sg19
Nsg20
Nsg21
Nsg22
Nsg23
Nsg24
Nsg25
S'Verapamil'
p1239
sg27
Nsg28
S'lowering of serum lithium levels | increase in serum lithium levels | \r'
p1240
sg30
Nsg31
Nsg32
Nsg33
Nsg34
Nsg35
Nsg36
S'LITHIUM'
p1241
sa(dp1242
g2
Nsg3
S'http://bio2rdf.org/drugbank:DB01229'
p1243
sg5
S'http://bio2rdf.org/drugbank:DB00661'
p1244
sg7
Nsg8
Nsg9
Nsg10
S'consensus set annotator team'
p1245
sg12
Nsg13
Nsg14
Nsg15
Nsg16
Nsg17
g18
sg19
Nsg20
Nsg21
Nsg22
Nsg23
Nsg24
Nsg25
S'Verapamil'
p1246
sg27
Nsg28
S'can decrease the clearance | \r'
p1247
sg30
Nsg31
Nsg32
Nsg33
Nsg34
Nsg35
Nsg36
S'Paclitaxel'
p1248
sa(dp1249
g2
Nsg3
S'http://bio2rdf.org/drugbank:DB00908'
p1250
sg5
S'http://bio2rdf.org/drugbank:DB00661'
p1251
sg7
Nsg8
Nsg9
Nsg10
S'consensus set annotator team'
p1252
sg12
Nsg13
Nsg14
Nsg15
Nsg16
Nsg17
g18
sg19
Nsg20
Nsg21
Nsg22
Nsg23
Nsg24
Nsg25
S'Verapamil'
p1253
sg27
Nsg28
S'increased quinidine levels | \r'
p1254
sg30
Nsg31
Nsg32
Nsg33
Nsg34
Nsg35
Nsg36
S'QUINIDINE'
p1255
sa(dp1256
g2
Nsg3
S'http://bio2rdf.org/drugbank:DB00277'
p1257
sg5
S'http://bio2rdf.org/drugbank:DB00661'
p1258
sg7
Nsg8
Nsg9
Nsg10
S'consensus set annotator team'
p1259
sg12
Nsg13
Nsg14
Nsg15
Nsg16
Nsg17
g18
sg19
Nsg20
Nsg21
Nsg22
Nsg23
Nsg24
Nsg25
S'Verapamil'
p1260
sg27
Nsg28
S'increase the plasma levels | \r'
p1261
sg30
Nsg31
Nsg32
Nsg33
Nsg34
Nsg35
Nsg36
S'THEOPHYLLINE'
p1262
sa(dp1263
g2
Nsg3
S'http://bio2rdf.org/drugbank:DB00661'
p1264
sg5
S'http://bio2rdf.org/drugbank:DB00541'
p1265
sg7
Nsg8
Nsg9
Nsg10
S'consensus set annotator team'
p1266
sg12
Nsg13
Nsg14
Nsg15
Nsg16
Nsg17
g18
sg19
Nsg20
Nsg21
Nsg22
Nsg23
Nsg24
Nsg25
S'Vincristine'
p1267
sg27
Nsg28
S'absorption of verapamil can be reduced | absorption of verapamil can be reduced | \r'
p1268
sg30
Nsg31
Nsg32
Nsg33
Nsg34
Nsg35
Nsg36
S'Verapamil'
p1269
sa(dp1270
g2
Nsg3
S'http://bio2rdf.org/drugbank:DB00661'
p1271
sg5
S'http://bio2rdf.org/drugbank:DB00541'
p1272
sg7
Nsg8
Nsg9
Nsg10
S'consensus set annotator team'
p1273
sg12
Nsg13
Nsg14
Nsg15
Nsg16
Nsg17
g18
sg19
Nsg20
Nsg21
Nsg22
Nsg23
Nsg24
Nsg25
S'Vincristine'
p1274
sg27
Nsg28
S'absorption of verapamil can be reduced | absorption of verapamil can be reduced | \r'
p1275
sg30
Nsg31
Nsg32
Nsg33
Nsg34
Nsg35
Nsg36
S'Verapamil'
p1276
sa(dp1277
g2
Nsg3
S'http://bio2rdf.org/drugbank:DB00661'
p1278
sg5
S'http://bio2rdf.org/drugbank:DB00309'
p1279
sg7
Nsg8
Nsg9
Nsg10
S'consensus set annotator team'
p1280
sg12
Nsg13
Nsg14
Nsg15
Nsg16
Nsg17
g18
sg19
Nsg20
Nsg21
Nsg22
Nsg23
Nsg24
Nsg25
S'VINDESINE'
p1281
sg27
Nsg28
S'absorption of verapamil can be reduced | \r'
p1282
sg30
Nsg31
Nsg32
Nsg33
Nsg34
Nsg35
Nsg36
S'Verapamil'
p1283
sa(dp1284
g2
Nsg3
S'http://bio2rdf.org/drugbank:DB00497'
p1285
sg5
S'http://bio2rdf.org/drugbank:DB00582'
p1286
sg7
Nsg8
Nsg9
Nsg10
S'consensus set annotator team'
p1287
sg12
Nsg13
Nsg14
Nsg15
Nsg16
Nsg17
g18
sg19
Nsg20
Nsg21
Nsg22
Nsg23
Nsg24
Nsg25
S'Voriconazole'
p1288
sg27
Nsg28
S'increased oxycodone AUC and Cmax by 3.6 and 1.7 fold | increased the plasma concentrations | \r'
p1289
sg30
Nsg31
Nsg32
Nsg33
Nsg34
Nsg35
Nsg36
S'Oxycodone'
p1290
sa(dp1291
g2
Nsg3
S'http://bio2rdf.org/drugbank:DB00877'
p1292
sg5
S'http://bio2rdf.org/drugbank:DB00582'
p1293
sg7
Nsg8
Nsg9
Nsg10
S'consensus set annotator team'
p1294
sg12
Nsg13
Nsg14
Nsg15
Nsg16
Nsg17
g18
sg19
Nsg20
Nsg21
Nsg22
Nsg23
Nsg24
Nsg25
S'Voriconazole'
p1295
sg27
Nsg28
S'increased the Cmax and AUC of sirolimus (2 mg single dose) an average of 7-fold (90% CI: 5.7, 7.5) and 11-fold | \r'
p1296
sg30
Nsg31
Nsg32
Nsg33
Nsg34
Nsg35
Nsg36
S'SIROLIMUS'
p1297
sa(dp1298
g2
Nsg3
S'http://bio2rdf.org/drugbank:DB00864'
p1299
sg5
S'http://bio2rdf.org/drugbank:DB05251'
p1300
sg7
Nsg8
Nsg9
Nsg10
S'consensus set annotator team'
p1301
sg12
Nsg13
Nsg14
Nsg15
Nsg16
Nsg17
g18
sg19
Nsg20
Nsg21
Nsg22
Nsg23
Nsg24
Nsg25
S'VRX496'
p1302
sg27
Nsg28
S'increased blood concentrations | \r'
p1303
sg30
Nsg31
Nsg32
Nsg33
Nsg34
Nsg35
Nsg36
S'TACROLIMUS'
p1304
sa(dp1305
g2
Nsg3
S'http://bio2rdf.org/drugbank:DB01072'
p1306
sg5
S'http://bio2rdf.org/drugbank:DB00495'
p1307
sg7
Nsg8
Nsg9
Nsg10
S'consensus set annotator team'
p1308
sg12
Nsg13
Nsg14
Nsg15
Nsg16
Nsg17
g18
sg19
Nsg20
Nsg21
Nsg22
Nsg23
Nsg24
Nsg25
S'Zidovudine'
p1309
sg27
Nsg28
S'substantially decreases the systemic concentrations | \r'
p1310
sg30
Nsg31
Nsg32
Nsg33
Nsg34
Nsg35
Nsg36
S'Atazanavir'
p1311
sa(dp1312
g2
Nsg3
S'http://bio2rdf.org/drugbank:DB00252'
p1313
sg5
S'http://bio2rdf.org/drugbank:DB00495'
p1314
sg7
Nsg8
Nsg9
Nsg10
S'consensus set annotator team'
p1315
sg12
Nsg13
Nsg14
Nsg15
Nsg16
Nsg17
g18
sg19
Nsg20
Nsg21
Nsg22
Nsg23
Nsg24
Nsg25
S'ZIDOVUDINE'
p1316
sg27
Nsg28
S'plasma levels have been reported to be low | \r'
p1317
sg30
Nsg31
Nsg32
Nsg33
Nsg34
Nsg35
Nsg36
S'PHENYTOIN'
p1318
sa.